
output/coremarks/coremarks.riscv:     file format elf64-littleriscv


Disassembly of section .text.init:

0000000080000000 <_start>:
_start():
    80000000:	62f9                	lui	t0,0x1e
    80000002:	3002a073          	csrs	mstatus,t0
    80000006:	4285                	li	t0,1
    80000008:	02fe                	sll	t0,t0,0x1f
    8000000a:	0002d563          	bgez	t0,80000014 <_start+0x14>
    8000000e:	4505                	li	a0,1
    80000010:	0260706f          	j	80007036 <exit>
    80000014:	00000297          	auipc	t0,0x0
    80000018:	01028293          	add	t0,t0,16 # 80000024 <_start+0x24>
    8000001c:	30529073          	csrw	mtvec,t0
    80000020:	00301073          	fscsr	zero
    80000024:	00000297          	auipc	t0,0x0
    80000028:	03828293          	add	t0,t0,56 # 8000005c <trap_entry>
    8000002c:	30529073          	csrw	mtvec,t0
    80000030:	0000a197          	auipc	gp,0xa
    80000034:	9b818193          	add	gp,gp,-1608 # 800099e8 <__global_pointer$>
    80000038:	8c718213          	add	tp,gp,-1849 # 800092af <_end+0x3f>
    8000003c:	fc027213          	and	tp,tp,-64
    80000040:	f1402573          	csrr	a0,mhartid
    80000044:	4585                	li	a1,1
    80000046:	00b57063          	bgeu	a0,a1,80000046 <_start+0x46>
    8000004a:	01151613          	sll	a2,a0,0x11
    8000004e:	9232                	add	tp,tp,a2
    80000050:	00150113          	add	sp,a0,1
    80000054:	0146                	sll	sp,sp,0x11
    80000056:	9112                	add	sp,sp,tp
    80000058:	6340706f          	j	8000768c <_init>

000000008000005c <trap_entry>:
trap_entry():
    8000005c:	716d                	add	sp,sp,-272
    8000005e:	e406                	sd	ra,8(sp)
    80000060:	e80a                	sd	sp,16(sp)
    80000062:	ec0e                	sd	gp,24(sp)
    80000064:	f012                	sd	tp,32(sp)
    80000066:	f416                	sd	t0,40(sp)
    80000068:	f81a                	sd	t1,48(sp)
    8000006a:	fc1e                	sd	t2,56(sp)
    8000006c:	e0a2                	sd	s0,64(sp)
    8000006e:	e4a6                	sd	s1,72(sp)
    80000070:	e8aa                	sd	a0,80(sp)
    80000072:	ecae                	sd	a1,88(sp)
    80000074:	f0b2                	sd	a2,96(sp)
    80000076:	f4b6                	sd	a3,104(sp)
    80000078:	f8ba                	sd	a4,112(sp)
    8000007a:	fcbe                	sd	a5,120(sp)
    8000007c:	e142                	sd	a6,128(sp)
    8000007e:	e546                	sd	a7,136(sp)
    80000080:	e94a                	sd	s2,144(sp)
    80000082:	ed4e                	sd	s3,152(sp)
    80000084:	f152                	sd	s4,160(sp)
    80000086:	f556                	sd	s5,168(sp)
    80000088:	f95a                	sd	s6,176(sp)
    8000008a:	fd5e                	sd	s7,184(sp)
    8000008c:	e1e2                	sd	s8,192(sp)
    8000008e:	e5e6                	sd	s9,200(sp)
    80000090:	e9ea                	sd	s10,208(sp)
    80000092:	edee                	sd	s11,216(sp)
    80000094:	f1f2                	sd	t3,224(sp)
    80000096:	f5f6                	sd	t4,232(sp)
    80000098:	f9fa                	sd	t5,240(sp)
    8000009a:	fdfe                	sd	t6,248(sp)
    8000009c:	34202573          	csrr	a0,mcause
    800000a0:	341025f3          	csrr	a1,mepc
    800000a4:	860a                	mv	a2,sp
    800000a6:	5ce070ef          	jal	80007674 <handle_trap>
    800000aa:	34151073          	csrw	mepc,a0
    800000ae:	6289                	lui	t0,0x2
    800000b0:	8002829b          	addw	t0,t0,-2048 # 1800 <_tbss_end+0x1800>
    800000b4:	3002a073          	csrs	mstatus,t0
    800000b8:	60a2                	ld	ra,8(sp)
    800000ba:	6142                	ld	sp,16(sp)
    800000bc:	61e2                	ld	gp,24(sp)
    800000be:	7202                	ld	tp,32(sp)
    800000c0:	72a2                	ld	t0,40(sp)
    800000c2:	7342                	ld	t1,48(sp)
    800000c4:	73e2                	ld	t2,56(sp)
    800000c6:	6406                	ld	s0,64(sp)
    800000c8:	64a6                	ld	s1,72(sp)
    800000ca:	6546                	ld	a0,80(sp)
    800000cc:	65e6                	ld	a1,88(sp)
    800000ce:	7606                	ld	a2,96(sp)
    800000d0:	76a6                	ld	a3,104(sp)
    800000d2:	7746                	ld	a4,112(sp)
    800000d4:	77e6                	ld	a5,120(sp)
    800000d6:	680a                	ld	a6,128(sp)
    800000d8:	68aa                	ld	a7,136(sp)
    800000da:	694a                	ld	s2,144(sp)
    800000dc:	69ea                	ld	s3,152(sp)
    800000de:	7a0a                	ld	s4,160(sp)
    800000e0:	7aaa                	ld	s5,168(sp)
    800000e2:	7b4a                	ld	s6,176(sp)
    800000e4:	7bea                	ld	s7,184(sp)
    800000e6:	6c0e                	ld	s8,192(sp)
    800000e8:	6cae                	ld	s9,200(sp)
    800000ea:	6d4e                	ld	s10,208(sp)
    800000ec:	6dee                	ld	s11,216(sp)
    800000ee:	7e0e                	ld	t3,224(sp)
    800000f0:	7eae                	ld	t4,232(sp)
    800000f2:	7f4e                	ld	t5,240(sp)
    800000f4:	7fee                	ld	t6,248(sp)
    800000f6:	6151                	add	sp,sp,272
    800000f8:	30200073          	mret
	...

Disassembly of section .tohost:

0000000080001000 <tohost>:
	...

0000000080001040 <fromhost>:
	...

Disassembly of section .text:

0000000080001048 <get_seed_32>:
get_seed_32():
    80001048:	4795                	li	a5,5
    8000104a:	04a7e863          	bltu	a5,a0,8000109a <get_seed_32+0x52>
    8000104e:	00007297          	auipc	t0,0x7
    80001052:	30228313          	add	t1,t0,770 # 80008350 <main+0xace>
    80001056:	00251713          	sll	a4,a0,0x2
    8000105a:	006703b3          	add	t2,a4,t1
    8000105e:	0003a503          	lw	a0,0(t2)
    80001062:	006505b3          	add	a1,a0,t1
    80001066:	8582                	jr	a1
    80001068:	8581a683          	lw	a3,-1960(gp) # 80009240 <seed5_volatile>
    8000106c:	0006851b          	sext.w	a0,a3
    80001070:	8082                	ret
    80001072:	8601a283          	lw	t0,-1952(gp) # 80009248 <seed1_volatile>
    80001076:	0002851b          	sext.w	a0,t0
    8000107a:	8082                	ret
    8000107c:	85c1af83          	lw	t6,-1956(gp) # 80009244 <seed2_volatile>
    80001080:	000f851b          	sext.w	a0,t6
    80001084:	8082                	ret
    80001086:	8441ae83          	lw	t4,-1980(gp) # 8000922c <seed3_volatile>
    8000108a:	000e851b          	sext.w	a0,t4
    8000108e:	8082                	ret
    80001090:	8401a883          	lw	a7,-1984(gp) # 80009228 <seed4_volatile>
    80001094:	0008851b          	sext.w	a0,a7
    80001098:	8082                	ret
    8000109a:	4501                	li	a0,0
    8000109c:	8082                	ret

000000008000109e <crcu8>:
crcu8():
    8000109e:	00b547b3          	xor	a5,a0,a1
    800010a2:	0017f713          	and	a4,a5,1
    800010a6:	00155293          	srl	t0,a0,0x1
    800010aa:	0015d693          	srl	a3,a1,0x1
    800010ae:	cb11                	beqz	a4,800010c2 <crcu8+0x24>
    800010b0:	7369                	lui	t1,0xffffa
    800010b2:	00130393          	add	t2,t1,1 # ffffffffffffa001 <__global_pointer$+0xffffffff7fff0619>
    800010b6:	0076c5b3          	xor	a1,a3,t2
    800010ba:	03059613          	sll	a2,a1,0x30
    800010be:	03065693          	srl	a3,a2,0x30
    800010c2:	00d2c833          	xor	a6,t0,a3
    800010c6:	00187893          	and	a7,a6,1
    800010ca:	00255e13          	srl	t3,a0,0x2
    800010ce:	0016d293          	srl	t0,a3,0x1
    800010d2:	00088b63          	beqz	a7,800010e8 <crcu8+0x4a>
    800010d6:	7ee9                	lui	t4,0xffffa
    800010d8:	001e8f13          	add	t5,t4,1 # ffffffffffffa001 <__global_pointer$+0xffffffff7fff0619>
    800010dc:	01e2cfb3          	xor	t6,t0,t5
    800010e0:	030f9793          	sll	a5,t6,0x30
    800010e4:	0307d293          	srl	t0,a5,0x30
    800010e8:	005e4733          	xor	a4,t3,t0
    800010ec:	00177313          	and	t1,a4,1
    800010f0:	00355393          	srl	t2,a0,0x3
    800010f4:	0012d893          	srl	a7,t0,0x1
    800010f8:	00030b63          	beqz	t1,8000110e <crcu8+0x70>
    800010fc:	75e9                	lui	a1,0xffffa
    800010fe:	00158613          	add	a2,a1,1 # ffffffffffffa001 <__global_pointer$+0xffffffff7fff0619>
    80001102:	00c8c6b3          	xor	a3,a7,a2
    80001106:	03069813          	sll	a6,a3,0x30
    8000110a:	03085893          	srl	a7,a6,0x30
    8000110e:	0113ce33          	xor	t3,t2,a7
    80001112:	001e7e93          	and	t4,t3,1
    80001116:	00455f13          	srl	t5,a0,0x4
    8000111a:	0018d313          	srl	t1,a7,0x1
    8000111e:	000e8b63          	beqz	t4,80001134 <crcu8+0x96>
    80001122:	7fe9                	lui	t6,0xffffa
    80001124:	001f8293          	add	t0,t6,1 # ffffffffffffa001 <__global_pointer$+0xffffffff7fff0619>
    80001128:	005347b3          	xor	a5,t1,t0
    8000112c:	03079713          	sll	a4,a5,0x30
    80001130:	03075313          	srl	t1,a4,0x30
    80001134:	006f43b3          	xor	t2,t5,t1
    80001138:	0013f593          	and	a1,t2,1
    8000113c:	00555613          	srl	a2,a0,0x5
    80001140:	00135e93          	srl	t4,t1,0x1
    80001144:	c991                	beqz	a1,80001158 <crcu8+0xba>
    80001146:	76e9                	lui	a3,0xffffa
    80001148:	00168813          	add	a6,a3,1 # ffffffffffffa001 <__global_pointer$+0xffffffff7fff0619>
    8000114c:	010ec8b3          	xor	a7,t4,a6
    80001150:	03089e13          	sll	t3,a7,0x30
    80001154:	030e5e93          	srl	t4,t3,0x30
    80001158:	01d64f33          	xor	t5,a2,t4
    8000115c:	001f7f93          	and	t6,t5,1
    80001160:	00655293          	srl	t0,a0,0x6
    80001164:	001ed593          	srl	a1,t4,0x1
    80001168:	000f8b63          	beqz	t6,8000117e <crcu8+0xe0>
    8000116c:	7769                	lui	a4,0xffffa
    8000116e:	00170313          	add	t1,a4,1 # ffffffffffffa001 <__global_pointer$+0xffffffff7fff0619>
    80001172:	0065c7b3          	xor	a5,a1,t1
    80001176:	03079393          	sll	t2,a5,0x30
    8000117a:	0303d593          	srl	a1,t2,0x30
    8000117e:	00b2c633          	xor	a2,t0,a1
    80001182:	00167693          	and	a3,a2,1
    80001186:	00755813          	srl	a6,a0,0x7
    8000118a:	0015df13          	srl	t5,a1,0x1
    8000118e:	ca91                	beqz	a3,800011a2 <crcu8+0x104>
    80001190:	78e9                	lui	a7,0xffffa
    80001192:	00188e13          	add	t3,a7,1 # ffffffffffffa001 <__global_pointer$+0xffffffff7fff0619>
    80001196:	01cf4533          	xor	a0,t5,t3
    8000119a:	03051e93          	sll	t4,a0,0x30
    8000119e:	030edf13          	srl	t5,t4,0x30
    800011a2:	001f7f93          	and	t6,t5,1
    800011a6:	001f5513          	srl	a0,t5,0x1
    800011aa:	010f8b63          	beq	t6,a6,800011c0 <crcu8+0x122>
    800011ae:	72e9                	lui	t0,0xffffa
    800011b0:	00128713          	add	a4,t0,1 # ffffffffffffa001 <__global_pointer$+0xffffffff7fff0619>
    800011b4:	00e54333          	xor	t1,a0,a4
    800011b8:	03031793          	sll	a5,t1,0x30
    800011bc:	0307d513          	srl	a0,a5,0x30
    800011c0:	8082                	ret

00000000800011c2 <crcu16>:
crcu16():
    800011c2:	0ff57793          	zext.b	a5,a0
    800011c6:	00b7c733          	xor	a4,a5,a1
    800011ca:	00177693          	and	a3,a4,1
    800011ce:	0017d293          	srl	t0,a5,0x1
    800011d2:	0015d813          	srl	a6,a1,0x1
    800011d6:	ca91                	beqz	a3,800011ea <crcu16+0x28>
    800011d8:	7369                	lui	t1,0xffffa
    800011da:	00130393          	add	t2,t1,1 # ffffffffffffa001 <__global_pointer$+0xffffffff7fff0619>
    800011de:	007845b3          	xor	a1,a6,t2
    800011e2:	03059613          	sll	a2,a1,0x30
    800011e6:	03065813          	srl	a6,a2,0x30
    800011ea:	0102c8b3          	xor	a7,t0,a6
    800011ee:	0018fe13          	and	t3,a7,1
    800011f2:	0027de93          	srl	t4,a5,0x2
    800011f6:	00185293          	srl	t0,a6,0x1
    800011fa:	000e0b63          	beqz	t3,80001210 <crcu16+0x4e>
    800011fe:	7f69                	lui	t5,0xffffa
    80001200:	001f0f93          	add	t6,t5,1 # ffffffffffffa001 <__global_pointer$+0xffffffff7fff0619>
    80001204:	01f2c733          	xor	a4,t0,t6
    80001208:	03071693          	sll	a3,a4,0x30
    8000120c:	0306d293          	srl	t0,a3,0x30
    80001210:	005ec333          	xor	t1,t4,t0
    80001214:	00137393          	and	t2,t1,1
    80001218:	0037d593          	srl	a1,a5,0x3
    8000121c:	0012de93          	srl	t4,t0,0x1
    80001220:	00038b63          	beqz	t2,80001236 <crcu16+0x74>
    80001224:	7669                	lui	a2,0xffffa
    80001226:	00160813          	add	a6,a2,1 # ffffffffffffa001 <__global_pointer$+0xffffffff7fff0619>
    8000122a:	010ec8b3          	xor	a7,t4,a6
    8000122e:	03089e13          	sll	t3,a7,0x30
    80001232:	030e5e93          	srl	t4,t3,0x30
    80001236:	01d5cf33          	xor	t5,a1,t4
    8000123a:	001f7f93          	and	t6,t5,1
    8000123e:	0047d693          	srl	a3,a5,0x4
    80001242:	001ed593          	srl	a1,t4,0x1
    80001246:	000f8b63          	beqz	t6,8000125c <crcu16+0x9a>
    8000124a:	72e9                	lui	t0,0xffffa
    8000124c:	00128313          	add	t1,t0,1 # ffffffffffffa001 <__global_pointer$+0xffffffff7fff0619>
    80001250:	0065c733          	xor	a4,a1,t1
    80001254:	03071393          	sll	t2,a4,0x30
    80001258:	0303d593          	srl	a1,t2,0x30
    8000125c:	00b6c633          	xor	a2,a3,a1
    80001260:	00167813          	and	a6,a2,1
    80001264:	0057d893          	srl	a7,a5,0x5
    80001268:	0015d293          	srl	t0,a1,0x1
    8000126c:	00080b63          	beqz	a6,80001282 <crcu16+0xc0>
    80001270:	7e69                	lui	t3,0xffffa
    80001272:	001e0e93          	add	t4,t3,1 # ffffffffffffa001 <__global_pointer$+0xffffffff7fff0619>
    80001276:	01d2cf33          	xor	t5,t0,t4
    8000127a:	030f1f93          	sll	t6,t5,0x30
    8000127e:	030fd293          	srl	t0,t6,0x30
    80001282:	0058c6b3          	xor	a3,a7,t0
    80001286:	0016f313          	and	t1,a3,1
    8000128a:	0067d393          	srl	t2,a5,0x6
    8000128e:	0012d893          	srl	a7,t0,0x1
    80001292:	00030b63          	beqz	t1,800012a8 <crcu16+0xe6>
    80001296:	75e9                	lui	a1,0xffffa
    80001298:	00158613          	add	a2,a1,1 # ffffffffffffa001 <__global_pointer$+0xffffffff7fff0619>
    8000129c:	00c8c733          	xor	a4,a7,a2
    800012a0:	03071813          	sll	a6,a4,0x30
    800012a4:	03085893          	srl	a7,a6,0x30
    800012a8:	0113ce33          	xor	t3,t2,a7
    800012ac:	001e7e93          	and	t4,t3,1
    800012b0:	0077df13          	srl	t5,a5,0x7
    800012b4:	0018d313          	srl	t1,a7,0x1
    800012b8:	000e8b63          	beqz	t4,800012ce <crcu16+0x10c>
    800012bc:	7fe9                	lui	t6,0xffffa
    800012be:	001f8293          	add	t0,t6,1 # ffffffffffffa001 <__global_pointer$+0xffffffff7fff0619>
    800012c2:	005347b3          	xor	a5,t1,t0
    800012c6:	03079693          	sll	a3,a5,0x30
    800012ca:	0306d313          	srl	t1,a3,0x30
    800012ce:	00137393          	and	t2,t1,1
    800012d2:	00135893          	srl	a7,t1,0x1
    800012d6:	01e38b63          	beq	t2,t5,800012ec <crcu16+0x12a>
    800012da:	75e9                	lui	a1,0xffffa
    800012dc:	00158613          	add	a2,a1,1 # ffffffffffffa001 <__global_pointer$+0xffffffff7fff0619>
    800012e0:	00c8c733          	xor	a4,a7,a2
    800012e4:	03071813          	sll	a6,a4,0x30
    800012e8:	03085893          	srl	a7,a6,0x30
    800012ec:	00855e13          	srl	t3,a0,0x8
    800012f0:	011e4eb3          	xor	t4,t3,a7
    800012f4:	001eff13          	and	t5,t4,1
    800012f8:	8125                	srl	a0,a0,0x9
    800012fa:	0018d313          	srl	t1,a7,0x1
    800012fe:	000f0b63          	beqz	t5,80001314 <crcu16+0x152>
    80001302:	7fe9                	lui	t6,0xffffa
    80001304:	001f8293          	add	t0,t6,1 # ffffffffffffa001 <__global_pointer$+0xffffffff7fff0619>
    80001308:	005347b3          	xor	a5,t1,t0
    8000130c:	03079693          	sll	a3,a5,0x30
    80001310:	0306d313          	srl	t1,a3,0x30
    80001314:	006543b3          	xor	t2,a0,t1
    80001318:	0013f593          	and	a1,t2,1
    8000131c:	002e5813          	srl	a6,t3,0x2
    80001320:	00135f13          	srl	t5,t1,0x1
    80001324:	c991                	beqz	a1,80001338 <crcu16+0x176>
    80001326:	7669                	lui	a2,0xffffa
    80001328:	00160893          	add	a7,a2,1 # ffffffffffffa001 <__global_pointer$+0xffffffff7fff0619>
    8000132c:	011f4733          	xor	a4,t5,a7
    80001330:	03071e93          	sll	t4,a4,0x30
    80001334:	030edf13          	srl	t5,t4,0x30
    80001338:	01e84533          	xor	a0,a6,t5
    8000133c:	00157f93          	and	t6,a0,1
    80001340:	003e5293          	srl	t0,t3,0x3
    80001344:	001f5593          	srl	a1,t5,0x1
    80001348:	000f8b63          	beqz	t6,8000135e <crcu16+0x19c>
    8000134c:	77e9                	lui	a5,0xffffa
    8000134e:	00178693          	add	a3,a5,1 # ffffffffffffa001 <__global_pointer$+0xffffffff7fff0619>
    80001352:	00d5c333          	xor	t1,a1,a3
    80001356:	03031393          	sll	t2,t1,0x30
    8000135a:	0303d593          	srl	a1,t2,0x30
    8000135e:	00b2c833          	xor	a6,t0,a1
    80001362:	00187613          	and	a2,a6,1
    80001366:	004e5893          	srl	a7,t3,0x4
    8000136a:	0015df93          	srl	t6,a1,0x1
    8000136e:	ca11                	beqz	a2,80001382 <crcu16+0x1c0>
    80001370:	7ee9                	lui	t4,0xffffa
    80001372:	001e8f13          	add	t5,t4,1 # ffffffffffffa001 <__global_pointer$+0xffffffff7fff0619>
    80001376:	01efc733          	xor	a4,t6,t5
    8000137a:	03071513          	sll	a0,a4,0x30
    8000137e:	03055f93          	srl	t6,a0,0x30
    80001382:	01f8c2b3          	xor	t0,a7,t6
    80001386:	0012f793          	and	a5,t0,1
    8000138a:	005e5693          	srl	a3,t3,0x5
    8000138e:	001fd893          	srl	a7,t6,0x1
    80001392:	cb91                	beqz	a5,800013a6 <crcu16+0x1e4>
    80001394:	7369                	lui	t1,0xffffa
    80001396:	00130393          	add	t2,t1,1 # ffffffffffffa001 <__global_pointer$+0xffffffff7fff0619>
    8000139a:	0078c5b3          	xor	a1,a7,t2
    8000139e:	03059813          	sll	a6,a1,0x30
    800013a2:	03085893          	srl	a7,a6,0x30
    800013a6:	0116c633          	xor	a2,a3,a7
    800013aa:	00167e93          	and	t4,a2,1
    800013ae:	006e5f13          	srl	t5,t3,0x6
    800013b2:	0018d313          	srl	t1,a7,0x1
    800013b6:	000e8b63          	beqz	t4,800013cc <crcu16+0x20a>
    800013ba:	7569                	lui	a0,0xffffa
    800013bc:	00150f93          	add	t6,a0,1 # ffffffffffffa001 <__global_pointer$+0xffffffff7fff0619>
    800013c0:	01f34733          	xor	a4,t1,t6
    800013c4:	03071293          	sll	t0,a4,0x30
    800013c8:	0302d313          	srl	t1,t0,0x30
    800013cc:	006f47b3          	xor	a5,t5,t1
    800013d0:	0017f693          	and	a3,a5,1
    800013d4:	007e5e13          	srl	t3,t3,0x7
    800013d8:	00135613          	srl	a2,t1,0x1
    800013dc:	ca91                	beqz	a3,800013f0 <crcu16+0x22e>
    800013de:	73e9                	lui	t2,0xffffa
    800013e0:	00138593          	add	a1,t2,1 # ffffffffffffa001 <__global_pointer$+0xffffffff7fff0619>
    800013e4:	00b64833          	xor	a6,a2,a1
    800013e8:	03081893          	sll	a7,a6,0x30
    800013ec:	0308d613          	srl	a2,a7,0x30
    800013f0:	00ce4eb3          	xor	t4,t3,a2
    800013f4:	001eff13          	and	t5,t4,1
    800013f8:	00165513          	srl	a0,a2,0x1
    800013fc:	000f0a63          	beqz	t5,80001410 <crcu16+0x24e>
    80001400:	7fe9                	lui	t6,0xffffa
    80001402:	001f8713          	add	a4,t6,1 # ffffffffffffa001 <__global_pointer$+0xffffffff7fff0619>
    80001406:	8d39                	xor	a0,a0,a4
    80001408:	03051293          	sll	t0,a0,0x30
    8000140c:	0302d513          	srl	a0,t0,0x30
    80001410:	8082                	ret

0000000080001412 <crcu32>:
crcu32():
    80001412:	0ff57793          	zext.b	a5,a0
    80001416:	00b7c733          	xor	a4,a5,a1
    8000141a:	03051693          	sll	a3,a0,0x30
    8000141e:	00177613          	and	a2,a4,1
    80001422:	0306d293          	srl	t0,a3,0x30
    80001426:	0017d313          	srl	t1,a5,0x1
    8000142a:	0015de13          	srl	t3,a1,0x1
    8000142e:	ca11                	beqz	a2,80001442 <crcu32+0x30>
    80001430:	73e9                	lui	t2,0xffffa
    80001432:	00138813          	add	a6,t2,1 # ffffffffffffa001 <__global_pointer$+0xffffffff7fff0619>
    80001436:	010e45b3          	xor	a1,t3,a6
    8000143a:	03059893          	sll	a7,a1,0x30
    8000143e:	0308de13          	srl	t3,a7,0x30
    80001442:	01c34eb3          	xor	t4,t1,t3
    80001446:	001eff13          	and	t5,t4,1
    8000144a:	0027df93          	srl	t6,a5,0x2
    8000144e:	001e5393          	srl	t2,t3,0x1
    80001452:	000f0b63          	beqz	t5,80001468 <crcu32+0x56>
    80001456:	7769                	lui	a4,0xffffa
    80001458:	00170613          	add	a2,a4,1 # ffffffffffffa001 <__global_pointer$+0xffffffff7fff0619>
    8000145c:	00c3c6b3          	xor	a3,t2,a2
    80001460:	03069313          	sll	t1,a3,0x30
    80001464:	03035393          	srl	t2,t1,0x30
    80001468:	007fc833          	xor	a6,t6,t2
    8000146c:	00187593          	and	a1,a6,1
    80001470:	0037d893          	srl	a7,a5,0x3
    80001474:	0013d713          	srl	a4,t2,0x1
    80001478:	c991                	beqz	a1,8000148c <crcu32+0x7a>
    8000147a:	7e69                	lui	t3,0xffffa
    8000147c:	001e0e93          	add	t4,t3,1 # ffffffffffffa001 <__global_pointer$+0xffffffff7fff0619>
    80001480:	01d74f33          	xor	t5,a4,t4
    80001484:	030f1f93          	sll	t6,t5,0x30
    80001488:	030fd713          	srl	a4,t6,0x30
    8000148c:	00e8c633          	xor	a2,a7,a4
    80001490:	00167693          	and	a3,a2,1
    80001494:	0047d313          	srl	t1,a5,0x4
    80001498:	00175e13          	srl	t3,a4,0x1
    8000149c:	ca91                	beqz	a3,800014b0 <crcu32+0x9e>
    8000149e:	73e9                	lui	t2,0xffffa
    800014a0:	00138813          	add	a6,t2,1 # ffffffffffffa001 <__global_pointer$+0xffffffff7fff0619>
    800014a4:	010e45b3          	xor	a1,t3,a6
    800014a8:	03059893          	sll	a7,a1,0x30
    800014ac:	0308de13          	srl	t3,a7,0x30
    800014b0:	01c34eb3          	xor	t4,t1,t3
    800014b4:	001eff13          	and	t5,t4,1
    800014b8:	0057df93          	srl	t6,a5,0x5
    800014bc:	001e5393          	srl	t2,t3,0x1
    800014c0:	000f0b63          	beqz	t5,800014d6 <crcu32+0xc4>
    800014c4:	7669                	lui	a2,0xffffa
    800014c6:	00160693          	add	a3,a2,1 # ffffffffffffa001 <__global_pointer$+0xffffffff7fff0619>
    800014ca:	00d3c733          	xor	a4,t2,a3
    800014ce:	03071313          	sll	t1,a4,0x30
    800014d2:	03035393          	srl	t2,t1,0x30
    800014d6:	007fc833          	xor	a6,t6,t2
    800014da:	00187593          	and	a1,a6,1
    800014de:	0067d893          	srl	a7,a5,0x6
    800014e2:	0013d693          	srl	a3,t2,0x1
    800014e6:	c991                	beqz	a1,800014fa <crcu32+0xe8>
    800014e8:	7e69                	lui	t3,0xffffa
    800014ea:	001e0e93          	add	t4,t3,1 # ffffffffffffa001 <__global_pointer$+0xffffffff7fff0619>
    800014ee:	01d6cf33          	xor	t5,a3,t4
    800014f2:	030f1f93          	sll	t6,t5,0x30
    800014f6:	030fd693          	srl	a3,t6,0x30
    800014fa:	00d8c633          	xor	a2,a7,a3
    800014fe:	00167713          	and	a4,a2,1
    80001502:	0077d313          	srl	t1,a5,0x7
    80001506:	0016d893          	srl	a7,a3,0x1
    8000150a:	cb11                	beqz	a4,8000151e <crcu32+0x10c>
    8000150c:	73e9                	lui	t2,0xffffa
    8000150e:	00138813          	add	a6,t2,1 # ffffffffffffa001 <__global_pointer$+0xffffffff7fff0619>
    80001512:	0108c7b3          	xor	a5,a7,a6
    80001516:	03079593          	sll	a1,a5,0x30
    8000151a:	0305d893          	srl	a7,a1,0x30
    8000151e:	0018fe13          	and	t3,a7,1
    80001522:	0018d713          	srl	a4,a7,0x1
    80001526:	386e1963          	bne	t3,t1,800018b8 <crcu32+0x4a6>
    8000152a:	0082d313          	srl	t1,t0,0x8
    8000152e:	00e34633          	xor	a2,t1,a4
    80001532:	00167393          	and	t2,a2,1
    80001536:	0092d293          	srl	t0,t0,0x9
    8000153a:	00175e13          	srl	t3,a4,0x1
    8000153e:	00038b63          	beqz	t2,80001554 <crcu32+0x142>
    80001542:	7869                	lui	a6,0xffffa
    80001544:	00180793          	add	a5,a6,1 # ffffffffffffa001 <__global_pointer$+0xffffffff7fff0619>
    80001548:	00fe45b3          	xor	a1,t3,a5
    8000154c:	03059893          	sll	a7,a1,0x30
    80001550:	0308de13          	srl	t3,a7,0x30
    80001554:	01c2ceb3          	xor	t4,t0,t3
    80001558:	001eff13          	and	t5,t4,1
    8000155c:	00235f93          	srl	t6,t1,0x2
    80001560:	001e5293          	srl	t0,t3,0x1
    80001564:	000f0b63          	beqz	t5,8000157a <crcu32+0x168>
    80001568:	76e9                	lui	a3,0xffffa
    8000156a:	00168613          	add	a2,a3,1 # ffffffffffffa001 <__global_pointer$+0xffffffff7fff0619>
    8000156e:	00c2c733          	xor	a4,t0,a2
    80001572:	03071393          	sll	t2,a4,0x30
    80001576:	0303d293          	srl	t0,t2,0x30
    8000157a:	005fc833          	xor	a6,t6,t0
    8000157e:	00187793          	and	a5,a6,1
    80001582:	00335593          	srl	a1,t1,0x3
    80001586:	0012df93          	srl	t6,t0,0x1
    8000158a:	cb91                	beqz	a5,8000159e <crcu32+0x18c>
    8000158c:	78e9                	lui	a7,0xffffa
    8000158e:	00188e13          	add	t3,a7,1 # ffffffffffffa001 <__global_pointer$+0xffffffff7fff0619>
    80001592:	01cfceb3          	xor	t4,t6,t3
    80001596:	030e9f13          	sll	t5,t4,0x30
    8000159a:	030f5f93          	srl	t6,t5,0x30
    8000159e:	01f5c6b3          	xor	a3,a1,t6
    800015a2:	0016f613          	and	a2,a3,1
    800015a6:	00435393          	srl	t2,t1,0x4
    800015aa:	001fd593          	srl	a1,t6,0x1
    800015ae:	ca11                	beqz	a2,800015c2 <crcu32+0x1b0>
    800015b0:	72e9                	lui	t0,0xffffa
    800015b2:	00128813          	add	a6,t0,1 # ffffffffffffa001 <__global_pointer$+0xffffffff7fff0619>
    800015b6:	0105c733          	xor	a4,a1,a6
    800015ba:	03071793          	sll	a5,a4,0x30
    800015be:	0307d593          	srl	a1,a5,0x30
    800015c2:	00b3c8b3          	xor	a7,t2,a1
    800015c6:	0018fe13          	and	t3,a7,1
    800015ca:	00535e93          	srl	t4,t1,0x5
    800015ce:	0015d393          	srl	t2,a1,0x1
    800015d2:	000e0b63          	beqz	t3,800015e8 <crcu32+0x1d6>
    800015d6:	7f69                	lui	t5,0xffffa
    800015d8:	001f0f93          	add	t6,t5,1 # ffffffffffffa001 <__global_pointer$+0xffffffff7fff0619>
    800015dc:	01f3c6b3          	xor	a3,t2,t6
    800015e0:	03069613          	sll	a2,a3,0x30
    800015e4:	03065393          	srl	t2,a2,0x30
    800015e8:	007ec2b3          	xor	t0,t4,t2
    800015ec:	0012f813          	and	a6,t0,1
    800015f0:	00635793          	srl	a5,t1,0x6
    800015f4:	0013de93          	srl	t4,t2,0x1
    800015f8:	00080b63          	beqz	a6,8000160e <crcu32+0x1fc>
    800015fc:	75e9                	lui	a1,0xffffa
    800015fe:	00158893          	add	a7,a1,1 # ffffffffffffa001 <__global_pointer$+0xffffffff7fff0619>
    80001602:	011ec733          	xor	a4,t4,a7
    80001606:	03071e13          	sll	t3,a4,0x30
    8000160a:	030e5e93          	srl	t4,t3,0x30
    8000160e:	01d7cf33          	xor	t5,a5,t4
    80001612:	001f7f93          	and	t6,t5,1
    80001616:	00735313          	srl	t1,t1,0x7
    8000161a:	001ed813          	srl	a6,t4,0x1
    8000161e:	000f8b63          	beqz	t6,80001634 <crcu32+0x222>
    80001622:	76e9                	lui	a3,0xffffa
    80001624:	00168613          	add	a2,a3,1 # ffffffffffffa001 <__global_pointer$+0xffffffff7fff0619>
    80001628:	00c843b3          	xor	t2,a6,a2
    8000162c:	03039293          	sll	t0,t2,0x30
    80001630:	0302d813          	srl	a6,t0,0x30
    80001634:	010347b3          	xor	a5,t1,a6
    80001638:	0017f593          	and	a1,a5,1
    8000163c:	00185f13          	srl	t5,a6,0x1
    80001640:	26059263          	bnez	a1,800018a4 <crcu32+0x492>
    80001644:	01055f9b          	srlw	t6,a0,0x10
    80001648:	0ffff313          	zext.b	t1,t6
    8000164c:	01e346b3          	xor	a3,t1,t5
    80001650:	0016f393          	and	t2,a3,1
    80001654:	0105551b          	srlw	a0,a0,0x10
    80001658:	00135613          	srl	a2,t1,0x1
    8000165c:	001f5893          	srl	a7,t5,0x1
    80001660:	00038b63          	beqz	t2,80001676 <crcu32+0x264>
    80001664:	72e9                	lui	t0,0xffffa
    80001666:	00128813          	add	a6,t0,1 # ffffffffffffa001 <__global_pointer$+0xffffffff7fff0619>
    8000166a:	0108c7b3          	xor	a5,a7,a6
    8000166e:	03079593          	sll	a1,a5,0x30
    80001672:	0305d893          	srl	a7,a1,0x30
    80001676:	01164e33          	xor	t3,a2,a7
    8000167a:	001e7e93          	and	t4,t3,1
    8000167e:	00235f13          	srl	t5,t1,0x2
    80001682:	0018d293          	srl	t0,a7,0x1
    80001686:	000e8b63          	beqz	t4,8000169c <crcu32+0x28a>
    8000168a:	7fe9                	lui	t6,0xffffa
    8000168c:	001f8693          	add	a3,t6,1 # ffffffffffffa001 <__global_pointer$+0xffffffff7fff0619>
    80001690:	00d2c733          	xor	a4,t0,a3
    80001694:	03071393          	sll	t2,a4,0x30
    80001698:	0303d293          	srl	t0,t2,0x30
    8000169c:	005f4633          	xor	a2,t5,t0
    800016a0:	00167813          	and	a6,a2,1
    800016a4:	00335793          	srl	a5,t1,0x3
    800016a8:	0012df13          	srl	t5,t0,0x1
    800016ac:	00080b63          	beqz	a6,800016c2 <crcu32+0x2b0>
    800016b0:	75e9                	lui	a1,0xffffa
    800016b2:	00158893          	add	a7,a1,1 # ffffffffffffa001 <__global_pointer$+0xffffffff7fff0619>
    800016b6:	011f4e33          	xor	t3,t5,a7
    800016ba:	030e1e93          	sll	t4,t3,0x30
    800016be:	030edf13          	srl	t5,t4,0x30
    800016c2:	01e7cfb3          	xor	t6,a5,t5
    800016c6:	001ff693          	and	a3,t6,1
    800016ca:	00435393          	srl	t2,t1,0x4
    800016ce:	001f5793          	srl	a5,t5,0x1
    800016d2:	ca91                	beqz	a3,800016e6 <crcu32+0x2d4>
    800016d4:	72e9                	lui	t0,0xffffa
    800016d6:	00128613          	add	a2,t0,1 # ffffffffffffa001 <__global_pointer$+0xffffffff7fff0619>
    800016da:	00c7c733          	xor	a4,a5,a2
    800016de:	03071813          	sll	a6,a4,0x30
    800016e2:	03085793          	srl	a5,a6,0x30
    800016e6:	00f3c5b3          	xor	a1,t2,a5
    800016ea:	0015f893          	and	a7,a1,1
    800016ee:	00535e13          	srl	t3,t1,0x5
    800016f2:	0017d393          	srl	t2,a5,0x1
    800016f6:	00088b63          	beqz	a7,8000170c <crcu32+0x2fa>
    800016fa:	7ee9                	lui	t4,0xffffa
    800016fc:	001e8f13          	add	t5,t4,1 # ffffffffffffa001 <__global_pointer$+0xffffffff7fff0619>
    80001700:	01e3cfb3          	xor	t6,t2,t5
    80001704:	030f9693          	sll	a3,t6,0x30
    80001708:	0306d393          	srl	t2,a3,0x30
    8000170c:	007e42b3          	xor	t0,t3,t2
    80001710:	0012f813          	and	a6,t0,1
    80001714:	00635613          	srl	a2,t1,0x6
    80001718:	0013de13          	srl	t3,t2,0x1
    8000171c:	00080b63          	beqz	a6,80001732 <crcu32+0x320>
    80001720:	77e9                	lui	a5,0xffffa
    80001722:	00178593          	add	a1,a5,1 # ffffffffffffa001 <__global_pointer$+0xffffffff7fff0619>
    80001726:	00be4733          	xor	a4,t3,a1
    8000172a:	03071893          	sll	a7,a4,0x30
    8000172e:	0308de13          	srl	t3,a7,0x30
    80001732:	01c64eb3          	xor	t4,a2,t3
    80001736:	001eff13          	and	t5,t4,1
    8000173a:	00735313          	srl	t1,t1,0x7
    8000173e:	001e5813          	srl	a6,t3,0x1
    80001742:	000f0b63          	beqz	t5,80001758 <crcu32+0x346>
    80001746:	7fe9                	lui	t6,0xffffa
    80001748:	001f8693          	add	a3,t6,1 # ffffffffffffa001 <__global_pointer$+0xffffffff7fff0619>
    8000174c:	00d843b3          	xor	t2,a6,a3
    80001750:	03039293          	sll	t0,t2,0x30
    80001754:	0302d813          	srl	a6,t0,0x30
    80001758:	00187613          	and	a2,a6,1
    8000175c:	00185e13          	srl	t3,a6,0x1
    80001760:	12661863          	bne	a2,t1,80001890 <crcu32+0x47e>
    80001764:	00855e93          	srl	t4,a0,0x8
    80001768:	01cecf33          	xor	t5,t4,t3
    8000176c:	001f7313          	and	t1,t5,1
    80001770:	8125                	srl	a0,a0,0x9
    80001772:	001e5813          	srl	a6,t3,0x1
    80001776:	00030b63          	beqz	t1,8000178c <crcu32+0x37a>
    8000177a:	7fe9                	lui	t6,0xffffa
    8000177c:	001f8693          	add	a3,t6,1 # ffffffffffffa001 <__global_pointer$+0xffffffff7fff0619>
    80001780:	00d843b3          	xor	t2,a6,a3
    80001784:	03039293          	sll	t0,t2,0x30
    80001788:	0302d813          	srl	a6,t0,0x30
    8000178c:	01054633          	xor	a2,a0,a6
    80001790:	00167793          	and	a5,a2,1
    80001794:	002ed593          	srl	a1,t4,0x2
    80001798:	00185313          	srl	t1,a6,0x1
    8000179c:	cb91                	beqz	a5,800017b0 <crcu32+0x39e>
    8000179e:	78e9                	lui	a7,0xffffa
    800017a0:	00188e13          	add	t3,a7,1 # ffffffffffffa001 <__global_pointer$+0xffffffff7fff0619>
    800017a4:	01c34733          	xor	a4,t1,t3
    800017a8:	03071f13          	sll	t5,a4,0x30
    800017ac:	030f5313          	srl	t1,t5,0x30
    800017b0:	0065c533          	xor	a0,a1,t1
    800017b4:	00157f93          	and	t6,a0,1
    800017b8:	003ed693          	srl	a3,t4,0x3
    800017bc:	00135793          	srl	a5,t1,0x1
    800017c0:	000f8b63          	beqz	t6,800017d6 <crcu32+0x3c4>
    800017c4:	73e9                	lui	t2,0xffffa
    800017c6:	00138293          	add	t0,t2,1 # ffffffffffffa001 <__global_pointer$+0xffffffff7fff0619>
    800017ca:	0057c833          	xor	a6,a5,t0
    800017ce:	03081613          	sll	a2,a6,0x30
    800017d2:	03065793          	srl	a5,a2,0x30
    800017d6:	00f6c5b3          	xor	a1,a3,a5
    800017da:	0015f893          	and	a7,a1,1
    800017de:	004ede13          	srl	t3,t4,0x4
    800017e2:	0017df93          	srl	t6,a5,0x1
    800017e6:	00088b63          	beqz	a7,800017fc <crcu32+0x3ea>
    800017ea:	7f69                	lui	t5,0xffffa
    800017ec:	001f0313          	add	t1,t5,1 # ffffffffffffa001 <__global_pointer$+0xffffffff7fff0619>
    800017f0:	006fc733          	xor	a4,t6,t1
    800017f4:	03071513          	sll	a0,a4,0x30
    800017f8:	03055f93          	srl	t6,a0,0x30
    800017fc:	01fe46b3          	xor	a3,t3,t6
    80001800:	0016f393          	and	t2,a3,1
    80001804:	005ed293          	srl	t0,t4,0x5
    80001808:	001fd893          	srl	a7,t6,0x1
    8000180c:	00038b63          	beqz	t2,80001822 <crcu32+0x410>
    80001810:	7869                	lui	a6,0xffffa
    80001812:	00180613          	add	a2,a6,1 # ffffffffffffa001 <__global_pointer$+0xffffffff7fff0619>
    80001816:	00c8c7b3          	xor	a5,a7,a2
    8000181a:	03079593          	sll	a1,a5,0x30
    8000181e:	0305d893          	srl	a7,a1,0x30
    80001822:	0112ce33          	xor	t3,t0,a7
    80001826:	001e7f13          	and	t5,t3,1
    8000182a:	006ed313          	srl	t1,t4,0x6
    8000182e:	0018d393          	srl	t2,a7,0x1
    80001832:	000f0b63          	beqz	t5,80001848 <crcu32+0x436>
    80001836:	7569                	lui	a0,0xffffa
    80001838:	00150f93          	add	t6,a0,1 # ffffffffffffa001 <__global_pointer$+0xffffffff7fff0619>
    8000183c:	01f3c733          	xor	a4,t2,t6
    80001840:	03071693          	sll	a3,a4,0x30
    80001844:	0306d393          	srl	t2,a3,0x30
    80001848:	007342b3          	xor	t0,t1,t2
    8000184c:	0012f813          	and	a6,t0,1
    80001850:	007ede93          	srl	t4,t4,0x7
    80001854:	0013de13          	srl	t3,t2,0x1
    80001858:	00080b63          	beqz	a6,8000186e <crcu32+0x45c>
    8000185c:	7669                	lui	a2,0xffffa
    8000185e:	00160793          	add	a5,a2,1 # ffffffffffffa001 <__global_pointer$+0xffffffff7fff0619>
    80001862:	00fe45b3          	xor	a1,t3,a5
    80001866:	03059893          	sll	a7,a1,0x30
    8000186a:	0308de13          	srl	t3,a7,0x30
    8000186e:	01cecf33          	xor	t5,t4,t3
    80001872:	001f7313          	and	t1,t5,1
    80001876:	001e5513          	srl	a0,t3,0x1
    8000187a:	00030a63          	beqz	t1,8000188e <crcu32+0x47c>
    8000187e:	7fe9                	lui	t6,0xffffa
    80001880:	001f8713          	add	a4,t6,1 # ffffffffffffa001 <__global_pointer$+0xffffffff7fff0619>
    80001884:	8d39                	xor	a0,a0,a4
    80001886:	03051693          	sll	a3,a0,0x30
    8000188a:	0306d513          	srl	a0,a3,0x30
    8000188e:	8082                	ret
    80001890:	77e9                	lui	a5,0xffffa
    80001892:	00178593          	add	a1,a5,1 # ffffffffffffa001 <__global_pointer$+0xffffffff7fff0619>
    80001896:	00be4733          	xor	a4,t3,a1
    8000189a:	03071893          	sll	a7,a4,0x30
    8000189e:	0308de13          	srl	t3,a7,0x30
    800018a2:	b5c9                	j	80001764 <crcu32+0x352>
    800018a4:	78e9                	lui	a7,0xffffa
    800018a6:	00188e13          	add	t3,a7,1 # ffffffffffffa001 <__global_pointer$+0xffffffff7fff0619>
    800018aa:	01cf4733          	xor	a4,t5,t3
    800018ae:	03071e93          	sll	t4,a4,0x30
    800018b2:	030edf13          	srl	t5,t4,0x30
    800018b6:	b379                	j	80001644 <crcu32+0x232>
    800018b8:	7ee9                	lui	t4,0xffffa
    800018ba:	001e8f13          	add	t5,t4,1 # ffffffffffffa001 <__global_pointer$+0xffffffff7fff0619>
    800018be:	01e74fb3          	xor	t6,a4,t5
    800018c2:	030f9693          	sll	a3,t6,0x30
    800018c6:	0306d713          	srl	a4,a3,0x30
    800018ca:	b185                	j	8000152a <crcu32+0x118>

00000000800018cc <crc16>:
crc16():
    800018cc:	0ff57793          	zext.b	a5,a0
    800018d0:	00b7c733          	xor	a4,a5,a1
    800018d4:	1542                	sll	a0,a0,0x30
    800018d6:	00177693          	and	a3,a4,1
    800018da:	03055293          	srl	t0,a0,0x30
    800018de:	0017d313          	srl	t1,a5,0x1
    800018e2:	0015d893          	srl	a7,a1,0x1
    800018e6:	ca91                	beqz	a3,800018fa <crc16+0x2e>
    800018e8:	73e9                	lui	t2,0xffffa
    800018ea:	00138613          	add	a2,t2,1 # ffffffffffffa001 <__global_pointer$+0xffffffff7fff0619>
    800018ee:	00c8c5b3          	xor	a1,a7,a2
    800018f2:	03059813          	sll	a6,a1,0x30
    800018f6:	03085893          	srl	a7,a6,0x30
    800018fa:	01134e33          	xor	t3,t1,a7
    800018fe:	001e7e93          	and	t4,t3,1
    80001902:	0027df13          	srl	t5,a5,0x2
    80001906:	0018d313          	srl	t1,a7,0x1
    8000190a:	000e8b63          	beqz	t4,80001920 <crc16+0x54>
    8000190e:	7fe9                	lui	t6,0xffffa
    80001910:	001f8713          	add	a4,t6,1 # ffffffffffffa001 <__global_pointer$+0xffffffff7fff0619>
    80001914:	00e346b3          	xor	a3,t1,a4
    80001918:	03069513          	sll	a0,a3,0x30
    8000191c:	03055313          	srl	t1,a0,0x30
    80001920:	006f43b3          	xor	t2,t5,t1
    80001924:	0013f613          	and	a2,t2,1
    80001928:	0037d593          	srl	a1,a5,0x3
    8000192c:	00135f13          	srl	t5,t1,0x1
    80001930:	ca11                	beqz	a2,80001944 <crc16+0x78>
    80001932:	7869                	lui	a6,0xffffa
    80001934:	00180893          	add	a7,a6,1 # ffffffffffffa001 <__global_pointer$+0xffffffff7fff0619>
    80001938:	011f4e33          	xor	t3,t5,a7
    8000193c:	030e1e93          	sll	t4,t3,0x30
    80001940:	030edf13          	srl	t5,t4,0x30
    80001944:	01e5cfb3          	xor	t6,a1,t5
    80001948:	001ff513          	and	a0,t6,1
    8000194c:	0047d693          	srl	a3,a5,0x4
    80001950:	001f5593          	srl	a1,t5,0x1
    80001954:	c911                	beqz	a0,80001968 <crc16+0x9c>
    80001956:	7369                	lui	t1,0xffffa
    80001958:	00130393          	add	t2,t1,1 # ffffffffffffa001 <__global_pointer$+0xffffffff7fff0619>
    8000195c:	0075c733          	xor	a4,a1,t2
    80001960:	03071613          	sll	a2,a4,0x30
    80001964:	03065593          	srl	a1,a2,0x30
    80001968:	00b6c833          	xor	a6,a3,a1
    8000196c:	00187893          	and	a7,a6,1
    80001970:	0057de13          	srl	t3,a5,0x5
    80001974:	0015d313          	srl	t1,a1,0x1
    80001978:	00088b63          	beqz	a7,8000198e <crc16+0xc2>
    8000197c:	7ee9                	lui	t4,0xffffa
    8000197e:	001e8f13          	add	t5,t4,1 # ffffffffffffa001 <__global_pointer$+0xffffffff7fff0619>
    80001982:	01e34fb3          	xor	t6,t1,t5
    80001986:	030f9513          	sll	a0,t6,0x30
    8000198a:	03055313          	srl	t1,a0,0x30
    8000198e:	006e46b3          	xor	a3,t3,t1
    80001992:	0016f393          	and	t2,a3,1
    80001996:	0067d593          	srl	a1,a5,0x6
    8000199a:	00135e13          	srl	t3,t1,0x1
    8000199e:	00038b63          	beqz	t2,800019b4 <crc16+0xe8>
    800019a2:	7669                	lui	a2,0xffffa
    800019a4:	00160813          	add	a6,a2,1 # ffffffffffffa001 <__global_pointer$+0xffffffff7fff0619>
    800019a8:	010e4733          	xor	a4,t3,a6
    800019ac:	03071893          	sll	a7,a4,0x30
    800019b0:	0308de13          	srl	t3,a7,0x30
    800019b4:	01c5ceb3          	xor	t4,a1,t3
    800019b8:	001eff13          	and	t5,t4,1
    800019bc:	0077df93          	srl	t6,a5,0x7
    800019c0:	001e5393          	srl	t2,t3,0x1
    800019c4:	000f0b63          	beqz	t5,800019da <crc16+0x10e>
    800019c8:	7569                	lui	a0,0xffffa
    800019ca:	00150313          	add	t1,a0,1 # ffffffffffffa001 <__global_pointer$+0xffffffff7fff0619>
    800019ce:	0063c7b3          	xor	a5,t2,t1
    800019d2:	03079693          	sll	a3,a5,0x30
    800019d6:	0306d393          	srl	t2,a3,0x30
    800019da:	0013f593          	and	a1,t2,1
    800019de:	0013de13          	srl	t3,t2,0x1
    800019e2:	13f59663          	bne	a1,t6,80001b0e <crc16+0x242>
    800019e6:	0082de93          	srl	t4,t0,0x8
    800019ea:	01cecf33          	xor	t5,t4,t3
    800019ee:	001f7f93          	and	t6,t5,1
    800019f2:	0092d293          	srl	t0,t0,0x9
    800019f6:	001e5393          	srl	t2,t3,0x1
    800019fa:	000f8b63          	beqz	t6,80001a10 <crc16+0x144>
    800019fe:	7569                	lui	a0,0xffffa
    80001a00:	00150313          	add	t1,a0,1 # ffffffffffffa001 <__global_pointer$+0xffffffff7fff0619>
    80001a04:	0063c7b3          	xor	a5,t2,t1
    80001a08:	03079693          	sll	a3,a5,0x30
    80001a0c:	0306d393          	srl	t2,a3,0x30
    80001a10:	0072c5b3          	xor	a1,t0,t2
    80001a14:	0015f613          	and	a2,a1,1
    80001a18:	002ed813          	srl	a6,t4,0x2
    80001a1c:	0013df93          	srl	t6,t2,0x1
    80001a20:	ca11                	beqz	a2,80001a34 <crc16+0x168>
    80001a22:	78e9                	lui	a7,0xffffa
    80001a24:	00188e13          	add	t3,a7,1 # ffffffffffffa001 <__global_pointer$+0xffffffff7fff0619>
    80001a28:	01cfc733          	xor	a4,t6,t3
    80001a2c:	03071f13          	sll	t5,a4,0x30
    80001a30:	030f5f93          	srl	t6,t5,0x30
    80001a34:	01f842b3          	xor	t0,a6,t6
    80001a38:	0012f513          	and	a0,t0,1
    80001a3c:	003ed313          	srl	t1,t4,0x3
    80001a40:	001fd813          	srl	a6,t6,0x1
    80001a44:	c911                	beqz	a0,80001a58 <crc16+0x18c>
    80001a46:	77e9                	lui	a5,0xffffa
    80001a48:	00178693          	add	a3,a5,1 # ffffffffffffa001 <__global_pointer$+0xffffffff7fff0619>
    80001a4c:	00d843b3          	xor	t2,a6,a3
    80001a50:	03039593          	sll	a1,t2,0x30
    80001a54:	0305d813          	srl	a6,a1,0x30
    80001a58:	01034633          	xor	a2,t1,a6
    80001a5c:	00167893          	and	a7,a2,1
    80001a60:	004ede13          	srl	t3,t4,0x4
    80001a64:	00185513          	srl	a0,a6,0x1
    80001a68:	00088b63          	beqz	a7,80001a7e <crc16+0x1b2>
    80001a6c:	7f69                	lui	t5,0xffffa
    80001a6e:	001f0f93          	add	t6,t5,1 # ffffffffffffa001 <__global_pointer$+0xffffffff7fff0619>
    80001a72:	01f54733          	xor	a4,a0,t6
    80001a76:	03071293          	sll	t0,a4,0x30
    80001a7a:	0302d513          	srl	a0,t0,0x30
    80001a7e:	00ae4333          	xor	t1,t3,a0
    80001a82:	00137793          	and	a5,t1,1
    80001a86:	005ed693          	srl	a3,t4,0x5
    80001a8a:	00155893          	srl	a7,a0,0x1
    80001a8e:	cb91                	beqz	a5,80001aa2 <crc16+0x1d6>
    80001a90:	73e9                	lui	t2,0xffffa
    80001a92:	00138593          	add	a1,t2,1 # ffffffffffffa001 <__global_pointer$+0xffffffff7fff0619>
    80001a96:	00b8c833          	xor	a6,a7,a1
    80001a9a:	03081613          	sll	a2,a6,0x30
    80001a9e:	03065893          	srl	a7,a2,0x30
    80001aa2:	0116ce33          	xor	t3,a3,a7
    80001aa6:	001e7f13          	and	t5,t3,1
    80001aaa:	006edf93          	srl	t6,t4,0x6
    80001aae:	0018d393          	srl	t2,a7,0x1
    80001ab2:	000f0b63          	beqz	t5,80001ac8 <crc16+0x1fc>
    80001ab6:	72e9                	lui	t0,0xffffa
    80001ab8:	00128513          	add	a0,t0,1 # ffffffffffffa001 <__global_pointer$+0xffffffff7fff0619>
    80001abc:	00a3c733          	xor	a4,t2,a0
    80001ac0:	03071313          	sll	t1,a4,0x30
    80001ac4:	03035393          	srl	t2,t1,0x30
    80001ac8:	007fc7b3          	xor	a5,t6,t2
    80001acc:	0017f693          	and	a3,a5,1
    80001ad0:	007ede93          	srl	t4,t4,0x7
    80001ad4:	0013de13          	srl	t3,t2,0x1
    80001ad8:	ca91                	beqz	a3,80001aec <crc16+0x220>
    80001ada:	75e9                	lui	a1,0xffffa
    80001adc:	00158813          	add	a6,a1,1 # ffffffffffffa001 <__global_pointer$+0xffffffff7fff0619>
    80001ae0:	010e4633          	xor	a2,t3,a6
    80001ae4:	03061893          	sll	a7,a2,0x30
    80001ae8:	0308de13          	srl	t3,a7,0x30
    80001aec:	01cecf33          	xor	t5,t4,t3
    80001af0:	001f7f93          	and	t6,t5,1
    80001af4:	001e5513          	srl	a0,t3,0x1
    80001af8:	000f8a63          	beqz	t6,80001b0c <crc16+0x240>
    80001afc:	72e9                	lui	t0,0xffffa
    80001afe:	00128713          	add	a4,t0,1 # ffffffffffffa001 <__global_pointer$+0xffffffff7fff0619>
    80001b02:	8d39                	xor	a0,a0,a4
    80001b04:	03051313          	sll	t1,a0,0x30
    80001b08:	03035513          	srl	a0,t1,0x30
    80001b0c:	8082                	ret
    80001b0e:	7669                	lui	a2,0xffffa
    80001b10:	00160813          	add	a6,a2,1 # ffffffffffffa001 <__global_pointer$+0xffffffff7fff0619>
    80001b14:	010e4733          	xor	a4,t3,a6
    80001b18:	03071893          	sll	a7,a4,0x30
    80001b1c:	0308de13          	srl	t3,a7,0x30
    80001b20:	b5d9                	j	800019e6 <crc16+0x11a>

0000000080001b22 <check_data_types>:
check_data_types():
    80001b22:	4501                	li	a0,0
    80001b24:	8082                	ret

0000000080001b26 <core_bench_state>:
core_bench_state():
    80001b26:	7119                	add	sp,sp,-128
    80001b28:	fc86                	sd	ra,120(sp)
    80001b2a:	f0ca                	sd	s2,96(sp)
    80001b2c:	e8d2                	sd	s4,80(sp)
    80001b2e:	e4d6                	sd	s5,72(sp)
    80001b30:	f8a2                	sd	s0,112(sp)
    80001b32:	f4a6                	sd	s1,104(sp)
    80001b34:	ecce                	sd	s3,88(sp)
    80001b36:	0005c803          	lbu	a6,0(a1)
    80001b3a:	e002                	sd	zero,0(sp)
    80001b3c:	f402                	sd	zero,40(sp)
    80001b3e:	e402                	sd	zero,8(sp)
    80001b40:	e802                	sd	zero,16(sp)
    80001b42:	fc02                	sd	zero,56(sp)
    80001b44:	ec02                	sd	zero,24(sp)
    80001b46:	80ae                	mv	ra,a1
    80001b48:	8aaa                	mv	s5,a0
    80001b4a:	8932                	mv	s2,a2
    80001b4c:	8536                	mv	a0,a3
    80001b4e:	8a3a                	mv	s4,a4
    80001b50:	85be                	mv	a1,a5
    80001b52:	7c080863          	beqz	a6,80002322 <core_bench_state+0x7fc>
    80001b56:	88c2                	mv	a7,a6
    80001b58:	8306                	mv	t1,ra
    80001b5a:	4f81                	li	t6,0
    80001b5c:	4381                	li	t2,0
    80001b5e:	4781                	li	a5,0
    80001b60:	4481                	li	s1,0
    80001b62:	4f01                	li	t5,0
    80001b64:	02c00713          	li	a4,44
    80001b68:	03000293          	li	t0,48
    80001b6c:	04500993          	li	s3,69
    80001b70:	02e00613          	li	a2,46
    80001b74:	a815                	j	80001ba8 <core_bench_state+0x82>
    80001b76:	fd58869b          	addw	a3,a7,-43
    80001b7a:	0fd6f413          	and	s0,a3,253
    80001b7e:	c02d                	beqz	s0,80001be0 <core_bench_state+0xba>
    80001b80:	18c88463          	beq	a7,a2,80001d08 <core_bench_state+0x1e2>
    80001b84:	2485                	addw	s1,s1,1
    80001b86:	0305                	add	t1,t1,1
    80001b88:	88f2                	mv	a7,t3
    80001b8a:	4685                	li	a3,1
    80001b8c:	00269e93          	sll	t4,a3,0x2
    80001b90:	040e8413          	add	s0,t4,64
    80001b94:	00240e33          	add	t3,s0,sp
    80001b98:	fc0e2683          	lw	a3,-64(t3)
    80001b9c:	00168e9b          	addw	t4,a3,1
    80001ba0:	fdde2023          	sw	t4,-64(t3)
    80001ba4:	1a088663          	beqz	a7,80001d50 <core_bench_state+0x22a>
    80001ba8:	00134e03          	lbu	t3,1(t1)
    80001bac:	6ee88563          	beq	a7,a4,80002296 <core_bench_state+0x770>
    80001bb0:	0f08fe93          	and	t4,a7,240
    80001bb4:	2f85                	addw	t6,t6,1
    80001bb6:	fc5e90e3          	bne	t4,t0,80001b76 <core_bench_state+0x50>
    80001bba:	00130413          	add	s0,t1,1
    80001bbe:	720e0863          	beqz	t3,800022ee <core_bench_state+0x7c8>
    80001bc2:	00234883          	lbu	a7,2(t1)
    80001bc6:	12ee0d63          	beq	t3,a4,80001d00 <core_bench_state+0x1da>
    80001bca:	0f0e7313          	and	t1,t3,240
    80001bce:	02ce0863          	beq	t3,a2,80001bfe <core_bench_state+0xd8>
    80001bd2:	0e530263          	beq	t1,t0,80001cb6 <core_bench_state+0x190>
    80001bd6:	2785                	addw	a5,a5,1
    80001bd8:	00140313          	add	t1,s0,1
    80001bdc:	4685                	li	a3,1
    80001bde:	b77d                	j	80001b8c <core_bench_state+0x66>
    80001be0:	58a2                	lw	a7,40(sp)
    80001be2:	0f0e7e93          	and	t4,t3,240
    80001be6:	0018869b          	addw	a3,a7,1
    80001bea:	d436                	sw	a3,40(sp)
    80001bec:	105e8063          	beq	t4,t0,80001cec <core_bench_state+0x1c6>
    80001bf0:	00234883          	lbu	a7,2(t1)
    80001bf4:	12ce0463          	beq	t3,a2,80001d1c <core_bench_state+0x1f6>
    80001bf8:	4685                	li	a3,1
    80001bfa:	0309                	add	t1,t1,2
    80001bfc:	bf41                	j	80001b8c <core_bench_state+0x66>
    80001bfe:	2785                	addw	a5,a5,1
    80001c00:	00140e93          	add	t4,s0,1
    80001c04:	12088963          	beqz	a7,80001d36 <core_bench_state+0x210>
    80001c08:	00244403          	lbu	s0,2(s0)
    80001c0c:	12e88063          	beq	a7,a4,80001d2c <core_bench_state+0x206>
    80001c10:	0df8f313          	and	t1,a7,223
    80001c14:	0f08f893          	and	a7,a7,240
    80001c18:	01330a63          	beq	t1,s3,80001c2c <core_bench_state+0x106>
    80001c1c:	0a588b63          	beq	a7,t0,80001cd2 <core_bench_state+0x1ac>
    80001c20:	2385                	addw	t2,t2,1
    80001c22:	001e8313          	add	t1,t4,1
    80001c26:	88a2                	mv	a7,s0
    80001c28:	4685                	li	a3,1
    80001c2a:	b78d                	j	80001b8c <core_bench_state+0x66>
    80001c2c:	5e32                	lw	t3,44(sp)
    80001c2e:	fd54041b          	addw	s0,s0,-43
    80001c32:	0fd47313          	and	t1,s0,253
    80001c36:	001e089b          	addw	a7,t3,1
    80001c3a:	d646                	sw	a7,44(sp)
    80001c3c:	002ec683          	lbu	a3,2(t4)
    80001c40:	2385                	addw	t2,t2,1
    80001c42:	00030763          	beqz	t1,80001c50 <core_bench_state+0x12a>
    80001c46:	88b6                	mv	a7,a3
    80001c48:	002e8313          	add	t1,t4,2
    80001c4c:	4685                	li	a3,1
    80001c4e:	bf3d                	j	80001b8c <core_bench_state+0x66>
    80001c50:	6c068063          	beqz	a3,80002310 <core_bench_state+0x7ea>
    80001c54:	003ec883          	lbu	a7,3(t4)
    80001c58:	6ae68e63          	beq	a3,a4,80002314 <core_bench_state+0x7ee>
    80001c5c:	0f06fe13          	and	t3,a3,240
    80001c60:	2f05                	addw	t5,t5,1
    80001c62:	005e0663          	beq	t3,t0,80001c6e <core_bench_state+0x148>
    80001c66:	003e8313          	add	t1,t4,3
    80001c6a:	4685                	li	a3,1
    80001c6c:	b705                	j	80001b8c <core_bench_state+0x66>
    80001c6e:	003e8313          	add	t1,t4,3
    80001c72:	62088663          	beqz	a7,8000229e <core_bench_state+0x778>
    80001c76:	004ece83          	lbu	t4,4(t4)
    80001c7a:	68e88263          	beq	a7,a4,800022fe <core_bench_state+0x7d8>
    80001c7e:	8e46                	mv	t3,a7
    80001c80:	88f6                	mv	a7,t4
    80001c82:	0f0e7413          	and	s0,t3,240
    80001c86:	00540663          	beq	s0,t0,80001c92 <core_bench_state+0x16c>
    80001c8a:	2485                	addw	s1,s1,1
    80001c8c:	0305                	add	t1,t1,1
    80001c8e:	4685                	li	a3,1
    80001c90:	bdf5                	j	80001b8c <core_bench_state+0x66>
    80001c92:	00130693          	add	a3,t1,1
    80001c96:	60088463          	beqz	a7,8000229e <core_bench_state+0x778>
    80001c9a:	00234403          	lbu	s0,2(t1)
    80001c9e:	8e46                	mv	t3,a7
    80001ca0:	2381                	sext.w	t2,t2
    80001ca2:	2781                	sext.w	a5,a5
    80001ca4:	2f01                	sext.w	t5,t5
    80001ca6:	2f81                	sext.w	t6,t6
    80001ca8:	8336                	mv	t1,a3
    80001caa:	88a2                	mv	a7,s0
    80001cac:	fcee1be3          	bne	t3,a4,80001c82 <core_bench_state+0x15c>
    80001cb0:	469d                	li	a3,7
    80001cb2:	0305                	add	t1,t1,1
    80001cb4:	bde1                	j	80001b8c <core_bench_state+0x66>
    80001cb6:	0405                	add	s0,s0,1
    80001cb8:	62088b63          	beqz	a7,800022ee <core_bench_state+0x7c8>
    80001cbc:	00144e83          	lbu	t4,1(s0)
    80001cc0:	8e46                	mv	t3,a7
    80001cc2:	2381                	sext.w	t2,t2
    80001cc4:	2781                	sext.w	a5,a5
    80001cc6:	2f01                	sext.w	t5,t5
    80001cc8:	2f81                	sext.w	t6,t6
    80001cca:	66e88763          	beq	a7,a4,80002338 <core_bench_state+0x812>
    80001cce:	88f6                	mv	a7,t4
    80001cd0:	bded                	j	80001bca <core_bench_state+0xa4>
    80001cd2:	0e85                	add	t4,t4,1
    80001cd4:	c02d                	beqz	s0,80001d36 <core_bench_state+0x210>
    80001cd6:	001ec683          	lbu	a3,1(t4)
    80001cda:	88a2                	mv	a7,s0
    80001cdc:	2381                	sext.w	t2,t2
    80001cde:	2781                	sext.w	a5,a5
    80001ce0:	2f01                	sext.w	t5,t5
    80001ce2:	2f81                	sext.w	t6,t6
    80001ce4:	66e40763          	beq	s0,a4,80002352 <core_bench_state+0x82c>
    80001ce8:	8436                	mv	s0,a3
    80001cea:	b71d                	j	80001c10 <core_bench_state+0xea>
    80001cec:	00234e03          	lbu	t3,2(t1)
    80001cf0:	00230413          	add	s0,t1,2
    80001cf4:	5e0e0d63          	beqz	t3,800022ee <core_bench_state+0x7c8>
    80001cf8:	00334883          	lbu	a7,3(t1)
    80001cfc:	ecee17e3          	bne	t3,a4,80001bca <core_bench_state+0xa4>
    80001d00:	8322                	mv	t1,s0
    80001d02:	4691                	li	a3,4
    80001d04:	0305                	add	t1,t1,1
    80001d06:	b559                	j	80001b8c <core_bench_state+0x66>
    80001d08:	00130e93          	add	t4,t1,1
    80001d0c:	020e0563          	beqz	t3,80001d36 <core_bench_state+0x210>
    80001d10:	00234403          	lbu	s0,2(t1)
    80001d14:	00ee0c63          	beq	t3,a4,80001d2c <core_bench_state+0x206>
    80001d18:	88f2                	mv	a7,t3
    80001d1a:	bddd                	j	80001c10 <core_bench_state+0xea>
    80001d1c:	00230e93          	add	t4,t1,2
    80001d20:	00088b63          	beqz	a7,80001d36 <core_bench_state+0x210>
    80001d24:	00334403          	lbu	s0,3(t1)
    80001d28:	eee894e3          	bne	a7,a4,80001c10 <core_bench_state+0xea>
    80001d2c:	8376                	mv	t1,t4
    80001d2e:	88a2                	mv	a7,s0
    80001d30:	4695                	li	a3,5
    80001d32:	0305                	add	t1,t1,1
    80001d34:	bda1                	j	80001b8c <core_bench_state+0x66>
    80001d36:	4315                	li	t1,5
    80001d38:	00231893          	sll	a7,t1,0x2
    80001d3c:	04088e13          	add	t3,a7,64
    80001d40:	002e0eb3          	add	t4,t3,sp
    80001d44:	fc0ea283          	lw	t0,-64(t4)
    80001d48:	0012861b          	addw	a2,t0,1
    80001d4c:	fccea023          	sw	a2,-64(t4)
    80001d50:	577d                	li	a4,-1
    80001d52:	02075993          	srl	s3,a4,0x20
    80001d56:	02039293          	sll	t0,t2,0x20
    80001d5a:	0137f633          	and	a2,a5,s3
    80001d5e:	013ff3b3          	and	t2,t6,s3
    80001d62:	1482                	sll	s1,s1,0x20
    80001d64:	1a82                	sll	s5,s5,0x20
    80001d66:	00566fb3          	or	t6,a2,t0
    80001d6a:	0093e333          	or	t1,t2,s1
    80001d6e:	020ad793          	srl	a5,s5,0x20
    80001d72:	dc7a                	sw	t5,56(sp)
    80001d74:	f87e                	sd	t6,48(sp)
    80001d76:	f01a                	sd	t1,32(sp)
    80001d78:	9786                	add	a5,a5,ra
    80001d7a:	16f0f863          	bgeu	ra,a5,80001eea <core_bench_state+0x3c4>
    80001d7e:	4805                	li	a6,1
    80001d80:	530a1563          	bne	s4,a6,800022aa <core_bench_state+0x784>
    80001d84:	0000c683          	lbu	a3,0(ra)
    80001d88:	fff0ce93          	not	t4,ra
    80001d8c:	01d78733          	add	a4,a5,t4
    80001d90:	02c00993          	li	s3,44
    80001d94:	00777293          	and	t0,a4,7
    80001d98:	01368663          	beq	a3,s3,80001da4 <core_bench_state+0x27e>
    80001d9c:	0126c633          	xor	a2,a3,s2
    80001da0:	00c08023          	sb	a2,0(ra)
    80001da4:	00108813          	add	a6,ra,1
    80001da8:	12f87d63          	bgeu	a6,a5,80001ee2 <core_bench_state+0x3bc>
    80001dac:	0a028563          	beqz	t0,80001e56 <core_bench_state+0x330>
    80001db0:	4485                	li	s1,1
    80001db2:	08928763          	beq	t0,s1,80001e40 <core_bench_state+0x31a>
    80001db6:	4389                	li	t2,2
    80001db8:	06728b63          	beq	t0,t2,80001e2e <core_bench_state+0x308>
    80001dbc:	4f8d                	li	t6,3
    80001dbe:	05f28f63          	beq	t0,t6,80001e1c <core_bench_state+0x2f6>
    80001dc2:	4311                	li	t1,4
    80001dc4:	04628363          	beq	t0,t1,80001e0a <core_bench_state+0x2e4>
    80001dc8:	4a95                	li	s5,5
    80001dca:	03528763          	beq	t0,s5,80001df8 <core_bench_state+0x2d2>
    80001dce:	4f19                	li	t5,6
    80001dd0:	01e28b63          	beq	t0,t5,80001de6 <core_bench_state+0x2c0>
    80001dd4:	00084883          	lbu	a7,0(a6)
    80001dd8:	01388663          	beq	a7,s3,80001de4 <core_bench_state+0x2be>
    80001ddc:	0128c433          	xor	s0,a7,s2
    80001de0:	00880023          	sb	s0,0(a6)
    80001de4:	0805                	add	a6,a6,1
    80001de6:	00084e03          	lbu	t3,0(a6)
    80001dea:	013e0663          	beq	t3,s3,80001df6 <core_bench_state+0x2d0>
    80001dee:	012e46b3          	xor	a3,t3,s2
    80001df2:	00d80023          	sb	a3,0(a6)
    80001df6:	0805                	add	a6,a6,1
    80001df8:	00084e83          	lbu	t4,0(a6)
    80001dfc:	013e8663          	beq	t4,s3,80001e08 <core_bench_state+0x2e2>
    80001e00:	012ec733          	xor	a4,t4,s2
    80001e04:	00e80023          	sb	a4,0(a6)
    80001e08:	0805                	add	a6,a6,1
    80001e0a:	00084283          	lbu	t0,0(a6)
    80001e0e:	01328663          	beq	t0,s3,80001e1a <core_bench_state+0x2f4>
    80001e12:	0122c633          	xor	a2,t0,s2
    80001e16:	00c80023          	sb	a2,0(a6)
    80001e1a:	0805                	add	a6,a6,1
    80001e1c:	00084483          	lbu	s1,0(a6)
    80001e20:	01348663          	beq	s1,s3,80001e2c <core_bench_state+0x306>
    80001e24:	0124c3b3          	xor	t2,s1,s2
    80001e28:	00780023          	sb	t2,0(a6)
    80001e2c:	0805                	add	a6,a6,1
    80001e2e:	00084f83          	lbu	t6,0(a6)
    80001e32:	013f8663          	beq	t6,s3,80001e3e <core_bench_state+0x318>
    80001e36:	012fc333          	xor	t1,t6,s2
    80001e3a:	00680023          	sb	t1,0(a6)
    80001e3e:	0805                	add	a6,a6,1
    80001e40:	00084a83          	lbu	s5,0(a6)
    80001e44:	013a8663          	beq	s5,s3,80001e50 <core_bench_state+0x32a>
    80001e48:	012acf33          	xor	t5,s5,s2
    80001e4c:	01e80023          	sb	t5,0(a6)
    80001e50:	0805                	add	a6,a6,1
    80001e52:	08f87863          	bgeu	a6,a5,80001ee2 <core_bench_state+0x3bc>
    80001e56:	00084883          	lbu	a7,0(a6)
    80001e5a:	01388663          	beq	a7,s3,80001e66 <core_bench_state+0x340>
    80001e5e:	0128c433          	xor	s0,a7,s2
    80001e62:	00880023          	sb	s0,0(a6)
    80001e66:	00184e03          	lbu	t3,1(a6)
    80001e6a:	00180693          	add	a3,a6,1
    80001e6e:	013e0663          	beq	t3,s3,80001e7a <core_bench_state+0x354>
    80001e72:	012e4eb3          	xor	t4,t3,s2
    80001e76:	01d800a3          	sb	t4,1(a6)
    80001e7a:	0016c803          	lbu	a6,1(a3)
    80001e7e:	01380663          	beq	a6,s3,80001e8a <core_bench_state+0x364>
    80001e82:	01284733          	xor	a4,a6,s2
    80001e86:	00e680a3          	sb	a4,1(a3)
    80001e8a:	0026c283          	lbu	t0,2(a3)
    80001e8e:	01328663          	beq	t0,s3,80001e9a <core_bench_state+0x374>
    80001e92:	0122c633          	xor	a2,t0,s2
    80001e96:	00c68123          	sb	a2,2(a3)
    80001e9a:	0036c483          	lbu	s1,3(a3)
    80001e9e:	01348663          	beq	s1,s3,80001eaa <core_bench_state+0x384>
    80001ea2:	0124c3b3          	xor	t2,s1,s2
    80001ea6:	007681a3          	sb	t2,3(a3)
    80001eaa:	0046cf83          	lbu	t6,4(a3)
    80001eae:	013f8663          	beq	t6,s3,80001eba <core_bench_state+0x394>
    80001eb2:	012fc333          	xor	t1,t6,s2
    80001eb6:	00668223          	sb	t1,4(a3)
    80001eba:	0056ca83          	lbu	s5,5(a3)
    80001ebe:	013a8663          	beq	s5,s3,80001eca <core_bench_state+0x3a4>
    80001ec2:	012acf33          	xor	t5,s5,s2
    80001ec6:	01e682a3          	sb	t5,5(a3)
    80001eca:	0066c883          	lbu	a7,6(a3)
    80001ece:	01388663          	beq	a7,s3,80001eda <core_bench_state+0x3b4>
    80001ed2:	0128c433          	xor	s0,a7,s2
    80001ed6:	00868323          	sb	s0,6(a3)
    80001eda:	00768813          	add	a6,a3,7
    80001ede:	f6f86ce3          	bltu	a6,a5,80001e56 <core_bench_state+0x330>
    80001ee2:	0000c803          	lbu	a6,0(ra)
    80001ee6:	44080e63          	beqz	a6,80002342 <core_bench_state+0x81c>
    80001eea:	5f62                	lw	t5,56(sp)
    80001eec:	5fd2                	lw	t6,52(sp)
    80001eee:	53c2                	lw	t2,48(sp)
    80001ef0:	5402                	lw	s0,32(sp)
    80001ef2:	5492                	lw	s1,36(sp)
    80001ef4:	8606                	mv	a2,ra
    80001ef6:	02c00e93          	li	t4,44
    80001efa:	03000e13          	li	t3,48
    80001efe:	04500913          	li	s2,69
    80001f02:	02e00713          	li	a4,46
    80001f06:	a81d                	j	80001f3c <core_bench_state+0x416>
    80001f08:	fd58029b          	addw	t0,a6,-43
    80001f0c:	0fd2f313          	and	t1,t0,253
    80001f10:	06030263          	beqz	t1,80001f74 <core_bench_state+0x44e>
    80001f14:	16e80d63          	beq	a6,a4,8000208e <core_bench_state+0x568>
    80001f18:	2485                	addw	s1,s1,1
    80001f1a:	0605                	add	a2,a2,1
    80001f1c:	884e                	mv	a6,s3
    80001f1e:	4685                	li	a3,1
    80001f20:	00269a93          	sll	s5,a3,0x2
    80001f24:	040a8993          	add	s3,s5,64
    80001f28:	002988b3          	add	a7,s3,sp
    80001f2c:	fc08a303          	lw	t1,-64(a7)
    80001f30:	0013029b          	addw	t0,t1,1
    80001f34:	fc58a023          	sw	t0,-64(a7)
    80001f38:	18080f63          	beqz	a6,800020d6 <core_bench_state+0x5b0>
    80001f3c:	00164983          	lbu	s3,1(a2)
    80001f40:	37d80163          	beq	a6,t4,800022a2 <core_bench_state+0x77c>
    80001f44:	0f087693          	and	a3,a6,240
    80001f48:	2405                	addw	s0,s0,1
    80001f4a:	fbc69fe3          	bne	a3,t3,80001f08 <core_bench_state+0x3e2>
    80001f4e:	00160293          	add	t0,a2,1
    80001f52:	16098563          	beqz	s3,800020bc <core_bench_state+0x596>
    80001f56:	00264803          	lbu	a6,2(a2)
    80001f5a:	0fd98f63          	beq	s3,t4,80002058 <core_bench_state+0x532>
    80001f5e:	0f09f613          	and	a2,s3,240
    80001f62:	02e98863          	beq	s3,a4,80001f92 <core_bench_state+0x46c>
    80001f66:	0dc60d63          	beq	a2,t3,80002040 <core_bench_state+0x51a>
    80001f6a:	2385                	addw	t2,t2,1
    80001f6c:	00128613          	add	a2,t0,1
    80001f70:	4685                	li	a3,1
    80001f72:	b77d                	j	80001f20 <core_bench_state+0x3fa>
    80001f74:	5aa2                	lw	s5,40(sp)
    80001f76:	0f09f893          	and	a7,s3,240
    80001f7a:	001a881b          	addw	a6,s5,1
    80001f7e:	d442                	sw	a6,40(sp)
    80001f80:	0fc88c63          	beq	a7,t3,80002078 <core_bench_state+0x552>
    80001f84:	00264803          	lbu	a6,2(a2)
    80001f88:	10e98d63          	beq	s3,a4,800020a2 <core_bench_state+0x57c>
    80001f8c:	4685                	li	a3,1
    80001f8e:	0609                	add	a2,a2,2
    80001f90:	bf41                	j	80001f20 <core_bench_state+0x3fa>
    80001f92:	2385                	addw	t2,t2,1
    80001f94:	00128313          	add	t1,t0,1
    80001f98:	2e080d63          	beqz	a6,80002292 <core_bench_state+0x76c>
    80001f9c:	0022ca83          	lbu	s5,2(t0)
    80001fa0:	11d80963          	beq	a6,t4,800020b2 <core_bench_state+0x58c>
    80001fa4:	0df87993          	and	s3,a6,223
    80001fa8:	0f087893          	and	a7,a6,240
    80001fac:	01298a63          	beq	s3,s2,80001fc0 <core_bench_state+0x49a>
    80001fb0:	0bc88863          	beq	a7,t3,80002060 <core_bench_state+0x53a>
    80001fb4:	2f85                	addw	t6,t6,1
    80001fb6:	00130613          	add	a2,t1,1
    80001fba:	8856                	mv	a6,s5
    80001fbc:	4685                	li	a3,1
    80001fbe:	b78d                	j	80001f20 <core_bench_state+0x3fa>
    80001fc0:	5832                	lw	a6,44(sp)
    80001fc2:	fd5a861b          	addw	a2,s5,-43
    80001fc6:	0fd67693          	and	a3,a2,253
    80001fca:	00180a9b          	addw	s5,a6,1
    80001fce:	d656                	sw	s5,44(sp)
    80001fd0:	00234983          	lbu	s3,2(t1)
    80001fd4:	2f85                	addw	t6,t6,1
    80001fd6:	c691                	beqz	a3,80001fe2 <core_bench_state+0x4bc>
    80001fd8:	00230613          	add	a2,t1,2
    80001fdc:	884e                	mv	a6,s3
    80001fde:	4685                	li	a3,1
    80001fe0:	b781                	j	80001f20 <core_bench_state+0x3fa>
    80001fe2:	32098e63          	beqz	s3,8000231e <core_bench_state+0x7f8>
    80001fe6:	00334803          	lbu	a6,3(t1)
    80001fea:	31d98e63          	beq	s3,t4,80002306 <core_bench_state+0x7e0>
    80001fee:	0f09f893          	and	a7,s3,240
    80001ff2:	2f05                	addw	t5,t5,1
    80001ff4:	01c88663          	beq	a7,t3,80002000 <core_bench_state+0x4da>
    80001ff8:	00330613          	add	a2,t1,3
    80001ffc:	4685                	li	a3,1
    80001ffe:	b70d                	j	80001f20 <core_bench_state+0x3fa>
    80002000:	00330613          	add	a2,t1,3
    80002004:	2e080763          	beqz	a6,800022f2 <core_bench_state+0x7cc>
    80002008:	00434303          	lbu	t1,4(t1)
    8000200c:	2fd80563          	beq	a6,t4,800022f6 <core_bench_state+0x7d0>
    80002010:	82c2                	mv	t0,a6
    80002012:	881a                	mv	a6,t1
    80002014:	0f02f293          	and	t0,t0,240
    80002018:	01c28663          	beq	t0,t3,80002024 <core_bench_state+0x4fe>
    8000201c:	2485                	addw	s1,s1,1
    8000201e:	0605                	add	a2,a2,1
    80002020:	4685                	li	a3,1
    80002022:	bdfd                	j	80001f20 <core_bench_state+0x3fa>
    80002024:	00160693          	add	a3,a2,1
    80002028:	2c080563          	beqz	a6,800022f2 <core_bench_state+0x7cc>
    8000202c:	00264303          	lbu	t1,2(a2)
    80002030:	82c2                	mv	t0,a6
    80002032:	8636                	mv	a2,a3
    80002034:	881a                	mv	a6,t1
    80002036:	fdd29fe3          	bne	t0,t4,80002014 <core_bench_state+0x4ee>
    8000203a:	469d                	li	a3,7
    8000203c:	0605                	add	a2,a2,1
    8000203e:	b5cd                	j	80001f20 <core_bench_state+0x3fa>
    80002040:	0285                	add	t0,t0,1
    80002042:	06080d63          	beqz	a6,800020bc <core_bench_state+0x596>
    80002046:	0012c683          	lbu	a3,1(t0)
    8000204a:	89c2                	mv	s3,a6
    8000204c:	2381                	sext.w	t2,t2
    8000204e:	2f01                	sext.w	t5,t5
    80002050:	2f81                	sext.w	t6,t6
    80002052:	8836                	mv	a6,a3
    80002054:	f1d995e3          	bne	s3,t4,80001f5e <core_bench_state+0x438>
    80002058:	8616                	mv	a2,t0
    8000205a:	4691                	li	a3,4
    8000205c:	0605                	add	a2,a2,1
    8000205e:	b5c9                	j	80001f20 <core_bench_state+0x3fa>
    80002060:	0305                	add	t1,t1,1
    80002062:	220a8863          	beqz	s5,80002292 <core_bench_state+0x76c>
    80002066:	00134283          	lbu	t0,1(t1)
    8000206a:	8856                	mv	a6,s5
    8000206c:	2f01                	sext.w	t5,t5
    8000206e:	2f81                	sext.w	t6,t6
    80002070:	2dda8c63          	beq	s5,t4,80002348 <core_bench_state+0x822>
    80002074:	8a96                	mv	s5,t0
    80002076:	b73d                	j	80001fa4 <core_bench_state+0x47e>
    80002078:	00264983          	lbu	s3,2(a2)
    8000207c:	00260293          	add	t0,a2,2
    80002080:	02098e63          	beqz	s3,800020bc <core_bench_state+0x596>
    80002084:	00364803          	lbu	a6,3(a2)
    80002088:	edd99be3          	bne	s3,t4,80001f5e <core_bench_state+0x438>
    8000208c:	b7f1                	j	80002058 <core_bench_state+0x532>
    8000208e:	00160313          	add	t1,a2,1
    80002092:	20098063          	beqz	s3,80002292 <core_bench_state+0x76c>
    80002096:	00264a83          	lbu	s5,2(a2)
    8000209a:	01d98c63          	beq	s3,t4,800020b2 <core_bench_state+0x58c>
    8000209e:	884e                	mv	a6,s3
    800020a0:	b711                	j	80001fa4 <core_bench_state+0x47e>
    800020a2:	00260313          	add	t1,a2,2
    800020a6:	1e080663          	beqz	a6,80002292 <core_bench_state+0x76c>
    800020aa:	00364a83          	lbu	s5,3(a2)
    800020ae:	efd81be3          	bne	a6,t4,80001fa4 <core_bench_state+0x47e>
    800020b2:	861a                	mv	a2,t1
    800020b4:	8856                	mv	a6,s5
    800020b6:	4695                	li	a3,5
    800020b8:	0605                	add	a2,a2,1
    800020ba:	b59d                	j	80001f20 <core_bench_state+0x3fa>
    800020bc:	4911                	li	s2,4
    800020be:	00291813          	sll	a6,s2,0x2
    800020c2:	04080613          	add	a2,a6,64
    800020c6:	00260ab3          	add	s5,a2,sp
    800020ca:	fc0aa983          	lw	s3,-64(s5)
    800020ce:	0019889b          	addw	a7,s3,1
    800020d2:	fd1aa023          	sw	a7,-64(s5)
    800020d6:	577d                	li	a4,-1
    800020d8:	02075913          	srl	s2,a4,0x20
    800020dc:	1f82                	sll	t6,t6,0x20
    800020de:	0123f3b3          	and	t2,t2,s2
    800020e2:	02049e13          	sll	t3,s1,0x20
    800020e6:	01247433          	and	s0,s0,s2
    800020ea:	01f3eeb3          	or	t4,t2,t6
    800020ee:	01c464b3          	or	s1,s0,t3
    800020f2:	dc7a                	sw	t5,56(sp)
    800020f4:	f876                	sd	t4,48(sp)
    800020f6:	f026                	sd	s1,32(sp)
    800020f8:	16f0f463          	bgeu	ra,a5,80002260 <core_bench_state+0x73a>
    800020fc:	4f05                	li	t5,1
    800020fe:	1dea1a63          	bne	s4,t5,800022d2 <core_bench_state+0x7ac>
    80002102:	0000ca03          	lbu	s4,0(ra)
    80002106:	fff0ca93          	not	s5,ra
    8000210a:	015789b3          	add	s3,a5,s5
    8000210e:	02c00893          	li	a7,44
    80002112:	0079f313          	and	t1,s3,7
    80002116:	011a0663          	beq	s4,a7,80002122 <core_bench_state+0x5fc>
    8000211a:	00aa42b3          	xor	t0,s4,a0
    8000211e:	00508023          	sb	t0,0(ra)
    80002122:	00108713          	add	a4,ra,1
    80002126:	12f77d63          	bgeu	a4,a5,80002260 <core_bench_state+0x73a>
    8000212a:	0a030563          	beqz	t1,800021d4 <core_bench_state+0x6ae>
    8000212e:	4905                	li	s2,1
    80002130:	09230763          	beq	t1,s2,800021be <core_bench_state+0x698>
    80002134:	4f89                	li	t6,2
    80002136:	07f30b63          	beq	t1,t6,800021ac <core_bench_state+0x686>
    8000213a:	438d                	li	t2,3
    8000213c:	04730f63          	beq	t1,t2,8000219a <core_bench_state+0x674>
    80002140:	4e11                	li	t3,4
    80002142:	05c30363          	beq	t1,t3,80002188 <core_bench_state+0x662>
    80002146:	4415                	li	s0,5
    80002148:	02830763          	beq	t1,s0,80002176 <core_bench_state+0x650>
    8000214c:	4e99                	li	t4,6
    8000214e:	01d30b63          	beq	t1,t4,80002164 <core_bench_state+0x63e>
    80002152:	00074483          	lbu	s1,0(a4)
    80002156:	01148663          	beq	s1,a7,80002162 <core_bench_state+0x63c>
    8000215a:	00a4cf33          	xor	t5,s1,a0
    8000215e:	01e70023          	sb	t5,0(a4)
    80002162:	0705                	add	a4,a4,1
    80002164:	00074803          	lbu	a6,0(a4)
    80002168:	01180663          	beq	a6,a7,80002174 <core_bench_state+0x64e>
    8000216c:	00a84633          	xor	a2,a6,a0
    80002170:	00c70023          	sb	a2,0(a4)
    80002174:	0705                	add	a4,a4,1
    80002176:	00074683          	lbu	a3,0(a4)
    8000217a:	01168663          	beq	a3,a7,80002186 <core_bench_state+0x660>
    8000217e:	00a6c0b3          	xor	ra,a3,a0
    80002182:	00170023          	sb	ra,0(a4)
    80002186:	0705                	add	a4,a4,1
    80002188:	00074a03          	lbu	s4,0(a4)
    8000218c:	011a0663          	beq	s4,a7,80002198 <core_bench_state+0x672>
    80002190:	00aa4ab3          	xor	s5,s4,a0
    80002194:	01570023          	sb	s5,0(a4)
    80002198:	0705                	add	a4,a4,1
    8000219a:	00074983          	lbu	s3,0(a4)
    8000219e:	01198663          	beq	s3,a7,800021aa <core_bench_state+0x684>
    800021a2:	00a9c333          	xor	t1,s3,a0
    800021a6:	00670023          	sb	t1,0(a4)
    800021aa:	0705                	add	a4,a4,1
    800021ac:	00074283          	lbu	t0,0(a4)
    800021b0:	01128663          	beq	t0,a7,800021bc <core_bench_state+0x696>
    800021b4:	00a2c933          	xor	s2,t0,a0
    800021b8:	01270023          	sb	s2,0(a4)
    800021bc:	0705                	add	a4,a4,1
    800021be:	00074f83          	lbu	t6,0(a4)
    800021c2:	011f8663          	beq	t6,a7,800021ce <core_bench_state+0x6a8>
    800021c6:	00afc3b3          	xor	t2,t6,a0
    800021ca:	00770023          	sb	t2,0(a4)
    800021ce:	0705                	add	a4,a4,1
    800021d0:	08f77863          	bgeu	a4,a5,80002260 <core_bench_state+0x73a>
    800021d4:	00074e03          	lbu	t3,0(a4)
    800021d8:	011e0663          	beq	t3,a7,800021e4 <core_bench_state+0x6be>
    800021dc:	00ae4433          	xor	s0,t3,a0
    800021e0:	00870023          	sb	s0,0(a4)
    800021e4:	00174e83          	lbu	t4,1(a4)
    800021e8:	00170493          	add	s1,a4,1
    800021ec:	011e8663          	beq	t4,a7,800021f8 <core_bench_state+0x6d2>
    800021f0:	00aecf33          	xor	t5,t4,a0
    800021f4:	01e700a3          	sb	t5,1(a4)
    800021f8:	0014c703          	lbu	a4,1(s1)
    800021fc:	01170663          	beq	a4,a7,80002208 <core_bench_state+0x6e2>
    80002200:	00a74833          	xor	a6,a4,a0
    80002204:	010480a3          	sb	a6,1(s1)
    80002208:	0024c603          	lbu	a2,2(s1)
    8000220c:	01160663          	beq	a2,a7,80002218 <core_bench_state+0x6f2>
    80002210:	00a646b3          	xor	a3,a2,a0
    80002214:	00d48123          	sb	a3,2(s1)
    80002218:	0034c083          	lbu	ra,3(s1)
    8000221c:	01108663          	beq	ra,a7,80002228 <core_bench_state+0x702>
    80002220:	00a0ca33          	xor	s4,ra,a0
    80002224:	014481a3          	sb	s4,3(s1)
    80002228:	0044ca83          	lbu	s5,4(s1)
    8000222c:	011a8663          	beq	s5,a7,80002238 <core_bench_state+0x712>
    80002230:	00aac9b3          	xor	s3,s5,a0
    80002234:	01348223          	sb	s3,4(s1)
    80002238:	0054c303          	lbu	t1,5(s1)
    8000223c:	01130663          	beq	t1,a7,80002248 <core_bench_state+0x722>
    80002240:	00a342b3          	xor	t0,t1,a0
    80002244:	005482a3          	sb	t0,5(s1)
    80002248:	0064c903          	lbu	s2,6(s1)
    8000224c:	01190663          	beq	s2,a7,80002258 <core_bench_state+0x732>
    80002250:	00a94fb3          	xor	t6,s2,a0
    80002254:	01f48323          	sb	t6,6(s1)
    80002258:	00748713          	add	a4,s1,7
    8000225c:	f6f76ce3          	bltu	a4,a5,800021d4 <core_bench_state+0x6ae>
    80002260:	1004                	add	s1,sp,32
    80002262:	840a                	mv	s0,sp
    80002264:	8a26                	mv	s4,s1
    80002266:	4008                	lw	a0,0(s0)
    80002268:	0411                	add	s0,s0,4
    8000226a:	0491                	add	s1,s1,4
    8000226c:	9a6ff0ef          	jal	80001412 <crcu32>
    80002270:	85aa                	mv	a1,a0
    80002272:	ffc4a503          	lw	a0,-4(s1)
    80002276:	99cff0ef          	jal	80001412 <crcu32>
    8000227a:	85aa                	mv	a1,a0
    8000227c:	ff4415e3          	bne	s0,s4,80002266 <core_bench_state+0x740>
    80002280:	70e6                	ld	ra,120(sp)
    80002282:	7446                	ld	s0,112(sp)
    80002284:	74a6                	ld	s1,104(sp)
    80002286:	7906                	ld	s2,96(sp)
    80002288:	69e6                	ld	s3,88(sp)
    8000228a:	6a46                	ld	s4,80(sp)
    8000228c:	6aa6                	ld	s5,72(sp)
    8000228e:	6109                	add	sp,sp,128
    80002290:	8082                	ret
    80002292:	4915                	li	s2,5
    80002294:	b52d                	j	800020be <core_bench_state+0x598>
    80002296:	88f2                	mv	a7,t3
    80002298:	4681                	li	a3,0
    8000229a:	0305                	add	t1,t1,1
    8000229c:	b8c5                	j	80001b8c <core_bench_state+0x66>
    8000229e:	431d                	li	t1,7
    800022a0:	bc61                	j	80001d38 <core_bench_state+0x212>
    800022a2:	884e                	mv	a6,s3
    800022a4:	4681                	li	a3,0
    800022a6:	0605                	add	a2,a2,1
    800022a8:	b9a5                	j	80001f20 <core_bench_state+0x3fa>
    800022aa:	8e06                	mv	t3,ra
    800022ac:	02c00f13          	li	t5,44
    800022b0:	000e4883          	lbu	a7,0(t3)
    800022b4:	0128c433          	xor	s0,a7,s2
    800022b8:	01e88463          	beq	a7,t5,800022c0 <core_bench_state+0x79a>
    800022bc:	008e0023          	sb	s0,0(t3)
    800022c0:	9e52                	add	t3,t3,s4
    800022c2:	fefe67e3          	bltu	t3,a5,800022b0 <core_bench_state+0x78a>
    800022c6:	0000c803          	lbu	a6,0(ra)
    800022ca:	c20810e3          	bnez	a6,80001eea <core_bench_state+0x3c4>
    800022ce:	f8f0f9e3          	bgeu	ra,a5,80002260 <core_bench_state+0x73a>
    800022d2:	02c00813          	li	a6,44
    800022d6:	0000c603          	lbu	a2,0(ra)
    800022da:	00a646b3          	xor	a3,a2,a0
    800022de:	01060463          	beq	a2,a6,800022e6 <core_bench_state+0x7c0>
    800022e2:	00d08023          	sb	a3,0(ra)
    800022e6:	90d2                	add	ra,ra,s4
    800022e8:	fef0e7e3          	bltu	ra,a5,800022d6 <core_bench_state+0x7b0>
    800022ec:	bf95                	j	80002260 <core_bench_state+0x73a>
    800022ee:	4311                	li	t1,4
    800022f0:	b4a1                	j	80001d38 <core_bench_state+0x212>
    800022f2:	491d                	li	s2,7
    800022f4:	b3e9                	j	800020be <core_bench_state+0x598>
    800022f6:	881a                	mv	a6,t1
    800022f8:	469d                	li	a3,7
    800022fa:	0605                	add	a2,a2,1
    800022fc:	b115                	j	80001f20 <core_bench_state+0x3fa>
    800022fe:	88f6                	mv	a7,t4
    80002300:	469d                	li	a3,7
    80002302:	0305                	add	t1,t1,1
    80002304:	b061                	j	80001b8c <core_bench_state+0x66>
    80002306:	00230613          	add	a2,t1,2
    8000230a:	4699                	li	a3,6
    8000230c:	0605                	add	a2,a2,1
    8000230e:	b909                	j	80001f20 <core_bench_state+0x3fa>
    80002310:	4319                	li	t1,6
    80002312:	b41d                	j	80001d38 <core_bench_state+0x212>
    80002314:	002e8313          	add	t1,t4,2
    80002318:	4699                	li	a3,6
    8000231a:	0305                	add	t1,t1,1
    8000231c:	b885                	j	80001b8c <core_bench_state+0x66>
    8000231e:	4919                	li	s2,6
    80002320:	bb79                	j	800020be <core_bench_state+0x598>
    80002322:	020a9793          	sll	a5,s5,0x20
    80002326:	0207d293          	srl	t0,a5,0x20
    8000232a:	f002                	sd	zero,32(sp)
    8000232c:	f802                	sd	zero,48(sp)
    8000232e:	005087b3          	add	a5,ra,t0
    80002332:	a4f0e6e3          	bltu	ra,a5,80001d7e <core_bench_state+0x258>
    80002336:	b72d                	j	80002260 <core_bench_state+0x73a>
    80002338:	8322                	mv	t1,s0
    8000233a:	88f6                	mv	a7,t4
    8000233c:	4691                	li	a3,4
    8000233e:	0305                	add	t1,t1,1
    80002340:	b0b1                	j	80001b8c <core_bench_state+0x66>
    80002342:	dcf0e0e3          	bltu	ra,a5,80002102 <core_bench_state+0x5dc>
    80002346:	bf29                	j	80002260 <core_bench_state+0x73a>
    80002348:	861a                	mv	a2,t1
    8000234a:	8816                	mv	a6,t0
    8000234c:	4695                	li	a3,5
    8000234e:	0605                	add	a2,a2,1
    80002350:	bec1                	j	80001f20 <core_bench_state+0x3fa>
    80002352:	8376                	mv	t1,t4
    80002354:	88b6                	mv	a7,a3
    80002356:	0305                	add	t1,t1,1
    80002358:	4695                	li	a3,5
    8000235a:	b80d                	j	80001b8c <core_bench_state+0x66>

000000008000235c <core_init_state>:
core_init_state():
    8000235c:	fff50e9b          	addw	t4,a0,-1
    80002360:	4785                	li	a5,1
    80002362:	13d7f663          	bgeu	a5,t4,8000248e <core_init_state+0x132>
    80002366:	0015829b          	addw	t0,a1,1
    8000236a:	03029593          	sll	a1,t0,0x30
    8000236e:	91c1                	srl	a1,a1,0x30
    80002370:	00006317          	auipc	t1,0x6
    80002374:	0035d693          	srl	a3,a1,0x3
    80002378:	4f9d                	li	t6,7
    8000237a:	0075f393          	and	t2,a1,7
    8000237e:	ff830e13          	add	t3,t1,-8 # 80008368 <intpat>
    80002382:	4781                	li	a5,0
    80002384:	4311                	li	t1,4
    80002386:	4f05                	li	t5,1
    80002388:	02c00293          	li	t0,44
    8000238c:	0036f893          	and	a7,a3,3
    80002390:	0bf38163          	beq	t2,t6,80002432 <core_init_state+0xd6>
    80002394:	0e736563          	bltu	t1,t2,8000247e <core_init_state+0x122>
    80002398:	ffd3869b          	addw	a3,t2,-3
    8000239c:	03069393          	sll	t2,a3,0x30
    800023a0:	0303d813          	srl	a6,t2,0x30
    800023a4:	0d0f6663          	bltu	t5,a6,80002470 <core_init_state+0x114>
    800023a8:	00389693          	sll	a3,a7,0x3
    800023ac:	00de03b3          	add	t2,t3,a3
    800023b0:	0203b383          	ld	t2,32(t2)
    800023b4:	4821                	li	a6,8
    800023b6:	0017871b          	addw	a4,a5,1
    800023ba:	010708bb          	addw	a7,a4,a6
    800023be:	09d8f763          	bgeu	a7,t4,8000244c <core_init_state+0xf0>
    800023c2:	0003c683          	lbu	a3,0(t2)
    800023c6:	1782                	sll	a5,a5,0x20
    800023c8:	0207d713          	srl	a4,a5,0x20
    800023cc:	00e607b3          	add	a5,a2,a4
    800023d0:	00d78023          	sb	a3,0(a5)
    800023d4:	0013c683          	lbu	a3,1(t2)
    800023d8:	00d780a3          	sb	a3,1(a5)
    800023dc:	0023c703          	lbu	a4,2(t2)
    800023e0:	00e78123          	sb	a4,2(a5)
    800023e4:	0033c683          	lbu	a3,3(t2)
    800023e8:	00d781a3          	sb	a3,3(a5)
    800023ec:	02680263          	beq	a6,t1,80002410 <core_init_state+0xb4>
    800023f0:	0043c703          	lbu	a4,4(t2)
    800023f4:	00e78223          	sb	a4,4(a5)
    800023f8:	0053c683          	lbu	a3,5(t2)
    800023fc:	00d782a3          	sb	a3,5(a5)
    80002400:	0063c703          	lbu	a4,6(t2)
    80002404:	00e78323          	sb	a4,6(a5)
    80002408:	0073c383          	lbu	t2,7(t2)
    8000240c:	007783a3          	sb	t2,7(a5)
    80002410:	2585                	addw	a1,a1,1
    80002412:	983e                	add	a6,a6,a5
    80002414:	03059793          	sll	a5,a1,0x30
    80002418:	0307d593          	srl	a1,a5,0x30
    8000241c:	0035d693          	srl	a3,a1,0x3
    80002420:	00580023          	sb	t0,0(a6)
    80002424:	0075f393          	and	t2,a1,7
    80002428:	87c6                	mv	a5,a7
    8000242a:	0036f893          	and	a7,a3,3
    8000242e:	f7f393e3          	bne	t2,t6,80002394 <core_init_state+0x38>
    80002432:	00389713          	sll	a4,a7,0x3
    80002436:	00ee06b3          	add	a3,t3,a4
    8000243a:	4821                	li	a6,8
    8000243c:	0017871b          	addw	a4,a5,1
    80002440:	010708bb          	addw	a7,a4,a6
    80002444:	0606b383          	ld	t2,96(a3)
    80002448:	f7d8ede3          	bltu	a7,t4,800023c2 <core_init_state+0x66>
    8000244c:	00a7e563          	bltu	a5,a0,80002456 <core_init_state+0xfa>
    80002450:	a835                	j	8000248c <core_init_state+0x130>
    80002452:	0017871b          	addw	a4,a5,1
    80002456:	02079e13          	sll	t3,a5,0x20
    8000245a:	020e5e93          	srl	t4,t3,0x20
    8000245e:	01d60f33          	add	t5,a2,t4
    80002462:	0007079b          	sext.w	a5,a4
    80002466:	000f0023          	sb	zero,0(t5)
    8000246a:	fea7e4e3          	bltu	a5,a0,80002452 <core_init_state+0xf6>
    8000246e:	8082                	ret
    80002470:	088e                	sll	a7,a7,0x3
    80002472:	011e0733          	add	a4,t3,a7
    80002476:	00073383          	ld	t2,0(a4)
    8000247a:	4811                	li	a6,4
    8000247c:	bf2d                	j	800023b6 <core_init_state+0x5a>
    8000247e:	088e                	sll	a7,a7,0x3
    80002480:	011e0733          	add	a4,t3,a7
    80002484:	04073383          	ld	t2,64(a4)
    80002488:	4821                	li	a6,8
    8000248a:	b735                	j	800023b6 <core_init_state+0x5a>
    8000248c:	8082                	ret
    8000248e:	4781                	li	a5,0
    80002490:	4705                	li	a4,1
    80002492:	b7d1                	j	80002456 <core_init_state+0xfa>

0000000080002494 <core_state_transition>:
core_state_transition():
    80002494:	611c                	ld	a5,0(a0)
    80002496:	88aa                	mv	a7,a0
    80002498:	0007c683          	lbu	a3,0(a5)
    8000249c:	20068d63          	beqz	a3,800026b6 <core_state_transition+0x222>
    800024a0:	02c00713          	li	a4,44
    800024a4:	0017c603          	lbu	a2,1(a5)
    800024a8:	4501                	li	a0,0
    800024aa:	1ae68463          	beq	a3,a4,80002652 <core_state_transition+0x1be>
    800024ae:	0005a303          	lw	t1,0(a1)
    800024b2:	0f06f513          	and	a0,a3,240
    800024b6:	03000813          	li	a6,48
    800024ba:	0013029b          	addw	t0,t1,1
    800024be:	0055a023          	sw	t0,0(a1)
    800024c2:	05050963          	beq	a0,a6,80002514 <core_state_transition+0x80>
    800024c6:	fd56839b          	addw	t2,a3,-43
    800024ca:	0fd3fe13          	and	t3,t2,253
    800024ce:	020e0163          	beqz	t3,800024f0 <core_state_transition+0x5c>
    800024d2:	02e00e93          	li	t4,46
    800024d6:	1bd68763          	beq	a3,t4,80002684 <core_state_transition+0x1f0>
    800024da:	0045a283          	lw	t0,4(a1)
    800024de:	0785                	add	a5,a5,1
    800024e0:	4505                	li	a0,1
    800024e2:	0012881b          	addw	a6,t0,1
    800024e6:	0105a223          	sw	a6,4(a1)
    800024ea:	00f8b023          	sd	a5,0(a7)
    800024ee:	8082                	ret
    800024f0:	0085af03          	lw	t5,8(a1)
    800024f4:	0f067f93          	and	t6,a2,240
    800024f8:	001f069b          	addw	a3,t5,1
    800024fc:	c594                	sw	a3,8(a1)
    800024fe:	130f8e63          	beq	t6,a6,8000263a <core_state_transition+0x1a6>
    80002502:	02e00313          	li	t1,46
    80002506:	18660d63          	beq	a2,t1,800026a0 <core_state_transition+0x20c>
    8000250a:	0789                	add	a5,a5,2
    8000250c:	4505                	li	a0,1
    8000250e:	00f8b023          	sd	a5,0(a7)
    80002512:	8082                	ret
    80002514:	0017ce83          	lbu	t4,1(a5)
    80002518:	00178393          	add	t2,a5,1
    8000251c:	180e8f63          	beqz	t4,800026ba <core_state_transition+0x226>
    80002520:	0027c303          	lbu	t1,2(a5)
    80002524:	12ee8563          	beq	t4,a4,8000264e <core_state_transition+0x1ba>
    80002528:	02e00713          	li	a4,46
    8000252c:	03000513          	li	a0,48
    80002530:	0f0ef793          	and	a5,t4,240
    80002534:	00ee8f63          	beq	t4,a4,80002552 <core_state_transition+0xbe>
    80002538:	10a78f63          	beq	a5,a0,80002656 <core_state_transition+0x1c2>
    8000253c:	4990                	lw	a2,16(a1)
    8000253e:	00138793          	add	a5,t2,1
    80002542:	4505                	li	a0,1
    80002544:	0016081b          	addw	a6,a2,1
    80002548:	0105a823          	sw	a6,16(a1)
    8000254c:	00f8b023          	sd	a5,0(a7)
    80002550:	8082                	ret
    80002552:	0105af03          	lw	t5,16(a1)
    80002556:	00138e93          	add	t4,t2,1
    8000255a:	001f0f9b          	addw	t6,t5,1
    8000255e:	01f5a823          	sw	t6,16(a1)
    80002562:	0013cf03          	lbu	t5,1(t2)
    80002566:	140f0d63          	beqz	t5,800026c0 <core_state_transition+0x22c>
    8000256a:	02c00713          	li	a4,44
    8000256e:	0023c783          	lbu	a5,2(t2)
    80002572:	12ef0363          	beq	t5,a4,80002698 <core_state_transition+0x204>
    80002576:	04500513          	li	a0,69
    8000257a:	0dff7293          	and	t0,t5,223
    8000257e:	0f0f7813          	and	a6,t5,240
    80002582:	03000613          	li	a2,48
    80002586:	00a28f63          	beq	t0,a0,800025a4 <core_state_transition+0x110>
    8000258a:	0ec80263          	beq	a6,a2,8000266e <core_state_transition+0x1da>
    8000258e:	0145a383          	lw	t2,20(a1)
    80002592:	001e8793          	add	a5,t4,1
    80002596:	4505                	li	a0,1
    80002598:	0013869b          	addw	a3,t2,1
    8000259c:	c9d4                	sw	a3,20(a1)
    8000259e:	00f8b023          	sd	a5,0(a7)
    800025a2:	8082                	ret
    800025a4:	0145af83          	lw	t6,20(a1)
    800025a8:	45d8                	lw	a4,12(a1)
    800025aa:	fd57851b          	addw	a0,a5,-43
    800025ae:	001f829b          	addw	t0,t6,1
    800025b2:	0017081b          	addw	a6,a4,1
    800025b6:	0055aa23          	sw	t0,20(a1)
    800025ba:	0105a623          	sw	a6,12(a1)
    800025be:	0fd57613          	and	a2,a0,253
    800025c2:	c609                	beqz	a2,800025cc <core_state_transition+0x138>
    800025c4:	002e8793          	add	a5,t4,2
    800025c8:	4505                	li	a0,1
    800025ca:	b705                	j	800024ea <core_state_transition+0x56>
    800025cc:	002ec383          	lbu	t2,2(t4)
    800025d0:	002e8793          	add	a5,t4,2
    800025d4:	0e038e63          	beqz	t2,800026d0 <core_state_transition+0x23c>
    800025d8:	02c00e13          	li	t3,44
    800025dc:	0fc38c63          	beq	t2,t3,800026d4 <core_state_transition+0x240>
    800025e0:	4d94                	lw	a3,24(a1)
    800025e2:	0f03f313          	and	t1,t2,240
    800025e6:	03000f13          	li	t5,48
    800025ea:	0016879b          	addw	a5,a3,1
    800025ee:	cd9c                	sw	a5,24(a1)
    800025f0:	01e30663          	beq	t1,t5,800025fc <core_state_transition+0x168>
    800025f4:	003e8793          	add	a5,t4,3
    800025f8:	4505                	li	a0,1
    800025fa:	bdc5                	j	800024ea <core_state_transition+0x56>
    800025fc:	003ec603          	lbu	a2,3(t4)
    80002600:	003e8793          	add	a5,t4,3
    80002604:	c269                	beqz	a2,800026c6 <core_state_transition+0x232>
    80002606:	004ec803          	lbu	a6,4(t4)
    8000260a:	0dc60063          	beq	a2,t3,800026ca <core_state_transition+0x236>
    8000260e:	03000e93          	li	t4,48
    80002612:	0f067713          	and	a4,a2,240
    80002616:	02c00f93          	li	t6,44
    8000261a:	edd710e3          	bne	a4,t4,800024da <core_state_transition+0x46>
    8000261e:	0785                	add	a5,a5,1
    80002620:	0a080363          	beqz	a6,800026c6 <core_state_transition+0x232>
    80002624:	0017c503          	lbu	a0,1(a5)
    80002628:	8642                	mv	a2,a6
    8000262a:	0bf80063          	beq	a6,t6,800026ca <core_state_transition+0x236>
    8000262e:	0f067713          	and	a4,a2,240
    80002632:	882a                	mv	a6,a0
    80002634:	ebd713e3          	bne	a4,t4,800024da <core_state_transition+0x46>
    80002638:	b7dd                	j	8000261e <core_state_transition+0x18a>
    8000263a:	0027ce83          	lbu	t4,2(a5)
    8000263e:	00278393          	add	t2,a5,2
    80002642:	060e8c63          	beqz	t4,800026ba <core_state_transition+0x226>
    80002646:	0037c303          	lbu	t1,3(a5)
    8000264a:	ecee9fe3          	bne	t4,a4,80002528 <core_state_transition+0x94>
    8000264e:	879e                	mv	a5,t2
    80002650:	4511                	li	a0,4
    80002652:	0785                	add	a5,a5,1
    80002654:	bd59                	j	800024ea <core_state_transition+0x56>
    80002656:	02c00293          	li	t0,44
    8000265a:	0385                	add	t2,t2,1
    8000265c:	04030f63          	beqz	t1,800026ba <core_state_transition+0x226>
    80002660:	0013ce03          	lbu	t3,1(t2)
    80002664:	8e9a                	mv	t4,t1
    80002666:	fe5304e3          	beq	t1,t0,8000264e <core_state_transition+0x1ba>
    8000266a:	8372                	mv	t1,t3
    8000266c:	b5d1                	j	80002530 <core_state_transition+0x9c>
    8000266e:	02c00e13          	li	t3,44
    80002672:	0e85                	add	t4,t4,1
    80002674:	c7b1                	beqz	a5,800026c0 <core_state_transition+0x22c>
    80002676:	001ec303          	lbu	t1,1(t4)
    8000267a:	8f3e                	mv	t5,a5
    8000267c:	01c78e63          	beq	a5,t3,80002698 <core_state_transition+0x204>
    80002680:	879a                	mv	a5,t1
    80002682:	bde5                	j	8000257a <core_state_transition+0xe6>
    80002684:	0017cf03          	lbu	t5,1(a5)
    80002688:	00178e93          	add	t4,a5,1
    8000268c:	020f0a63          	beqz	t5,800026c0 <core_state_transition+0x22c>
    80002690:	0027c783          	lbu	a5,2(a5)
    80002694:	eeef11e3          	bne	t5,a4,80002576 <core_state_transition+0xe2>
    80002698:	87f6                	mv	a5,t4
    8000269a:	4515                	li	a0,5
    8000269c:	0785                	add	a5,a5,1
    8000269e:	b5b1                	j	800024ea <core_state_transition+0x56>
    800026a0:	0027cf03          	lbu	t5,2(a5)
    800026a4:	00278e93          	add	t4,a5,2
    800026a8:	000f0c63          	beqz	t5,800026c0 <core_state_transition+0x22c>
    800026ac:	0037c783          	lbu	a5,3(a5)
    800026b0:	ecef13e3          	bne	t5,a4,80002576 <core_state_transition+0xe2>
    800026b4:	b7d5                	j	80002698 <core_state_transition+0x204>
    800026b6:	4501                	li	a0,0
    800026b8:	bd0d                	j	800024ea <core_state_transition+0x56>
    800026ba:	879e                	mv	a5,t2
    800026bc:	4511                	li	a0,4
    800026be:	b535                	j	800024ea <core_state_transition+0x56>
    800026c0:	87f6                	mv	a5,t4
    800026c2:	4515                	li	a0,5
    800026c4:	b51d                	j	800024ea <core_state_transition+0x56>
    800026c6:	451d                	li	a0,7
    800026c8:	b50d                	j	800024ea <core_state_transition+0x56>
    800026ca:	451d                	li	a0,7
    800026cc:	0785                	add	a5,a5,1
    800026ce:	bd31                	j	800024ea <core_state_transition+0x56>
    800026d0:	4519                	li	a0,6
    800026d2:	bd21                	j	800024ea <core_state_transition+0x56>
    800026d4:	4519                	li	a0,6
    800026d6:	0785                	add	a5,a5,1
    800026d8:	bd09                	j	800024ea <core_state_transition+0x56>

00000000800026da <calc_func>:
calc_func():
    800026da:	7179                	add	sp,sp,-48
    800026dc:	f022                	sd	s0,32(sp)
    800026de:	00051403          	lh	s0,0(a0)
    800026e2:	f406                	sd	ra,40(sp)
    800026e4:	ec26                	sd	s1,24(sp)
    800026e6:	4074579b          	sraw	a5,s0,0x7
    800026ea:	e84a                	sd	s2,16(sp)
    800026ec:	e44e                	sd	s3,8(sp)
    800026ee:	0017f093          	and	ra,a5,1
    800026f2:	00008b63          	beqz	ra,80002708 <calc_func+0x2e>
    800026f6:	70a2                	ld	ra,40(sp)
    800026f8:	07f47513          	and	a0,s0,127
    800026fc:	7402                	ld	s0,32(sp)
    800026fe:	64e2                	ld	s1,24(sp)
    80002700:	6942                	ld	s2,16(sp)
    80002702:	69a2                	ld	s3,8(sp)
    80002704:	6145                	add	sp,sp,48
    80002706:	8082                	ret
    80002708:	4034529b          	sraw	t0,s0,0x3
    8000270c:	00f2f693          	and	a3,t0,15
    80002710:	00469613          	sll	a2,a3,0x4
    80002714:	00747713          	and	a4,s0,7
    80002718:	0605d783          	lhu	a5,96(a1)
    8000271c:	84ae                	mv	s1,a1
    8000271e:	892a                	mv	s2,a0
    80002720:	00d665b3          	or	a1,a2,a3
    80002724:	c321                	beqz	a4,80002764 <calc_func+0x8a>
    80002726:	4505                	li	a0,1
    80002728:	06a70b63          	beq	a4,a0,8000279e <calc_func+0xc4>
    8000272c:	03041893          	sll	a7,s0,0x30
    80002730:	0308d513          	srl	a0,a7,0x30
    80002734:	89a2                	mv	s3,s0
    80002736:	85be                	mv	a1,a5
    80002738:	a8bfe0ef          	jal	800011c2 <crcu16>
    8000273c:	8e2a                	mv	t3,a0
    8000273e:	f0047e93          	and	t4,s0,-256
    80002742:	07f9f513          	and	a0,s3,127
    80002746:	70a2                	ld	ra,40(sp)
    80002748:	7402                	ld	s0,32(sp)
    8000274a:	01d56f33          	or	t5,a0,t4
    8000274e:	07c49023          	sh	t3,96(s1)
    80002752:	080f6f93          	or	t6,t5,128
    80002756:	01f91023          	sh	t6,0(s2)
    8000275a:	64e2                	ld	s1,24(sp)
    8000275c:	6942                	ld	s2,16(sp)
    8000275e:	69a2                	ld	s3,8(sp)
    80002760:	6145                	add	sp,sp,48
    80002762:	8082                	ret
    80002764:	02200313          	li	t1,34
    80002768:	83ae                	mv	t2,a1
    8000276a:	0065d463          	bge	a1,t1,80002772 <calc_func+0x98>
    8000276e:	02200393          	li	t2,34
    80002772:	708c                	ld	a1,32(s1)
    80002774:	00249683          	lh	a3,2(s1)
    80002778:	00049603          	lh	a2,0(s1)
    8000277c:	5488                	lw	a0,40(s1)
    8000277e:	0ff3f713          	zext.b	a4,t2
    80002782:	ba4ff0ef          	jal	80001b26 <core_bench_state>
    80002786:	0664d583          	lhu	a1,102(s1)
    8000278a:	e199                	bnez	a1,80002790 <calc_func+0xb6>
    8000278c:	06a49323          	sh	a0,102(s1)
    80002790:	0105199b          	sllw	s3,a0,0x10
    80002794:	0604d783          	lhu	a5,96(s1)
    80002798:	4109d99b          	sraw	s3,s3,0x10
    8000279c:	bf69                	j	80002736 <calc_func+0x5c>
    8000279e:	863e                	mv	a2,a5
    800027a0:	04048513          	add	a0,s1,64
    800027a4:	51d000ef          	jal	800034c0 <core_bench_matrix>
    800027a8:	0644d803          	lhu	a6,100(s1)
    800027ac:	fe0812e3          	bnez	a6,80002790 <calc_func+0xb6>
    800027b0:	06a49223          	sh	a0,100(s1)
    800027b4:	bff1                	j	80002790 <calc_func+0xb6>

00000000800027b6 <cmp_complex>:
cmp_complex():
    800027b6:	7179                	add	sp,sp,-48
    800027b8:	ec26                	sd	s1,24(sp)
    800027ba:	00051483          	lh	s1,0(a0)
    800027be:	f406                	sd	ra,40(sp)
    800027c0:	f022                	sd	s0,32(sp)
    800027c2:	4074d79b          	sraw	a5,s1,0x7
    800027c6:	e84a                	sd	s2,16(sp)
    800027c8:	e44e                	sd	s3,8(sp)
    800027ca:	e052                	sd	s4,0(sp)
    800027cc:	0017f093          	and	ra,a5,1
    800027d0:	89ae                	mv	s3,a1
    800027d2:	8432                	mv	s0,a2
    800027d4:	07f4f913          	and	s2,s1,127
    800027d8:	04009863          	bnez	ra,80002828 <cmp_complex+0x72>
    800027dc:	4034d29b          	sraw	t0,s1,0x3
    800027e0:	00f2f693          	and	a3,t0,15
    800027e4:	00469613          	sll	a2,a3,0x4
    800027e8:	0074f713          	and	a4,s1,7
    800027ec:	06045783          	lhu	a5,96(s0)
    800027f0:	8a2a                	mv	s4,a0
    800027f2:	00c6e5b3          	or	a1,a3,a2
    800027f6:	0e070863          	beqz	a4,800028e6 <cmp_complex+0x130>
    800027fa:	4505                	li	a0,1
    800027fc:	12a70263          	beq	a4,a0,80002920 <cmp_complex+0x16a>
    80002800:	03049893          	sll	a7,s1,0x30
    80002804:	0308d513          	srl	a0,a7,0x30
    80002808:	8926                	mv	s2,s1
    8000280a:	85be                	mv	a1,a5
    8000280c:	9b7fe0ef          	jal	800011c2 <crcu16>
    80002810:	07f97913          	and	s2,s2,127
    80002814:	f004fe13          	and	t3,s1,-256
    80002818:	01c96eb3          	or	t4,s2,t3
    8000281c:	06a41023          	sh	a0,96(s0)
    80002820:	080eef13          	or	t5,t4,128
    80002824:	01ea1023          	sh	t5,0(s4)
    80002828:	00099483          	lh	s1,0(s3)
    8000282c:	4074df9b          	sraw	t6,s1,0x7
    80002830:	001ff793          	and	a5,t6,1
    80002834:	07f4f893          	and	a7,s1,127
    80002838:	e3a5                	bnez	a5,80002898 <cmp_complex+0xe2>
    8000283a:	4034d09b          	sraw	ra,s1,0x3
    8000283e:	00f0fa13          	and	s4,ra,15
    80002842:	004a1293          	sll	t0,s4,0x4
    80002846:	0074f613          	and	a2,s1,7
    8000284a:	06045783          	lhu	a5,96(s0)
    8000284e:	005a65b3          	or	a1,s4,t0
    80002852:	c235                	beqz	a2,800028b6 <cmp_complex+0x100>
    80002854:	4385                	li	t2,1
    80002856:	04761b63          	bne	a2,t2,800028ac <cmp_complex+0xf6>
    8000285a:	863e                	mv	a2,a5
    8000285c:	04040513          	add	a0,s0,64
    80002860:	461000ef          	jal	800034c0 <core_bench_matrix>
    80002864:	06445583          	lhu	a1,100(s0)
    80002868:	e199                	bnez	a1,8000286e <cmp_complex+0xb8>
    8000286a:	06a41223          	sh	a0,100(s0)
    8000286e:	06045783          	lhu	a5,96(s0)
    80002872:	0105181b          	sllw	a6,a0,0x10
    80002876:	41085a1b          	sraw	s4,a6,0x10
    8000287a:	85be                	mv	a1,a5
    8000287c:	947fe0ef          	jal	800011c2 <crcu16>
    80002880:	07fa7893          	and	a7,s4,127
    80002884:	f004fe13          	and	t3,s1,-256
    80002888:	01c8eeb3          	or	t4,a7,t3
    8000288c:	06a41023          	sh	a0,96(s0)
    80002890:	080ee413          	or	s0,t4,128
    80002894:	00899023          	sh	s0,0(s3)
    80002898:	70a2                	ld	ra,40(sp)
    8000289a:	7402                	ld	s0,32(sp)
    8000289c:	64e2                	ld	s1,24(sp)
    8000289e:	69a2                	ld	s3,8(sp)
    800028a0:	6a02                	ld	s4,0(sp)
    800028a2:	4119053b          	subw	a0,s2,a7
    800028a6:	6942                	ld	s2,16(sp)
    800028a8:	6145                	add	sp,sp,48
    800028aa:	8082                	ret
    800028ac:	03049513          	sll	a0,s1,0x30
    800028b0:	9141                	srl	a0,a0,0x30
    800028b2:	8a26                	mv	s4,s1
    800028b4:	b7d9                	j	8000287a <cmp_complex+0xc4>
    800028b6:	02200693          	li	a3,34
    800028ba:	872e                	mv	a4,a1
    800028bc:	00d5d463          	bge	a1,a3,800028c4 <cmp_complex+0x10e>
    800028c0:	02200713          	li	a4,34
    800028c4:	00241683          	lh	a3,2(s0)
    800028c8:	00041603          	lh	a2,0(s0)
    800028cc:	700c                	ld	a1,32(s0)
    800028ce:	5408                	lw	a0,40(s0)
    800028d0:	0ff77713          	zext.b	a4,a4
    800028d4:	a52ff0ef          	jal	80001b26 <core_bench_state>
    800028d8:	06645303          	lhu	t1,102(s0)
    800028dc:	f80319e3          	bnez	t1,8000286e <cmp_complex+0xb8>
    800028e0:	06a41323          	sh	a0,102(s0)
    800028e4:	b769                	j	8000286e <cmp_complex+0xb8>
    800028e6:	02200313          	li	t1,34
    800028ea:	83ae                	mv	t2,a1
    800028ec:	0065d463          	bge	a1,t1,800028f4 <cmp_complex+0x13e>
    800028f0:	02200393          	li	t2,34
    800028f4:	700c                	ld	a1,32(s0)
    800028f6:	00241683          	lh	a3,2(s0)
    800028fa:	00041603          	lh	a2,0(s0)
    800028fe:	5408                	lw	a0,40(s0)
    80002900:	0ff3f713          	zext.b	a4,t2
    80002904:	a22ff0ef          	jal	80001b26 <core_bench_state>
    80002908:	06645583          	lhu	a1,102(s0)
    8000290c:	e199                	bnez	a1,80002912 <cmp_complex+0x15c>
    8000290e:	06a41323          	sh	a0,102(s0)
    80002912:	0105191b          	sllw	s2,a0,0x10
    80002916:	06045783          	lhu	a5,96(s0)
    8000291a:	4109591b          	sraw	s2,s2,0x10
    8000291e:	b5f5                	j	8000280a <cmp_complex+0x54>
    80002920:	863e                	mv	a2,a5
    80002922:	04040513          	add	a0,s0,64
    80002926:	39b000ef          	jal	800034c0 <core_bench_matrix>
    8000292a:	06445803          	lhu	a6,100(s0)
    8000292e:	fe0812e3          	bnez	a6,80002912 <cmp_complex+0x15c>
    80002932:	06a41223          	sh	a0,100(s0)
    80002936:	bff1                	j	80002912 <cmp_complex+0x15c>

0000000080002938 <cmp_idx>:
cmp_idx():
    80002938:	c619                	beqz	a2,80002946 <cmp_idx+0xe>
    8000293a:	00251503          	lh	a0,2(a0)
    8000293e:	00259583          	lh	a1,2(a1)
    80002942:	9d0d                	subw	a0,a0,a1
    80002944:	8082                	ret
    80002946:	00055783          	lhu	a5,0(a0)
    8000294a:	0087d293          	srl	t0,a5,0x8
    8000294e:	0082971b          	sllw	a4,t0,0x8
    80002952:	00e2e333          	or	t1,t0,a4
    80002956:	00651023          	sh	t1,0(a0)
    8000295a:	0005d383          	lhu	t2,0(a1)
    8000295e:	00251503          	lh	a0,2(a0)
    80002962:	0083d613          	srl	a2,t2,0x8
    80002966:	0086169b          	sllw	a3,a2,0x8
    8000296a:	00d66833          	or	a6,a2,a3
    8000296e:	01059023          	sh	a6,0(a1)
    80002972:	00259583          	lh	a1,2(a1)
    80002976:	9d0d                	subw	a0,a0,a1
    80002978:	8082                	ret

000000008000297a <copy_info>:
copy_info():
    8000297a:	00059703          	lh	a4,0(a1)
    8000297e:	00259783          	lh	a5,2(a1)
    80002982:	00e51023          	sh	a4,0(a0)
    80002986:	00f51123          	sh	a5,2(a0)
    8000298a:	8082                	ret

000000008000298c <core_bench_list>:
core_bench_list():
    8000298c:	00451303          	lh	t1,4(a0)
    80002990:	7135                	add	sp,sp,-160
    80002992:	e922                	sd	s0,144(sp)
    80002994:	f8d2                	sd	s4,112(sp)
    80002996:	ed06                	sd	ra,152(sp)
    80002998:	e526                	sd	s1,136(sp)
    8000299a:	e14a                	sd	s2,128(sp)
    8000299c:	fcce                	sd	s3,120(sp)
    8000299e:	f4d6                	sd	s5,104(sp)
    800029a0:	f0da                	sd	s6,96(sp)
    800029a2:	ecde                	sd	s7,88(sp)
    800029a4:	e8e2                	sd	s8,80(sp)
    800029a6:	e4e6                	sd	s9,72(sp)
    800029a8:	e0ea                	sd	s10,64(sp)
    800029aa:	fc6e                	sd	s11,56(sp)
    800029ac:	f002                	sd	zero,32(sp)
    800029ae:	e42e                	sd	a1,8(sp)
    800029b0:	7d00                	ld	s0,56(a0)
    800029b2:	8a2a                	mv	s4,a0
    800029b4:	882e                	mv	a6,a1
    800029b6:	58605363          	blez	t1,80002f3c <core_bench_list+0x5b0>
    800029ba:	4601                	li	a2,0
    800029bc:	4881                	li	a7,0
    800029be:	4501                	li	a0,0
    800029c0:	4e81                	li	t4,0
    800029c2:	60a2                	ld	ra,8(sp)
    800029c4:	0ff67793          	zext.b	a5,a2
    800029c8:	f03e                	sd	a5,32(sp)
    800029ca:	2400cd63          	bltz	ra,80002c24 <core_bench_list+0x298>
    800029ce:	56040b63          	beqz	s0,80002f44 <core_bench_list+0x5b8>
    800029d2:	82a2                	mv	t0,s0
    800029d4:	a029                	j	800029de <core_bench_list+0x52>
    800029d6:	0002b283          	ld	t0,0(t0)
    800029da:	00028963          	beqz	t0,800029ec <core_bench_list+0x60>
    800029de:	0082b483          	ld	s1,8(t0)
    800029e2:	69a2                	ld	s3,8(sp)
    800029e4:	00249903          	lh	s2,2(s1)
    800029e8:	ff3917e3          	bne	s2,s3,800029d6 <core_bench_list+0x4a>
    800029ec:	4a81                	li	s5,0
    800029ee:	a011                	j	800029f2 <core_bench_list+0x66>
    800029f0:	845a                	mv	s0,s6
    800029f2:	00043b03          	ld	s6,0(s0)
    800029f6:	01543023          	sd	s5,0(s0)
    800029fa:	8aa2                	mv	s5,s0
    800029fc:	fe0b1ae3          	bnez	s6,800029f0 <core_bench_list+0x64>
    80002a00:	24028263          	beqz	t0,80002c44 <core_bench_list+0x2b8>
    80002a04:	0082bb83          	ld	s7,8(t0)
    80002a08:	000b9c03          	lh	s8,0(s7)
    80002a0c:	001c7c93          	and	s9,s8,1
    80002a10:	000c8c63          	beqz	s9,80002a28 <core_bench_list+0x9c>
    80002a14:	409c5d1b          	sraw	s10,s8,0x9
    80002a18:	001d7d93          	and	s11,s10,1
    80002a1c:	01dd85bb          	addw	a1,s11,t4
    80002a20:	03059e13          	sll	t3,a1,0x30
    80002a24:	030e5e93          	srl	t4,t3,0x30
    80002a28:	0002bf03          	ld	t5,0(t0)
    80002a2c:	000f0b63          	beqz	t5,80002a42 <core_bench_list+0xb6>
    80002a30:	000f3f83          	ld	t6,0(t5)
    80002a34:	01f2b023          	sd	t6,0(t0)
    80002a38:	601c                	ld	a5,0(s0)
    80002a3a:	00ff3023          	sd	a5,0(t5)
    80002a3e:	01e43023          	sd	t5,0(s0)
    80002a42:	2505                	addw	a0,a0,1
    80002a44:	03051093          	sll	ra,a0,0x30
    80002a48:	0300d513          	srl	a0,ra,0x30
    80002a4c:	6aa2                	ld	s5,8(sp)
    80002a4e:	000ac963          	bltz	s5,80002a60 <core_bench_list+0xd4>
    80002a52:	001a8b1b          	addw	s6,s5,1
    80002a56:	010b1b9b          	sllw	s7,s6,0x10
    80002a5a:	410bdc1b          	sraw	s8,s7,0x10
    80002a5e:	e462                	sd	s8,8(sp)
    80002a60:	2605                	addw	a2,a2,1
    80002a62:	01061c9b          	sllw	s9,a2,0x10
    80002a66:	410cd61b          	sraw	a2,s9,0x10
    80002a6a:	f4c31ce3          	bne	t1,a2,800029c2 <core_bench_list+0x36>
    80002a6e:	0025131b          	sllw	t1,a0,0x2
    80002a72:	41130d3b          	subw	s10,t1,a7
    80002a76:	01dd0dbb          	addw	s11,s10,t4
    80002a7a:	030d9593          	sll	a1,s11,0x30
    80002a7e:	0305de13          	srl	t3,a1,0x30
    80002a82:	f472                	sd	t3,40(sp)
    80002a84:	23004263          	bgtz	a6,80002ca8 <core_bench_list+0x31c>
    80002a88:	00043a03          	ld	s4,0(s0)
    80002a8c:	6ca2                	ld	s9,8(sp)
    80002a8e:	84a2                	mv	s1,s0
    80002a90:	000a3b03          	ld	s6,0(s4)
    80002a94:	008a3d83          	ld	s11,8(s4)
    80002a98:	008b3b83          	ld	s7,8(s6)
    80002a9c:	000b3c03          	ld	s8,0(s6)
    80002aa0:	017a3423          	sd	s7,8(s4)
    80002aa4:	01bb3423          	sd	s11,8(s6)
    80002aa8:	018a3023          	sd	s8,0(s4)
    80002aac:	000b3023          	sd	zero,0(s6)
    80002ab0:	100cc063          	bltz	s9,80002bb0 <core_bench_list+0x224>
    80002ab4:	648c                	ld	a1,8(s1)
    80002ab6:	6822                	ld	a6,8(sp)
    80002ab8:	00259e03          	lh	t3,2(a1)
    80002abc:	010e0b63          	beq	t3,a6,80002ad2 <core_bench_list+0x146>
    80002ac0:	6084                	ld	s1,0(s1)
    80002ac2:	44048c63          	beqz	s1,80002f1a <core_bench_list+0x58e>
    80002ac6:	648c                	ld	a1,8(s1)
    80002ac8:	6822                	ld	a6,8(sp)
    80002aca:	00259e03          	lh	t3,2(a1)
    80002ace:	ff0e19e3          	bne	t3,a6,80002ac0 <core_bench_list+0x134>
    80002ad2:	00843e83          	ld	t4,8(s0)
    80002ad6:	75a2                	ld	a1,40(sp)
    80002ad8:	000e9503          	lh	a0,0(t4)
    80002adc:	df1fe0ef          	jal	800018cc <crc16>
    80002ae0:	6084                	ld	s1,0(s1)
    80002ae2:	f42a                	sd	a0,40(sp)
    80002ae4:	f4fd                	bnez	s1,80002ad2 <core_bench_list+0x146>
    80002ae6:	6004                	ld	s1,0(s0)
    80002ae8:	008b3d83          	ld	s11,8(s6)
    80002aec:	0084bf83          	ld	t6,8(s1)
    80002af0:	609c                	ld	a5,0(s1)
    80002af2:	4f05                	li	t5,1
    80002af4:	01fb3423          	sd	t6,8(s6)
    80002af8:	01b4b423          	sd	s11,8(s1)
    80002afc:	00fb3023          	sd	a5,0(s6)
    80002b00:	0164b023          	sd	s6,0(s1)
    80002b04:	4601                	li	a2,0
    80002b06:	4481                	li	s1,0
    80002b08:	4b81                	li	s7,0
    80002b0a:	4a05                	li	s4,1
    80002b0c:	007f7093          	and	ra,t5,7
    80002b10:	2b85                	addw	s7,s7,1
    80002b12:	8722                	mv	a4,s0
    80002b14:	4a81                	li	s5,0
    80002b16:	04008b63          	beqz	ra,80002b6c <core_bench_list+0x1e0>
    80002b1a:	4285                	li	t0,1
    80002b1c:	04508363          	beq	ra,t0,80002b62 <core_bench_list+0x1d6>
    80002b20:	4889                	li	a7,2
    80002b22:	03108d63          	beq	ra,a7,80002b5c <core_bench_list+0x1d0>
    80002b26:	438d                	li	t2,3
    80002b28:	02708763          	beq	ra,t2,80002b56 <core_bench_list+0x1ca>
    80002b2c:	4691                	li	a3,4
    80002b2e:	02d08163          	beq	ra,a3,80002b50 <core_bench_list+0x1c4>
    80002b32:	4915                	li	s2,5
    80002b34:	01208b63          	beq	ra,s2,80002b4a <core_bench_list+0x1be>
    80002b38:	4999                	li	s3,6
    80002b3a:	01308563          	beq	ra,s3,80002b44 <core_bench_list+0x1b8>
    80002b3e:	6018                	ld	a4,0(s0)
    80002b40:	4a85                	li	s5,1
    80002b42:	cb1d                	beqz	a4,80002b78 <core_bench_list+0x1ec>
    80002b44:	6318                	ld	a4,0(a4)
    80002b46:	2a85                	addw	s5,s5,1
    80002b48:	cb05                	beqz	a4,80002b78 <core_bench_list+0x1ec>
    80002b4a:	6318                	ld	a4,0(a4)
    80002b4c:	2a85                	addw	s5,s5,1
    80002b4e:	c70d                	beqz	a4,80002b78 <core_bench_list+0x1ec>
    80002b50:	6318                	ld	a4,0(a4)
    80002b52:	2a85                	addw	s5,s5,1
    80002b54:	c315                	beqz	a4,80002b78 <core_bench_list+0x1ec>
    80002b56:	6318                	ld	a4,0(a4)
    80002b58:	2a85                	addw	s5,s5,1
    80002b5a:	cf19                	beqz	a4,80002b78 <core_bench_list+0x1ec>
    80002b5c:	6318                	ld	a4,0(a4)
    80002b5e:	2a85                	addw	s5,s5,1
    80002b60:	cf01                	beqz	a4,80002b78 <core_bench_list+0x1ec>
    80002b62:	6318                	ld	a4,0(a4)
    80002b64:	2a85                	addw	s5,s5,1
    80002b66:	cb09                	beqz	a4,80002b78 <core_bench_list+0x1ec>
    80002b68:	01ea8863          	beq	s5,t5,80002b78 <core_bench_list+0x1ec>
    80002b6c:	6318                	ld	a4,0(a4)
    80002b6e:	2a85                	addw	s5,s5,1
    80002b70:	c701                	beqz	a4,80002b78 <core_bench_list+0x1ec>
    80002b72:	6318                	ld	a4,0(a4)
    80002b74:	2a85                	addw	s5,s5,1
    80002b76:	f779                	bnez	a4,80002b44 <core_bench_list+0x1b8>
    80002b78:	85fa                	mv	a1,t5
    80002b7a:	01505c63          	blez	s5,80002b92 <core_bench_list+0x206>
    80002b7e:	e1a1                	bnez	a1,80002bbe <core_bench_list+0x232>
    80002b80:	82a2                	mv	t0,s0
    80002b82:	6000                	ld	s0,0(s0)
    80002b84:	3afd                	addw	s5,s5,-1
    80002b86:	ce19                	beqz	a2,80002ba4 <core_bench_list+0x218>
    80002b88:	00563023          	sd	t0,0(a2)
    80002b8c:	8616                	mv	a2,t0
    80002b8e:	ff5048e3          	bgtz	s5,80002b7e <core_bench_list+0x1f2>
    80002b92:	06b05963          	blez	a1,80002c04 <core_bench_list+0x278>
    80002b96:	cb35                	beqz	a4,80002c0a <core_bench_list+0x27e>
    80002b98:	020a9463          	bnez	s5,80002bc0 <core_bench_list+0x234>
    80002b9c:	82ba                	mv	t0,a4
    80002b9e:	35fd                	addw	a1,a1,-1
    80002ba0:	6318                	ld	a4,0(a4)
    80002ba2:	f27d                	bnez	a2,80002b88 <core_bench_list+0x1fc>
    80002ba4:	8496                	mv	s1,t0
    80002ba6:	8616                	mv	a2,t0
    80002ba8:	b7dd                	j	80002b8e <core_bench_list+0x202>
    80002baa:	6084                	ld	s1,0(s1)
    80002bac:	36048763          	beqz	s1,80002f1a <core_bench_list+0x58e>
    80002bb0:	6490                	ld	a2,8(s1)
    80002bb2:	7d02                	ld	s10,32(sp)
    80002bb4:	00064303          	lbu	t1,0(a2)
    80002bb8:	ffa319e3          	bne	t1,s10,80002baa <core_bench_list+0x21e>
    80002bbc:	bf19                	j	80002ad2 <core_bench_list+0x146>
    80002bbe:	d369                	beqz	a4,80002b80 <core_bench_list+0x1f4>
    80002bc0:	00843c03          	ld	s8,8(s0)
    80002bc4:	00873c83          	ld	s9,8(a4)
    80002bc8:	000c5d03          	lhu	s10,0(s8)
    80002bcc:	002c9303          	lh	t1,2(s9)
    80002bd0:	002c1d83          	lh	s11,2(s8)
    80002bd4:	008d5b13          	srl	s6,s10,0x8
    80002bd8:	008b1e1b          	sllw	t3,s6,0x8
    80002bdc:	01cb6833          	or	a6,s6,t3
    80002be0:	010c1023          	sh	a6,0(s8)
    80002be4:	000cde83          	lhu	t4,0(s9)
    80002be8:	008edf93          	srl	t6,t4,0x8
    80002bec:	008f979b          	sllw	a5,t6,0x8
    80002bf0:	00ffe0b3          	or	ra,t6,a5
    80002bf4:	001c9023          	sh	ra,0(s9)
    80002bf8:	f9b354e3          	bge	t1,s11,80002b80 <core_bench_list+0x1f4>
    80002bfc:	82ba                	mv	t0,a4
    80002bfe:	35fd                	addw	a1,a1,-1
    80002c00:	6318                	ld	a4,0(a4)
    80002c02:	b751                	j	80002b86 <core_bench_list+0x1fa>
    80002c04:	c319                	beqz	a4,80002c0a <core_bench_list+0x27e>
    80002c06:	843a                	mv	s0,a4
    80002c08:	b711                	j	80002b0c <core_bench_list+0x180>
    80002c0a:	00063023          	sd	zero,0(a2)
    80002c0e:	074b8263          	beq	s7,s4,80002c72 <core_bench_list+0x2e6>
    80002c12:	001f1f1b          	sllw	t5,t5,0x1
    80002c16:	c8b9                	beqz	s1,80002c6c <core_bench_list+0x2e0>
    80002c18:	8726                	mv	a4,s1
    80002c1a:	4601                	li	a2,0
    80002c1c:	4481                	li	s1,0
    80002c1e:	4b81                	li	s7,0
    80002c20:	843a                	mv	s0,a4
    80002c22:	b5ed                	j	80002b0c <core_bench_list+0x180>
    80002c24:	32040063          	beqz	s0,80002f44 <core_bench_list+0x5b8>
    80002c28:	82a2                	mv	t0,s0
    80002c2a:	a029                	j	80002c34 <core_bench_list+0x2a8>
    80002c2c:	0002b283          	ld	t0,0(t0)
    80002c30:	da028ee3          	beqz	t0,800029ec <core_bench_list+0x60>
    80002c34:	0082b703          	ld	a4,8(t0)
    80002c38:	7682                	ld	a3,32(sp)
    80002c3a:	00074383          	lbu	t2,0(a4)
    80002c3e:	fe7697e3          	bne	a3,t2,80002c2c <core_bench_list+0x2a0>
    80002c42:	b36d                	j	800029ec <core_bench_list+0x60>
    80002c44:	00043283          	ld	t0,0(s0)
    80002c48:	2885                	addw	a7,a7,1
    80002c4a:	03089713          	sll	a4,a7,0x30
    80002c4e:	0082b383          	ld	t2,8(t0)
    80002c52:	03075893          	srl	a7,a4,0x30
    80002c56:	00138683          	lb	a3,1(t2)
    80002c5a:	0016f493          	and	s1,a3,1
    80002c5e:	01d4893b          	addw	s2,s1,t4
    80002c62:	03091993          	sll	s3,s2,0x30
    80002c66:	0309de93          	srl	t4,s3,0x30
    80002c6a:	b3cd                	j	80002a4c <core_bench_list+0xc0>
    80002c6c:	00003023          	sd	zero,0(zero) # 0 <_tbss_end>
    80002c70:	9002                	ebreak
    80002c72:	6080                	ld	s0,0(s1)
    80002c74:	2c040663          	beqz	s0,80002f40 <core_bench_list+0x5b4>
    80002c78:	6488                	ld	a0,8(s1)
    80002c7a:	75a2                	ld	a1,40(sp)
    80002c7c:	00051503          	lh	a0,0(a0)
    80002c80:	c4dfe0ef          	jal	800018cc <crc16>
    80002c84:	6000                	ld	s0,0(s0)
    80002c86:	f42a                	sd	a0,40(sp)
    80002c88:	f865                	bnez	s0,80002c78 <core_bench_list+0x2ec>
    80002c8a:	60ea                	ld	ra,152(sp)
    80002c8c:	644a                	ld	s0,144(sp)
    80002c8e:	64aa                	ld	s1,136(sp)
    80002c90:	690a                	ld	s2,128(sp)
    80002c92:	79e6                	ld	s3,120(sp)
    80002c94:	7a46                	ld	s4,112(sp)
    80002c96:	7aa6                	ld	s5,104(sp)
    80002c98:	7b06                	ld	s6,96(sp)
    80002c9a:	6be6                	ld	s7,88(sp)
    80002c9c:	6c46                	ld	s8,80(sp)
    80002c9e:	6ca6                	ld	s9,72(sp)
    80002ca0:	6d06                	ld	s10,64(sp)
    80002ca2:	7de2                	ld	s11,56(sp)
    80002ca4:	610d                	add	sp,sp,160
    80002ca6:	8082                	ret
    80002ca8:	4805                	li	a6,1
    80002caa:	040a0e93          	add	t4,s4,64
    80002cae:	e042                	sd	a6,0(sp)
    80002cb0:	4d85                	li	s11,1
    80002cb2:	ec76                	sd	t4,24(sp)
    80002cb4:	dc45                	beqz	s0,80002c6c <core_bench_list+0x2e0>
    80002cb6:	4981                	li	s3,0
    80002cb8:	4d01                	li	s10,0
    80002cba:	e802                	sd	zero,16(sp)
    80002cbc:	67c2                	ld	a5,16(sp)
    80002cbe:	6f02                	ld	t5,0(sp)
    80002cc0:	8b22                	mv	s6,s0
    80002cc2:	0017809b          	addw	ra,a5,1
    80002cc6:	007f7f93          	and	t6,t5,7
    80002cca:	e806                	sd	ra,16(sp)
    80002ccc:	4481                	li	s1,0
    80002cce:	060f8a63          	beqz	t6,80002d42 <core_bench_list+0x3b6>
    80002cd2:	4505                	li	a0,1
    80002cd4:	04af8f63          	beq	t6,a0,80002d32 <core_bench_list+0x3a6>
    80002cd8:	4289                	li	t0,2
    80002cda:	045f8763          	beq	t6,t0,80002d28 <core_bench_list+0x39c>
    80002cde:	488d                	li	a7,3
    80002ce0:	031f8f63          	beq	t6,a7,80002d1e <core_bench_list+0x392>
    80002ce4:	4711                	li	a4,4
    80002ce6:	02ef8763          	beq	t6,a4,80002d14 <core_bench_list+0x388>
    80002cea:	4395                	li	t2,5
    80002cec:	007f8f63          	beq	t6,t2,80002d0a <core_bench_list+0x37e>
    80002cf0:	4699                	li	a3,6
    80002cf2:	00df8763          	beq	t6,a3,80002d00 <core_bench_list+0x374>
    80002cf6:	00043b03          	ld	s6,0(s0)
    80002cfa:	4485                	li	s1,1
    80002cfc:	040b0d63          	beqz	s6,80002d56 <core_bench_list+0x3ca>
    80002d00:	000b3b03          	ld	s6,0(s6)
    80002d04:	2485                	addw	s1,s1,1
    80002d06:	040b0863          	beqz	s6,80002d56 <core_bench_list+0x3ca>
    80002d0a:	000b3b03          	ld	s6,0(s6)
    80002d0e:	2485                	addw	s1,s1,1
    80002d10:	040b0363          	beqz	s6,80002d56 <core_bench_list+0x3ca>
    80002d14:	000b3b03          	ld	s6,0(s6)
    80002d18:	2485                	addw	s1,s1,1
    80002d1a:	020b0e63          	beqz	s6,80002d56 <core_bench_list+0x3ca>
    80002d1e:	000b3b03          	ld	s6,0(s6)
    80002d22:	2485                	addw	s1,s1,1
    80002d24:	020b0963          	beqz	s6,80002d56 <core_bench_list+0x3ca>
    80002d28:	000b3b03          	ld	s6,0(s6)
    80002d2c:	2485                	addw	s1,s1,1
    80002d2e:	020b0463          	beqz	s6,80002d56 <core_bench_list+0x3ca>
    80002d32:	000b3b03          	ld	s6,0(s6)
    80002d36:	2485                	addw	s1,s1,1
    80002d38:	000b0f63          	beqz	s6,80002d56 <core_bench_list+0x3ca>
    80002d3c:	6902                	ld	s2,0(sp)
    80002d3e:	01248c63          	beq	s1,s2,80002d56 <core_bench_list+0x3ca>
    80002d42:	000b3b03          	ld	s6,0(s6)
    80002d46:	2485                	addw	s1,s1,1
    80002d48:	000b0763          	beqz	s6,80002d56 <core_bench_list+0x3ca>
    80002d4c:	000b3b03          	ld	s6,0(s6)
    80002d50:	2485                	addw	s1,s1,1
    80002d52:	fa0b17e3          	bnez	s6,80002d00 <core_bench_list+0x374>
    80002d56:	8922                	mv	s2,s0
    80002d58:	6a82                	ld	s5,0(sp)
    80002d5a:	845a                	mv	s0,s6
    80002d5c:	00905f63          	blez	s1,80002d7a <core_bench_list+0x3ee>
    80002d60:	020a9a63          	bnez	s5,80002d94 <core_bench_list+0x408>
    80002d64:	8c4a                	mv	s8,s2
    80002d66:	00093903          	ld	s2,0(s2)
    80002d6a:	34fd                	addw	s1,s1,-1
    80002d6c:	02098163          	beqz	s3,80002d8e <core_bench_list+0x402>
    80002d70:	0189b023          	sd	s8,0(s3)
    80002d74:	89e2                	mv	s3,s8
    80002d76:	fe9045e3          	bgtz	s1,80002d60 <core_bench_list+0x3d4>
    80002d7a:	19505363          	blez	s5,80002f00 <core_bench_list+0x574>
    80002d7e:	18040363          	beqz	s0,80002f04 <core_bench_list+0x578>
    80002d82:	e891                	bnez	s1,80002d96 <core_bench_list+0x40a>
    80002d84:	8c22                	mv	s8,s0
    80002d86:	3afd                	addw	s5,s5,-1
    80002d88:	6000                	ld	s0,0(s0)
    80002d8a:	fe0993e3          	bnez	s3,80002d70 <core_bench_list+0x3e4>
    80002d8e:	8d62                	mv	s10,s8
    80002d90:	89e2                	mv	s3,s8
    80002d92:	b7d5                	j	80002d76 <core_bench_list+0x3ea>
    80002d94:	d861                	beqz	s0,80002d64 <core_bench_list+0x3d8>
    80002d96:	00893c83          	ld	s9,8(s2)
    80002d9a:	00843c03          	ld	s8,8(s0)
    80002d9e:	000c9b03          	lh	s6,0(s9)
    80002da2:	080b7893          	and	a7,s6,128
    80002da6:	07fb7b93          	and	s7,s6,127
    80002daa:	04089563          	bnez	a7,80002df4 <core_bench_list+0x468>
    80002dae:	403b539b          	sraw	t2,s6,0x3
    80002db2:	00f3f693          	and	a3,t2,15
    80002db6:	00469f13          	sll	t5,a3,0x4
    80002dba:	007b7713          	and	a4,s6,7
    80002dbe:	060a5783          	lhu	a5,96(s4)
    80002dc2:	01e6e5b3          	or	a1,a3,t5
    80002dc6:	cb55                	beqz	a4,80002e7a <core_bench_list+0x4ee>
    80002dc8:	09b70863          	beq	a4,s11,80002e58 <core_bench_list+0x4cc>
    80002dcc:	030b1e93          	sll	t4,s6,0x30
    80002dd0:	030ed513          	srl	a0,t4,0x30
    80002dd4:	8bda                	mv	s7,s6
    80002dd6:	85be                	mv	a1,a5
    80002dd8:	beafe0ef          	jal	800011c2 <crcu16>
    80002ddc:	07fbfb93          	and	s7,s7,127
    80002de0:	f00b7f93          	and	t6,s6,-256
    80002de4:	01fbe7b3          	or	a5,s7,t6
    80002de8:	06aa1023          	sh	a0,96(s4)
    80002dec:	0807e293          	or	t0,a5,128
    80002df0:	005c9023          	sh	t0,0(s9)
    80002df4:	000c1b03          	lh	s6,0(s8)
    80002df8:	080b7093          	and	ra,s6,128
    80002dfc:	00008a63          	beqz	ra,80002e10 <core_bench_list+0x484>
    80002e00:	07fb7e13          	and	t3,s6,127
    80002e04:	f77e50e3          	bge	t3,s7,80002d64 <core_bench_list+0x3d8>
    80002e08:	8c22                	mv	s8,s0
    80002e0a:	3afd                	addw	s5,s5,-1
    80002e0c:	6000                	ld	s0,0(s0)
    80002e0e:	bfb9                	j	80002d6c <core_bench_list+0x3e0>
    80002e10:	403b559b          	sraw	a1,s6,0x3
    80002e14:	00f5fc93          	and	s9,a1,15
    80002e18:	004c9613          	sll	a2,s9,0x4
    80002e1c:	007b7893          	and	a7,s6,7
    80002e20:	060a5783          	lhu	a5,96(s4)
    80002e24:	00cce5b3          	or	a1,s9,a2
    80002e28:	0a088363          	beqz	a7,80002ece <core_bench_list+0x542>
    80002e2c:	09b88163          	beq	a7,s11,80002eae <core_bench_list+0x522>
    80002e30:	030b1513          	sll	a0,s6,0x30
    80002e34:	9141                	srl	a0,a0,0x30
    80002e36:	8cda                	mv	s9,s6
    80002e38:	85be                	mv	a1,a5
    80002e3a:	b88fe0ef          	jal	800011c2 <crcu16>
    80002e3e:	07fcfe13          	and	t3,s9,127
    80002e42:	f00b7813          	and	a6,s6,-256
    80002e46:	010e6eb3          	or	t4,t3,a6
    80002e4a:	06aa1023          	sh	a0,96(s4)
    80002e4e:	080eef93          	or	t6,t4,128
    80002e52:	01fc1023          	sh	t6,0(s8)
    80002e56:	b77d                	j	80002e04 <core_bench_list+0x478>
    80002e58:	6562                	ld	a0,24(sp)
    80002e5a:	863e                	mv	a2,a5
    80002e5c:	664000ef          	jal	800034c0 <core_bench_matrix>
    80002e60:	064a5e03          	lhu	t3,100(s4)
    80002e64:	000e1463          	bnez	t3,80002e6c <core_bench_list+0x4e0>
    80002e68:	06aa1223          	sh	a0,100(s4)
    80002e6c:	0105181b          	sllw	a6,a0,0x10
    80002e70:	060a5783          	lhu	a5,96(s4)
    80002e74:	41085b9b          	sraw	s7,a6,0x10
    80002e78:	bfb9                	j	80002dd6 <core_bench_list+0x44a>
    80002e7a:	02200513          	li	a0,34
    80002e7e:	8bae                	mv	s7,a1
    80002e80:	00a5d463          	bge	a1,a0,80002e88 <core_bench_list+0x4fc>
    80002e84:	02200b93          	li	s7,34
    80002e88:	002a1683          	lh	a3,2(s4)
    80002e8c:	000a1603          	lh	a2,0(s4)
    80002e90:	020a3583          	ld	a1,32(s4)
    80002e94:	028a2503          	lw	a0,40(s4)
    80002e98:	0ffbf713          	zext.b	a4,s7
    80002e9c:	c8bfe0ef          	jal	80001b26 <core_bench_state>
    80002ea0:	066a5303          	lhu	t1,102(s4)
    80002ea4:	fc0314e3          	bnez	t1,80002e6c <core_bench_list+0x4e0>
    80002ea8:	06aa1323          	sh	a0,102(s4)
    80002eac:	b7c1                	j	80002e6c <core_bench_list+0x4e0>
    80002eae:	6562                	ld	a0,24(sp)
    80002eb0:	863e                	mv	a2,a5
    80002eb2:	60e000ef          	jal	800034c0 <core_bench_matrix>
    80002eb6:	064a5703          	lhu	a4,100(s4)
    80002eba:	e319                	bnez	a4,80002ec0 <core_bench_list+0x534>
    80002ebc:	06aa1223          	sh	a0,100(s4)
    80002ec0:	0105131b          	sllw	t1,a0,0x10
    80002ec4:	060a5783          	lhu	a5,96(s4)
    80002ec8:	41035c9b          	sraw	s9,t1,0x10
    80002ecc:	b7b5                	j	80002e38 <core_bench_list+0x4ac>
    80002ece:	02200393          	li	t2,34
    80002ed2:	8f2e                	mv	t5,a1
    80002ed4:	0075d463          	bge	a1,t2,80002edc <core_bench_list+0x550>
    80002ed8:	02200f13          	li	t5,34
    80002edc:	002a1683          	lh	a3,2(s4)
    80002ee0:	000a1603          	lh	a2,0(s4)
    80002ee4:	020a3583          	ld	a1,32(s4)
    80002ee8:	028a2503          	lw	a0,40(s4)
    80002eec:	0fff7713          	zext.b	a4,t5
    80002ef0:	c37fe0ef          	jal	80001b26 <core_bench_state>
    80002ef4:	066a5683          	lhu	a3,102(s4)
    80002ef8:	f6e1                	bnez	a3,80002ec0 <core_bench_list+0x534>
    80002efa:	06aa1323          	sh	a0,102(s4)
    80002efe:	b7c9                	j	80002ec0 <core_bench_list+0x534>
    80002f00:	da041ee3          	bnez	s0,80002cbc <core_bench_list+0x330>
    80002f04:	6442                	ld	s0,16(sp)
    80002f06:	0009b023          	sd	zero,0(s3)
    80002f0a:	03b40763          	beq	s0,s11,80002f38 <core_bench_list+0x5ac>
    80002f0e:	6982                	ld	s3,0(sp)
    80002f10:	846a                	mv	s0,s10
    80002f12:	00199a9b          	sllw	s5,s3,0x1
    80002f16:	e056                	sd	s5,0(sp)
    80002f18:	bb71                	j	80002cb4 <core_bench_list+0x328>
    80002f1a:	6004                	ld	s1,0(s0)
    80002f1c:	bc0488e3          	beqz	s1,80002aec <core_bench_list+0x160>
    80002f20:	00843e83          	ld	t4,8(s0)
    80002f24:	75a2                	ld	a1,40(sp)
    80002f26:	000e9503          	lh	a0,0(t4)
    80002f2a:	9a3fe0ef          	jal	800018cc <crc16>
    80002f2e:	6084                	ld	s1,0(s1)
    80002f30:	f42a                	sd	a0,40(sp)
    80002f32:	ba0490e3          	bnez	s1,80002ad2 <core_bench_list+0x146>
    80002f36:	be45                	j	80002ae6 <core_bench_list+0x15a>
    80002f38:	846a                	mv	s0,s10
    80002f3a:	b6b9                	j	80002a88 <core_bench_list+0xfc>
    80002f3c:	f402                	sd	zero,40(sp)
    80002f3e:	b699                	j	80002a84 <core_bench_list+0xf8>
    80002f40:	7522                	ld	a0,40(sp)
    80002f42:	b3a1                	j	80002c8a <core_bench_list+0x2fe>
    80002f44:	00003783          	ld	a5,0(zero) # 0 <_tbss_end>
    80002f48:	9002                	ebreak

0000000080002f4a <core_list_init>:
core_list_init():
    80002f4a:	47d1                	li	a5,20
    80002f4c:	02f556bb          	divuw	a3,a0,a5
    80002f50:	1141                	add	sp,sp,-16
    80002f52:	e422                	sd	s0,8(sp)
    80002f54:	8f32                	mv	t5,a2
    80002f56:	0005b023          	sd	zero,0(a1)
    80002f5a:	872e                	mv	a4,a1
    80002f5c:	7ee1                	lui	t4,0xffff8
    80002f5e:	02058513          	add	a0,a1,32
    80002f62:	01058793          	add	a5,a1,16
    80002f66:	080e8813          	add	a6,t4,128 # ffffffffffff8080 <__global_pointer$+0xffffffff7ffee698>
    80002f6a:	ffe6831b          	addw	t1,a3,-2
    80002f6e:	02031293          	sll	t0,t1,0x20
    80002f72:	0202d393          	srl	t2,t0,0x20
    80002f76:	00439613          	sll	a2,t2,0x4
    80002f7a:	95b2                	add	a1,a1,a2
    80002f7c:	e70c                	sd	a1,8(a4)
    80002f7e:	00239413          	sll	s0,t2,0x2
    80002f82:	01059023          	sh	a6,0(a1)
    80002f86:	00059123          	sh	zero,2(a1)
    80002f8a:	0003081b          	sext.w	a6,t1
    80002f8e:	008588b3          	add	a7,a1,s0
    80002f92:	00458693          	add	a3,a1,4
    80002f96:	28b57b63          	bgeu	a0,a1,8000322c <core_list_init+0x2e2>
    80002f9a:	00858e13          	add	t3,a1,8
    80002f9e:	291e7763          	bgeu	t3,a7,8000322c <core_list_init+0x2e2>
    80002fa2:	e31c                	sd	a5,0(a4)
    80002fa4:	ef14                	sd	a3,24(a4)
    80002fa6:	00073823          	sd	zero,16(a4)
    80002faa:	fffec693          	not	a3,t4
    80002fae:	5ffd                	li	t6,-1
    80002fb0:	863e                	mv	a2,a5
    80002fb2:	00d59323          	sh	a3,6(a1)
    80002fb6:	01f59223          	sh	t6,4(a1)
    80002fba:	86f2                	mv	a3,t3
    80002fbc:	87aa                	mv	a5,a0
    80002fbe:	0a080a63          	beqz	a6,80003072 <core_list_init+0x128>
    80002fc2:	030f1513          	sll	a0,t5,0x30
    80002fc6:	7ee1                	lui	t4,0xffff8
    80002fc8:	00187293          	and	t0,a6,1
    80002fcc:	03055e13          	srl	t3,a0,0x30
    80002fd0:	fffece93          	not	t4,t4
    80002fd4:	4501                	li	a0,0
    80002fd6:	20029c63          	bnez	t0,800031ee <core_list_init+0x2a4>
    80002fda:	01078f93          	add	t6,a5,16
    80002fde:	08bffa63          	bgeu	t6,a1,80003072 <core_list_init+0x128>
    80002fe2:	00468293          	add	t0,a3,4
    80002fe6:	0312fe63          	bgeu	t0,a7,80003022 <core_list_init+0xd8>
    80002fea:	03051393          	sll	t2,a0,0x30
    80002fee:	0303d393          	srl	t2,t2,0x30
    80002ff2:	007e4433          	xor	s0,t3,t2
    80002ff6:	0034141b          	sllw	s0,s0,0x3
    80002ffa:	07847413          	and	s0,s0,120
    80002ffe:	0073f393          	and	t2,t2,7
    80003002:	e390                	sd	a2,0(a5)
    80003004:	00746633          	or	a2,s0,t2
    80003008:	e31c                	sd	a5,0(a4)
    8000300a:	0086141b          	sllw	s0,a2,0x8
    8000300e:	e794                	sd	a3,8(a5)
    80003010:	008663b3          	or	t2,a2,s0
    80003014:	00769023          	sh	t2,0(a3)
    80003018:	01d69123          	sh	t4,2(a3)
    8000301c:	863e                	mv	a2,a5
    8000301e:	8696                	mv	a3,t0
    80003020:	87fe                	mv	a5,t6
    80003022:	01078f93          	add	t6,a5,16
    80003026:	2505                	addw	a0,a0,1
    80003028:	04bff563          	bgeu	t6,a1,80003072 <core_list_init+0x128>
    8000302c:	00468293          	add	t0,a3,4
    80003030:	0312fe63          	bgeu	t0,a7,8000306c <core_list_init+0x122>
    80003034:	03051413          	sll	s0,a0,0x30
    80003038:	03045393          	srl	t2,s0,0x30
    8000303c:	007e4433          	xor	s0,t3,t2
    80003040:	0034141b          	sllw	s0,s0,0x3
    80003044:	07847413          	and	s0,s0,120
    80003048:	0073f393          	and	t2,t2,7
    8000304c:	e390                	sd	a2,0(a5)
    8000304e:	00746633          	or	a2,s0,t2
    80003052:	e31c                	sd	a5,0(a4)
    80003054:	0086141b          	sllw	s0,a2,0x8
    80003058:	e794                	sd	a3,8(a5)
    8000305a:	008663b3          	or	t2,a2,s0
    8000305e:	00769023          	sh	t2,0(a3)
    80003062:	01d69123          	sh	t4,2(a3)
    80003066:	863e                	mv	a2,a5
    80003068:	8696                	mv	a3,t0
    8000306a:	87fe                	mv	a5,t6
    8000306c:	2505                	addw	a0,a0,1
    8000306e:	f6a816e3          	bne	a6,a0,80002fda <core_list_init+0x90>
    80003072:	6214                	ld	a3,0(a2)
    80003074:	ceb9                	beqz	a3,800030d2 <core_list_init+0x188>
    80003076:	4595                	li	a1,5
    80003078:	02b3583b          	divuw	a6,t1,a1
    8000307c:	6311                	lui	t1,0x4
    8000307e:	20000593          	li	a1,512
    80003082:	4785                	li	a5,1
    80003084:	fff30e13          	add	t3,t1,-1 # 3fff <_tbss_end+0x3fff>
    80003088:	a831                	j	800030a4 <core_list_init+0x15a>
    8000308a:	6280                	ld	s0,0(a3)
    8000308c:	1005831b          	addw	t1,a1,256
    80003090:	00fe9123          	sh	a5,2(t4) # ffffffffffff8002 <__global_pointer$+0xffffffff7ffee61a>
    80003094:	03031e93          	sll	t4,t1,0x30
    80003098:	2785                	addw	a5,a5,1
    8000309a:	030ed593          	srl	a1,t4,0x30
    8000309e:	c815                	beqz	s0,800030d2 <core_list_init+0x188>
    800030a0:	8636                	mv	a2,a3
    800030a2:	86a2                	mv	a3,s0
    800030a4:	00863e83          	ld	t4,8(a2)
    800030a8:	ff07e1e3          	bltu	a5,a6,8000308a <core_list_init+0x140>
    800030ac:	01e7c8b3          	xor	a7,a5,t5
    800030b0:	7005ff93          	and	t6,a1,1792
    800030b4:	6280                	ld	s0,0(a3)
    800030b6:	01f8e2b3          	or	t0,a7,t6
    800030ba:	1005861b          	addw	a2,a1,256
    800030be:	01c2f3b3          	and	t2,t0,t3
    800030c2:	03061513          	sll	a0,a2,0x30
    800030c6:	007e9123          	sh	t2,2(t4)
    800030ca:	2785                	addw	a5,a5,1
    800030cc:	03055593          	srl	a1,a0,0x30
    800030d0:	f861                	bnez	s0,800030a0 <core_list_init+0x156>
    800030d2:	4f85                	li	t6,1
    800030d4:	4801                	li	a6,0
    800030d6:	4501                	li	a0,0
    800030d8:	4281                	li	t0,0
    800030da:	4385                	li	t2,1
    800030dc:	007fff13          	and	t5,t6,7
    800030e0:	2285                	addw	t0,t0,1
    800030e2:	87ba                	mv	a5,a4
    800030e4:	4681                	li	a3,0
    800030e6:	040f0b63          	beqz	t5,8000313c <core_list_init+0x1f2>
    800030ea:	4e05                	li	t3,1
    800030ec:	05cf0363          	beq	t5,t3,80003132 <core_list_init+0x1e8>
    800030f0:	4889                	li	a7,2
    800030f2:	031f0d63          	beq	t5,a7,8000312c <core_list_init+0x1e2>
    800030f6:	440d                	li	s0,3
    800030f8:	028f0763          	beq	t5,s0,80003126 <core_list_init+0x1dc>
    800030fc:	4611                	li	a2,4
    800030fe:	02cf0163          	beq	t5,a2,80003120 <core_list_init+0x1d6>
    80003102:	4595                	li	a1,5
    80003104:	00bf0b63          	beq	t5,a1,8000311a <core_list_init+0x1d0>
    80003108:	4319                	li	t1,6
    8000310a:	006f0563          	beq	t5,t1,80003114 <core_list_init+0x1ca>
    8000310e:	631c                	ld	a5,0(a4)
    80003110:	4685                	li	a3,1
    80003112:	cb9d                	beqz	a5,80003148 <core_list_init+0x1fe>
    80003114:	639c                	ld	a5,0(a5)
    80003116:	2685                	addw	a3,a3,1
    80003118:	cb85                	beqz	a5,80003148 <core_list_init+0x1fe>
    8000311a:	639c                	ld	a5,0(a5)
    8000311c:	2685                	addw	a3,a3,1
    8000311e:	c78d                	beqz	a5,80003148 <core_list_init+0x1fe>
    80003120:	639c                	ld	a5,0(a5)
    80003122:	2685                	addw	a3,a3,1
    80003124:	c395                	beqz	a5,80003148 <core_list_init+0x1fe>
    80003126:	639c                	ld	a5,0(a5)
    80003128:	2685                	addw	a3,a3,1
    8000312a:	cf99                	beqz	a5,80003148 <core_list_init+0x1fe>
    8000312c:	639c                	ld	a5,0(a5)
    8000312e:	2685                	addw	a3,a3,1
    80003130:	cf81                	beqz	a5,80003148 <core_list_init+0x1fe>
    80003132:	639c                	ld	a5,0(a5)
    80003134:	2685                	addw	a3,a3,1
    80003136:	cb89                	beqz	a5,80003148 <core_list_init+0x1fe>
    80003138:	01f68863          	beq	a3,t6,80003148 <core_list_init+0x1fe>
    8000313c:	639c                	ld	a5,0(a5)
    8000313e:	2685                	addw	a3,a3,1
    80003140:	c781                	beqz	a5,80003148 <core_list_init+0x1fe>
    80003142:	639c                	ld	a5,0(a5)
    80003144:	2685                	addw	a3,a3,1
    80003146:	f7f9                	bnez	a5,80003114 <core_list_init+0x1ca>
    80003148:	867e                	mv	a2,t6
    8000314a:	00d05d63          	blez	a3,80003164 <core_list_init+0x21a>
    8000314e:	e61d                	bnez	a2,8000317c <core_list_init+0x232>
    80003150:	6300                	ld	s0,0(a4)
    80003152:	36fd                	addw	a3,a3,-1
    80003154:	02080263          	beqz	a6,80003178 <core_list_init+0x22e>
    80003158:	00e83023          	sd	a4,0(a6)
    8000315c:	883a                	mv	a6,a4
    8000315e:	8722                	mv	a4,s0
    80003160:	fed047e3          	bgtz	a3,8000314e <core_list_init+0x204>
    80003164:	04c05f63          	blez	a2,800031c2 <core_list_init+0x278>
    80003168:	c3a5                	beqz	a5,800031c8 <core_list_init+0x27e>
    8000316a:	ea91                	bnez	a3,8000317e <core_list_init+0x234>
    8000316c:	843a                	mv	s0,a4
    8000316e:	367d                	addw	a2,a2,-1
    80003170:	873e                	mv	a4,a5
    80003172:	639c                	ld	a5,0(a5)
    80003174:	fe0812e3          	bnez	a6,80003158 <core_list_init+0x20e>
    80003178:	853a                	mv	a0,a4
    8000317a:	b7cd                	j	8000315c <core_list_init+0x212>
    8000317c:	dbf1                	beqz	a5,80003150 <core_list_init+0x206>
    8000317e:	00873883          	ld	a7,8(a4)
    80003182:	6780                	ld	s0,8(a5)
    80003184:	0008df03          	lhu	t5,0(a7)
    80003188:	00241e03          	lh	t3,2(s0)
    8000318c:	00289e83          	lh	t4,2(a7)
    80003190:	008f5593          	srl	a1,t5,0x8
    80003194:	0085931b          	sllw	t1,a1,0x8
    80003198:	0065ef33          	or	t5,a1,t1
    8000319c:	01e89023          	sh	t5,0(a7)
    800031a0:	00045883          	lhu	a7,0(s0)
    800031a4:	0088d593          	srl	a1,a7,0x8
    800031a8:	0085931b          	sllw	t1,a1,0x8
    800031ac:	0065ef33          	or	t5,a1,t1
    800031b0:	01e41023          	sh	t5,0(s0)
    800031b4:	f9de5ee3          	bge	t3,t4,80003150 <core_list_init+0x206>
    800031b8:	843a                	mv	s0,a4
    800031ba:	367d                	addw	a2,a2,-1
    800031bc:	873e                	mv	a4,a5
    800031be:	639c                	ld	a5,0(a5)
    800031c0:	bf51                	j	80003154 <core_list_init+0x20a>
    800031c2:	c399                	beqz	a5,800031c8 <core_list_init+0x27e>
    800031c4:	873e                	mv	a4,a5
    800031c6:	bf19                	j	800030dc <core_list_init+0x192>
    800031c8:	00083023          	sd	zero,0(a6)
    800031cc:	00728b63          	beq	t0,t2,800031e2 <core_list_init+0x298>
    800031d0:	001f9f9b          	sllw	t6,t6,0x1
    800031d4:	c911                	beqz	a0,800031e8 <core_list_init+0x29e>
    800031d6:	87aa                	mv	a5,a0
    800031d8:	4801                	li	a6,0
    800031da:	4501                	li	a0,0
    800031dc:	4281                	li	t0,0
    800031de:	873e                	mv	a4,a5
    800031e0:	bdf5                	j	800030dc <core_list_init+0x192>
    800031e2:	6422                	ld	s0,8(sp)
    800031e4:	0141                	add	sp,sp,16
    800031e6:	8082                	ret
    800031e8:	00003023          	sd	zero,0(zero) # 0 <_tbss_end>
    800031ec:	9002                	ebreak
    800031ee:	01078393          	add	t2,a5,16
    800031f2:	e8b3f0e3          	bgeu	t2,a1,80003072 <core_list_init+0x128>
    800031f6:	00468413          	add	s0,a3,4
    800031fa:	03147563          	bgeu	s0,a7,80003224 <core_list_init+0x2da>
    800031fe:	003e1f9b          	sllw	t6,t3,0x3
    80003202:	e390                	sd	a2,0(a5)
    80003204:	867e                	mv	a2,t6
    80003206:	07867513          	and	a0,a2,120
    8000320a:	e31c                	sd	a5,0(a4)
    8000320c:	0085129b          	sllw	t0,a0,0x8
    80003210:	e794                	sd	a3,8(a5)
    80003212:	00556fb3          	or	t6,a0,t0
    80003216:	01f69023          	sh	t6,0(a3)
    8000321a:	01d69123          	sh	t4,2(a3)
    8000321e:	863e                	mv	a2,a5
    80003220:	86a2                	mv	a3,s0
    80003222:	879e                	mv	a5,t2
    80003224:	4505                	li	a0,1
    80003226:	daa81ae3          	bne	a6,a0,80002fda <core_list_init+0x90>
    8000322a:	b5a1                	j	80003072 <core_list_init+0x128>
    8000322c:	4601                	li	a2,0
    8000322e:	bb41                	j	80002fbe <core_list_init+0x74>

0000000080003230 <core_list_insert_new>:
core_list_insert_new():
    80003230:	00063803          	ld	a6,0(a2)
    80003234:	833e                	mv	t1,a5
    80003236:	01080893          	add	a7,a6,16
    8000323a:	04e8f163          	bgeu	a7,a4,8000327c <core_list_insert_new+0x4c>
    8000323e:	629c                	ld	a5,0(a3)
    80003240:	00478713          	add	a4,a5,4
    80003244:	02677c63          	bgeu	a4,t1,8000327c <core_list_insert_new+0x4c>
    80003248:	01163023          	sd	a7,0(a2)
    8000324c:	00053283          	ld	t0,0(a0)
    80003250:	00059603          	lh	a2,0(a1)
    80003254:	00259383          	lh	t2,2(a1)
    80003258:	00583023          	sd	t0,0(a6)
    8000325c:	01053023          	sd	a6,0(a0)
    80003260:	00f83423          	sd	a5,8(a6)
    80003264:	6288                	ld	a0,0(a3)
    80003266:	00450593          	add	a1,a0,4
    8000326a:	e28c                	sd	a1,0(a3)
    8000326c:	00883683          	ld	a3,8(a6)
    80003270:	8542                	mv	a0,a6
    80003272:	00c69023          	sh	a2,0(a3)
    80003276:	00769123          	sh	t2,2(a3)
    8000327a:	8082                	ret
    8000327c:	4801                	li	a6,0
    8000327e:	8542                	mv	a0,a6
    80003280:	8082                	ret

0000000080003282 <core_list_remove>:
core_list_remove():
    80003282:	87aa                	mv	a5,a0
    80003284:	6108                	ld	a0,0(a0)
    80003286:	6794                	ld	a3,8(a5)
    80003288:	6510                	ld	a2,8(a0)
    8000328a:	6118                	ld	a4,0(a0)
    8000328c:	e790                	sd	a2,8(a5)
    8000328e:	e514                	sd	a3,8(a0)
    80003290:	e398                	sd	a4,0(a5)
    80003292:	00053023          	sd	zero,0(a0)
    80003296:	8082                	ret

0000000080003298 <core_list_undo_remove>:
core_list_undo_remove():
    80003298:	6590                	ld	a2,8(a1)
    8000329a:	6514                	ld	a3,8(a0)
    8000329c:	6198                	ld	a4,0(a1)
    8000329e:	e510                	sd	a2,8(a0)
    800032a0:	e594                	sd	a3,8(a1)
    800032a2:	e118                	sd	a4,0(a0)
    800032a4:	e188                	sd	a0,0(a1)
    800032a6:	8082                	ret

00000000800032a8 <core_list_find>:
core_list_find():
    800032a8:	00259603          	lh	a2,2(a1)
    800032ac:	00064d63          	bltz	a2,800032c6 <core_list_find+0x1e>
    800032b0:	e501                	bnez	a0,800032b8 <core_list_find+0x10>
    800032b2:	a80d                	j	800032e4 <core_list_find+0x3c>
    800032b4:	6108                	ld	a0,0(a0)
    800032b6:	c50d                	beqz	a0,800032e0 <core_list_find+0x38>
    800032b8:	00853383          	ld	t2,8(a0)
    800032bc:	00239583          	lh	a1,2(t2)
    800032c0:	fec59ae3          	bne	a1,a2,800032b4 <core_list_find+0xc>
    800032c4:	8082                	ret
    800032c6:	cd09                	beqz	a0,800032e0 <core_list_find+0x38>
    800032c8:	00059703          	lh	a4,0(a1)
    800032cc:	a019                	j	800032d2 <core_list_find+0x2a>
    800032ce:	6108                	ld	a0,0(a0)
    800032d0:	c909                	beqz	a0,800032e2 <core_list_find+0x3a>
    800032d2:	00853283          	ld	t0,8(a0)
    800032d6:	0002c303          	lbu	t1,0(t0)
    800032da:	fee31ae3          	bne	t1,a4,800032ce <core_list_find+0x26>
    800032de:	8082                	ret
    800032e0:	4501                	li	a0,0
    800032e2:	8082                	ret
    800032e4:	8082                	ret

00000000800032e6 <core_list_reverse>:
core_list_reverse():
    800032e6:	c901                	beqz	a0,800032f6 <core_list_reverse+0x10>
    800032e8:	4701                	li	a4,0
    800032ea:	a011                	j	800032ee <core_list_reverse+0x8>
    800032ec:	853e                	mv	a0,a5
    800032ee:	611c                	ld	a5,0(a0)
    800032f0:	e118                	sd	a4,0(a0)
    800032f2:	872a                	mv	a4,a0
    800032f4:	ffe5                	bnez	a5,800032ec <core_list_reverse+0x6>
    800032f6:	8082                	ret

00000000800032f8 <core_list_mergesort>:
core_list_mergesort():
    800032f8:	711d                	add	sp,sp,-96
    800032fa:	e4a6                	sd	s1,72(sp)
    800032fc:	f05a                	sd	s6,32(sp)
    800032fe:	ec5e                	sd	s7,24(sp)
    80003300:	e466                	sd	s9,8(sp)
    80003302:	e06a                	sd	s10,0(sp)
    80003304:	ec86                	sd	ra,88(sp)
    80003306:	e8a2                	sd	s0,80(sp)
    80003308:	e0ca                	sd	s2,64(sp)
    8000330a:	fc4e                	sd	s3,56(sp)
    8000330c:	f852                	sd	s4,48(sp)
    8000330e:	f456                	sd	s5,40(sp)
    80003310:	e862                	sd	s8,16(sp)
    80003312:	84aa                	mv	s1,a0
    80003314:	8b2e                	mv	s6,a1
    80003316:	8cb2                	mv	s9,a2
    80003318:	4b85                	li	s7,1
    8000331a:	4d05                	li	s10,1
    8000331c:	cce1                	beqz	s1,800033f4 <core_list_mergesort+0xfc>
    8000331e:	4c01                	li	s8,0
    80003320:	4981                	li	s3,0
    80003322:	4a81                	li	s5,0
    80003324:	007bf713          	and	a4,s7,7
    80003328:	2c05                	addw	s8,s8,1
    8000332a:	87a6                	mv	a5,s1
    8000332c:	4401                	li	s0,0
    8000332e:	cb31                	beqz	a4,80003382 <core_list_mergesort+0x8a>
    80003330:	4685                	li	a3,1
    80003332:	04d70363          	beq	a4,a3,80003378 <core_list_mergesort+0x80>
    80003336:	4089                	li	ra,2
    80003338:	02170d63          	beq	a4,ra,80003372 <core_list_mergesort+0x7a>
    8000333c:	428d                	li	t0,3
    8000333e:	02570763          	beq	a4,t0,8000336c <core_list_mergesort+0x74>
    80003342:	4311                	li	t1,4
    80003344:	02670163          	beq	a4,t1,80003366 <core_list_mergesort+0x6e>
    80003348:	4395                	li	t2,5
    8000334a:	00770b63          	beq	a4,t2,80003360 <core_list_mergesort+0x68>
    8000334e:	4519                	li	a0,6
    80003350:	00a70563          	beq	a4,a0,8000335a <core_list_mergesort+0x62>
    80003354:	609c                	ld	a5,0(s1)
    80003356:	4405                	li	s0,1
    80003358:	cb9d                	beqz	a5,8000338e <core_list_mergesort+0x96>
    8000335a:	639c                	ld	a5,0(a5)
    8000335c:	2405                	addw	s0,s0,1
    8000335e:	cb85                	beqz	a5,8000338e <core_list_mergesort+0x96>
    80003360:	639c                	ld	a5,0(a5)
    80003362:	2405                	addw	s0,s0,1
    80003364:	c78d                	beqz	a5,8000338e <core_list_mergesort+0x96>
    80003366:	639c                	ld	a5,0(a5)
    80003368:	2405                	addw	s0,s0,1
    8000336a:	c395                	beqz	a5,8000338e <core_list_mergesort+0x96>
    8000336c:	639c                	ld	a5,0(a5)
    8000336e:	2405                	addw	s0,s0,1
    80003370:	cf99                	beqz	a5,8000338e <core_list_mergesort+0x96>
    80003372:	639c                	ld	a5,0(a5)
    80003374:	2405                	addw	s0,s0,1
    80003376:	cf81                	beqz	a5,8000338e <core_list_mergesort+0x96>
    80003378:	639c                	ld	a5,0(a5)
    8000337a:	2405                	addw	s0,s0,1
    8000337c:	cb89                	beqz	a5,8000338e <core_list_mergesort+0x96>
    8000337e:	008b8863          	beq	s7,s0,8000338e <core_list_mergesort+0x96>
    80003382:	639c                	ld	a5,0(a5)
    80003384:	2405                	addw	s0,s0,1
    80003386:	c781                	beqz	a5,8000338e <core_list_mergesort+0x96>
    80003388:	639c                	ld	a5,0(a5)
    8000338a:	2405                	addw	s0,s0,1
    8000338c:	f7f9                	bnez	a5,8000335a <core_list_mergesort+0x62>
    8000338e:	8926                	mv	s2,s1
    80003390:	8a5e                	mv	s4,s7
    80003392:	84be                	mv	s1,a5
    80003394:	00805f63          	blez	s0,800033b2 <core_list_mergesort+0xba>
    80003398:	020a1963          	bnez	s4,800033ca <core_list_mergesort+0xd2>
    8000339c:	85ca                	mv	a1,s2
    8000339e:	00093903          	ld	s2,0(s2)
    800033a2:	347d                	addw	s0,s0,-1
    800033a4:	02098063          	beqz	s3,800033c4 <core_list_mergesort+0xcc>
    800033a8:	00b9b023          	sd	a1,0(s3)
    800033ac:	89ae                	mv	s3,a1
    800033ae:	fe8045e3          	bgtz	s0,80003398 <core_list_mergesort+0xa0>
    800033b2:	03405863          	blez	s4,800033e2 <core_list_mergesort+0xea>
    800033b6:	c49d                	beqz	s1,800033e4 <core_list_mergesort+0xec>
    800033b8:	e811                	bnez	s0,800033cc <core_list_mergesort+0xd4>
    800033ba:	85a6                	mv	a1,s1
    800033bc:	3a7d                	addw	s4,s4,-1
    800033be:	6084                	ld	s1,0(s1)
    800033c0:	fe0994e3          	bnez	s3,800033a8 <core_list_mergesort+0xb0>
    800033c4:	8aae                	mv	s5,a1
    800033c6:	89ae                	mv	s3,a1
    800033c8:	b7dd                	j	800033ae <core_list_mergesort+0xb6>
    800033ca:	d8e9                	beqz	s1,8000339c <core_list_mergesort+0xa4>
    800033cc:	648c                	ld	a1,8(s1)
    800033ce:	00893503          	ld	a0,8(s2)
    800033d2:	8666                	mv	a2,s9
    800033d4:	9b02                	jalr	s6
    800033d6:	fca053e3          	blez	a0,8000339c <core_list_mergesort+0xa4>
    800033da:	85a6                	mv	a1,s1
    800033dc:	3a7d                	addw	s4,s4,-1
    800033de:	6084                	ld	s1,0(s1)
    800033e0:	b7d1                	j	800033a4 <core_list_mergesort+0xac>
    800033e2:	f0a9                	bnez	s1,80003324 <core_list_mergesort+0x2c>
    800033e4:	0009b023          	sd	zero,0(s3)
    800033e8:	01ac0963          	beq	s8,s10,800033fa <core_list_mergesort+0x102>
    800033ec:	84d6                	mv	s1,s5
    800033ee:	001b9b9b          	sllw	s7,s7,0x1
    800033f2:	f495                	bnez	s1,8000331e <core_list_mergesort+0x26>
    800033f4:	00003023          	sd	zero,0(zero) # 0 <_tbss_end>
    800033f8:	9002                	ebreak
    800033fa:	60e6                	ld	ra,88(sp)
    800033fc:	6446                	ld	s0,80(sp)
    800033fe:	64a6                	ld	s1,72(sp)
    80003400:	6906                	ld	s2,64(sp)
    80003402:	79e2                	ld	s3,56(sp)
    80003404:	7a42                	ld	s4,48(sp)
    80003406:	7b02                	ld	s6,32(sp)
    80003408:	6be2                	ld	s7,24(sp)
    8000340a:	6c42                	ld	s8,16(sp)
    8000340c:	6ca2                	ld	s9,8(sp)
    8000340e:	6d02                	ld	s10,0(sp)
    80003410:	8556                	mv	a0,s5
    80003412:	7aa2                	ld	s5,40(sp)
    80003414:	6125                	add	sp,sp,96
    80003416:	8082                	ret

0000000080003418 <start_time>:
start_time():
    80003418:	b0002773          	csrr	a4,mcycle
    8000341c:	84e1b823          	sd	a4,-1968(gp) # 80009238 <start_time_val>
    80003420:	8082                	ret

0000000080003422 <stop_time>:
stop_time():
    80003422:	b0002773          	csrr	a4,mcycle
    80003426:	84e1b423          	sd	a4,-1976(gp) # 80009230 <stop_time_val>
    8000342a:	8082                	ret

000000008000342c <get_time>:
get_time():
    8000342c:	8481b503          	ld	a0,-1976(gp) # 80009230 <stop_time_val>
    80003430:	8501b283          	ld	t0,-1968(gp) # 80009238 <start_time_val>
    80003434:	40550533          	sub	a0,a0,t0
    80003438:	8082                	ret

000000008000343a <time_in_secs>:
time_in_secs():
    8000343a:	00006797          	auipc	a5,0x6
    8000343e:	d2257553          	fcvt.d.l	fa0,a0
    80003442:	dae7b787          	fld	fa5,-594(a5) # 800091e8 <mem_name+0x18>
    80003446:	12f57553          	fmul.d	fa0,fa0,fa5
    8000344a:	8082                	ret

000000008000344c <portable_init>:
portable_init():
    8000344c:	4785                	li	a5,1
    8000344e:	00f50023          	sb	a5,0(a0)
    80003452:	8082                	ret

0000000080003454 <portable_fini>:
portable_fini():
    80003454:	00050023          	sb	zero,0(a0)
    80003458:	8082                	ret

000000008000345a <iterate>:
iterate():
    8000345a:	1101                	add	sp,sp,-32
    8000345c:	e04a                	sd	s2,0(sp)
    8000345e:	02c52903          	lw	s2,44(a0)
    80003462:	ec06                	sd	ra,24(sp)
    80003464:	e822                	sd	s0,16(sp)
    80003466:	e426                	sd	s1,8(sp)
    80003468:	06053023          	sd	zero,96(a0)
    8000346c:	02090c63          	beqz	s2,800034a4 <iterate+0x4a>
    80003470:	842a                	mv	s0,a0
    80003472:	4481                	li	s1,0
    80003474:	4585                	li	a1,1
    80003476:	8522                	mv	a0,s0
    80003478:	d14ff0ef          	jal	8000298c <core_bench_list>
    8000347c:	06045583          	lhu	a1,96(s0)
    80003480:	d43fd0ef          	jal	800011c2 <crcu16>
    80003484:	06a41023          	sh	a0,96(s0)
    80003488:	55fd                	li	a1,-1
    8000348a:	8522                	mv	a0,s0
    8000348c:	d00ff0ef          	jal	8000298c <core_bench_list>
    80003490:	06045583          	lhu	a1,96(s0)
    80003494:	d2ffd0ef          	jal	800011c2 <crcu16>
    80003498:	06a41023          	sh	a0,96(s0)
    8000349c:	c899                	beqz	s1,800034b2 <iterate+0x58>
    8000349e:	2485                	addw	s1,s1,1
    800034a0:	fc991ae3          	bne	s2,s1,80003474 <iterate+0x1a>
    800034a4:	60e2                	ld	ra,24(sp)
    800034a6:	6442                	ld	s0,16(sp)
    800034a8:	64a2                	ld	s1,8(sp)
    800034aa:	6902                	ld	s2,0(sp)
    800034ac:	4501                	li	a0,0
    800034ae:	6105                	add	sp,sp,32
    800034b0:	8082                	ret
    800034b2:	06a41123          	sh	a0,98(s0)
    800034b6:	4085                	li	ra,1
    800034b8:	fe1906e3          	beq	s2,ra,800034a4 <iterate+0x4a>
    800034bc:	4485                	li	s1,1
    800034be:	bf5d                	j	80003474 <iterate+0x1a>

00000000800034c0 <core_bench_matrix>:
core_bench_matrix():
    800034c0:	7119                	add	sp,sp,-128
    800034c2:	f4a6                	sd	s1,104(sp)
    800034c4:	4104                	lw	s1,0(a0)
    800034c6:	f466                	sd	s9,40(sp)
    800034c8:	f8a2                	sd	s0,112(sp)
    800034ca:	02948cbb          	mulw	s9,s1,s1
    800034ce:	f0ca                	sd	s2,96(sp)
    800034d0:	ecce                	sd	s3,88(sp)
    800034d2:	e8d2                	sd	s4,80(sp)
    800034d4:	fc5e                	sd	s7,56(sp)
    800034d6:	f862                	sd	s8,48(sp)
    800034d8:	ec6e                	sd	s11,24(sp)
    800034da:	777d                	lui	a4,0xfffff
    800034dc:	fc86                	sd	ra,120(sp)
    800034de:	e4d6                	sd	s5,72(sp)
    800034e0:	e0da                	sd	s6,64(sp)
    800034e2:	f06a                	sd	s10,32(sp)
    800034e4:	000c8c1b          	sext.w	s8,s9
    800034e8:	01853903          	ld	s2,24(a0)
    800034ec:	6500                	ld	s0,8(a0)
    800034ee:	01053983          	ld	s3,16(a0)
    800034f2:	8bae                	mv	s7,a1
    800034f4:	8db2                	mv	s11,a2
    800034f6:	00e5ea33          	or	s4,a1,a4
    800034fa:	000c1463          	bnez	s8,80003502 <core_bench_matrix+0x42>
    800034fe:	7d20106f          	j	80004cd0 <core_bench_matrix+0x1810>
    80003502:	00145793          	srl	a5,s0,0x1
    80003506:	40f0063b          	negw	a2,a5
    8000350a:	030b9693          	sll	a3,s7,0x30
    8000350e:	fffc851b          	addw	a0,s9,-1
    80003512:	4595                	li	a1,5
    80003514:	0306d093          	srl	ra,a3,0x30
    80003518:	87a2                	mv	a5,s0
    8000351a:	00367293          	and	t0,a2,3
    8000351e:	00a5e463          	bltu	a1,a0,80003526 <core_bench_matrix+0x66>
    80003522:	7da0106f          	j	80004cfc <core_bench_matrix+0x183c>
    80003526:	4f81                	li	t6,0
    80003528:	02028e63          	beqz	t0,80003564 <core_bench_matrix+0xa4>
    8000352c:	00045383          	lhu	t2,0(s0)
    80003530:	00267813          	and	a6,a2,2
    80003534:	4f85                	li	t6,1
    80003536:	001388bb          	addw	a7,t2,ra
    8000353a:	01141023          	sh	a7,0(s0)
    8000353e:	02080363          	beqz	a6,80003564 <core_bench_matrix+0xa4>
    80003542:	00245a83          	lhu	s5,2(s0)
    80003546:	4b0d                	li	s6,3
    80003548:	4f89                	li	t6,2
    8000354a:	001a8d3b          	addw	s10,s5,ra
    8000354e:	01a41123          	sh	s10,2(s0)
    80003552:	01629963          	bne	t0,s6,80003564 <core_bench_matrix+0xa4>
    80003556:	00445e03          	lhu	t3,4(s0)
    8000355a:	4f8d                	li	t6,3
    8000355c:	001e0ebb          	addw	t4,t3,ra
    80003560:	01d41223          	sh	t4,4(s0)
    80003564:	405c853b          	subw	a0,s9,t0
    80003568:	01009f13          	sll	t5,ra,0x10
    8000356c:	00129713          	sll	a4,t0,0x1
    80003570:	02009593          	sll	a1,ra,0x20
    80003574:	01e0e6b3          	or	a3,ra,t5
    80003578:	0025561b          	srlw	a2,a0,0x2
    8000357c:	00b6e2b3          	or	t0,a3,a1
    80003580:	03009313          	sll	t1,ra,0x30
    80003584:	9722                	add	a4,a4,s0
    80003586:	00361393          	sll	t2,a2,0x3
    8000358a:	0062e833          	or	a6,t0,t1
    8000358e:	00e38ab3          	add	s5,t2,a4
    80003592:	00006897          	auipc	a7,0x6
    80003596:	00073b03          	ld	s6,0(a4) # fffffffffffff000 <__global_pointer$+0xffffffff7fff5618>
    8000359a:	c6e8bd03          	ld	s10,-914(a7) # 80009200 <mem_name+0x30>
    8000359e:	00006e17          	auipc	t3,0x6
    800035a2:	c6ae3f03          	ld	t5,-918(t3) # 80009208 <mem_name+0x38>
    800035a6:	01ab7eb3          	and	t4,s6,s10
    800035aa:	01a875b3          	and	a1,a6,s10
    800035ae:	010b46b3          	xor	a3,s6,a6
    800035b2:	00be82b3          	add	t0,t4,a1
    800035b6:	01e6f633          	and	a2,a3,t5
    800035ba:	00c2c333          	xor	t1,t0,a2
    800035be:	00673023          	sd	t1,0(a4)
    800035c2:	0721                	add	a4,a4,8
    800035c4:	fd5717e3          	bne	a4,s5,80003592 <core_bench_matrix+0xd2>
    800035c8:	ffc57393          	and	t2,a0,-4
    800035cc:	890d                	and	a0,a0,3
    800035ce:	01f3833b          	addw	t1,t2,t6
    800035d2:	c571                	beqz	a0,8000369e <core_bench_matrix+0x1de>
    800035d4:	02031f93          	sll	t6,t1,0x20
    800035d8:	01ffd813          	srl	a6,t6,0x1f
    800035dc:	01040ab3          	add	s5,s0,a6
    800035e0:	000ad883          	lhu	a7,0(s5)
    800035e4:	00130b1b          	addw	s6,t1,1
    800035e8:	000b0d1b          	sext.w	s10,s6
    800035ec:	00188e3b          	addw	t3,a7,ra
    800035f0:	01ca9023          	sh	t3,0(s5)
    800035f4:	0b8d7563          	bgeu	s10,s8,8000369e <core_bench_matrix+0x1de>
    800035f8:	020b1f13          	sll	t5,s6,0x20
    800035fc:	01ff5e93          	srl	t4,t5,0x1f
    80003600:	01d405b3          	add	a1,s0,t4
    80003604:	0005d683          	lhu	a3,0(a1)
    80003608:	0023029b          	addw	t0,t1,2
    8000360c:	0002861b          	sext.w	a2,t0
    80003610:	0016873b          	addw	a4,a3,ra
    80003614:	00e59023          	sh	a4,0(a1)
    80003618:	09867363          	bgeu	a2,s8,8000369e <core_bench_matrix+0x1de>
    8000361c:	02029393          	sll	t2,t0,0x20
    80003620:	01f3d513          	srl	a0,t2,0x1f
    80003624:	00a40fb3          	add	t6,s0,a0
    80003628:	000fd803          	lhu	a6,0(t6)
    8000362c:	00330a9b          	addw	s5,t1,3
    80003630:	000a889b          	sext.w	a7,s5
    80003634:	00180b3b          	addw	s6,a6,ra
    80003638:	016f9023          	sh	s6,0(t6)
    8000363c:	0788f163          	bgeu	a7,s8,8000369e <core_bench_matrix+0x1de>
    80003640:	020a9d13          	sll	s10,s5,0x20
    80003644:	01fd5e13          	srl	t3,s10,0x1f
    80003648:	01c40f33          	add	t5,s0,t3
    8000364c:	000f5e83          	lhu	t4,0(t5)
    80003650:	0043059b          	addw	a1,t1,4
    80003654:	0005869b          	sext.w	a3,a1
    80003658:	001e82bb          	addw	t0,t4,ra
    8000365c:	005f1023          	sh	t0,0(t5)
    80003660:	0386ff63          	bgeu	a3,s8,8000369e <core_bench_matrix+0x1de>
    80003664:	02059613          	sll	a2,a1,0x20
    80003668:	01f65713          	srl	a4,a2,0x1f
    8000366c:	00e403b3          	add	t2,s0,a4
    80003670:	0003d503          	lhu	a0,0(t2)
    80003674:	2315                	addw	t1,t1,5
    80003676:	00030f9b          	sext.w	t6,t1
    8000367a:	0015083b          	addw	a6,a0,ra
    8000367e:	01039023          	sh	a6,0(t2)
    80003682:	018ffe63          	bgeu	t6,s8,8000369e <core_bench_matrix+0x1de>
    80003686:	02031a93          	sll	s5,t1,0x20
    8000368a:	01fad893          	srl	a7,s5,0x1f
    8000368e:	01140b33          	add	s6,s0,a7
    80003692:	000b5d03          	lhu	s10,0(s6)
    80003696:	001d00bb          	addw	ra,s10,ra
    8000369a:	001b1023          	sh	ra,0(s6)
    8000369e:	020c9e13          	sll	t3,s9,0x20
    800036a2:	020e5593          	srl	a1,t3,0x20
    800036a6:	00159f13          	sll	t5,a1,0x1
    800036aa:	ffef0e93          	add	t4,t5,-2
    800036ae:	001ed693          	srl	a3,t4,0x1
    800036b2:	00168293          	add	t0,a3,1
    800036b6:	0072f613          	and	a2,t0,7
    800036ba:	86ca                	mv	a3,s2
    800036bc:	01e403b3          	add	t2,s0,t5
    800036c0:	874a                	mv	a4,s2
    800036c2:	c659                	beqz	a2,80003750 <core_bench_matrix+0x290>
    800036c4:	4505                	li	a0,1
    800036c6:	06a60b63          	beq	a2,a0,8000373c <core_bench_matrix+0x27c>
    800036ca:	4309                	li	t1,2
    800036cc:	06660063          	beq	a2,t1,8000372c <core_bench_matrix+0x26c>
    800036d0:	4f8d                	li	t6,3
    800036d2:	05f60563          	beq	a2,t6,8000371c <core_bench_matrix+0x25c>
    800036d6:	4811                	li	a6,4
    800036d8:	03060a63          	beq	a2,a6,8000370c <core_bench_matrix+0x24c>
    800036dc:	4a95                	li	s5,5
    800036de:	01560f63          	beq	a2,s5,800036fc <core_bench_matrix+0x23c>
    800036e2:	4899                	li	a7,6
    800036e4:	01160463          	beq	a2,a7,800036ec <core_bench_matrix+0x22c>
    800036e8:	5a40106f          	j	80004c8c <core_bench_matrix+0x17cc>
    800036ec:	00079083          	lh	ra,0(a5)
    800036f0:	0711                	add	a4,a4,4
    800036f2:	0789                	add	a5,a5,2
    800036f4:	03708e3b          	mulw	t3,ra,s7
    800036f8:	ffc72e23          	sw	t3,-4(a4)
    800036fc:	00079f03          	lh	t5,0(a5)
    80003700:	0711                	add	a4,a4,4
    80003702:	0789                	add	a5,a5,2
    80003704:	037f0ebb          	mulw	t4,t5,s7
    80003708:	ffd72e23          	sw	t4,-4(a4)
    8000370c:	00079283          	lh	t0,0(a5)
    80003710:	0711                	add	a4,a4,4
    80003712:	0789                	add	a5,a5,2
    80003714:	0372863b          	mulw	a2,t0,s7
    80003718:	fec72e23          	sw	a2,-4(a4)
    8000371c:	00079503          	lh	a0,0(a5)
    80003720:	0711                	add	a4,a4,4
    80003722:	0789                	add	a5,a5,2
    80003724:	0375033b          	mulw	t1,a0,s7
    80003728:	fe672e23          	sw	t1,-4(a4)
    8000372c:	00079f83          	lh	t6,0(a5)
    80003730:	0711                	add	a4,a4,4
    80003732:	0789                	add	a5,a5,2
    80003734:	037f883b          	mulw	a6,t6,s7
    80003738:	ff072e23          	sw	a6,-4(a4)
    8000373c:	00079a83          	lh	s5,0(a5)
    80003740:	0711                	add	a4,a4,4
    80003742:	0789                	add	a5,a5,2
    80003744:	037a88bb          	mulw	a7,s5,s7
    80003748:	ff172e23          	sw	a7,-4(a4)
    8000374c:	06778763          	beq	a5,t2,800037ba <core_bench_matrix+0x2fa>
    80003750:	00079b03          	lh	s6,0(a5)
    80003754:	00279d03          	lh	s10,2(a5)
    80003758:	00479083          	lh	ra,4(a5)
    8000375c:	00679e03          	lh	t3,6(a5)
    80003760:	00879283          	lh	t0,8(a5)
    80003764:	00a79503          	lh	a0,10(a5)
    80003768:	00c79803          	lh	a6,12(a5)
    8000376c:	00e79603          	lh	a2,14(a5)
    80003770:	037b0ebb          	mulw	t4,s6,s7
    80003774:	07c1                	add	a5,a5,16
    80003776:	02070713          	add	a4,a4,32
    8000377a:	037d0f3b          	mulw	t5,s10,s7
    8000377e:	ffd72023          	sw	t4,-32(a4)
    80003782:	0370833b          	mulw	t1,ra,s7
    80003786:	ffe72223          	sw	t5,-28(a4)
    8000378a:	037e0fbb          	mulw	t6,t3,s7
    8000378e:	fe672423          	sw	t1,-24(a4)
    80003792:	03728abb          	mulw	s5,t0,s7
    80003796:	fff72623          	sw	t6,-20(a4)
    8000379a:	037508bb          	mulw	a7,a0,s7
    8000379e:	ff572823          	sw	s5,-16(a4)
    800037a2:	03780b3b          	mulw	s6,a6,s7
    800037a6:	ff172a23          	sw	a7,-12(a4)
    800037aa:	03760d3b          	mulw	s10,a2,s7
    800037ae:	ff672c23          	sw	s6,-8(a4)
    800037b2:	ffa72e23          	sw	s10,-4(a4)
    800037b6:	f8779de3          	bne	a5,t2,80003750 <core_bench_matrix+0x290>
    800037ba:	058a                	sll	a1,a1,0x2
    800037bc:	ffc58393          	add	t2,a1,-4
    800037c0:	0023d793          	srl	a5,t2,0x2
    800037c4:	00178713          	add	a4,a5,1
    800037c8:	00777093          	and	ra,a4,7
    800037cc:	00b90e33          	add	t3,s2,a1
    800037d0:	4701                	li	a4,0
    800037d2:	4501                	li	a0,0
    800037d4:	4781                	li	a5,0
    800037d6:	10008c63          	beqz	ra,800038ee <core_bench_matrix+0x42e>
    800037da:	4285                	li	t0,1
    800037dc:	0e508563          	beq	ra,t0,800038c6 <core_bench_matrix+0x406>
    800037e0:	4809                	li	a6,2
    800037e2:	0d008263          	beq	ra,a6,800038a6 <core_bench_matrix+0x3e6>
    800037e6:	460d                	li	a2,3
    800037e8:	08c08e63          	beq	ra,a2,80003884 <core_bench_matrix+0x3c4>
    800037ec:	4e91                	li	t4,4
    800037ee:	07d08863          	beq	ra,t4,8000385e <core_bench_matrix+0x39e>
    800037f2:	4f15                	li	t5,5
    800037f4:	05e08263          	beq	ra,t5,80003838 <core_bench_matrix+0x378>
    800037f8:	4319                	li	t1,6
    800037fa:	00608d63          	beq	ra,t1,80003814 <core_bench_matrix+0x354>
    800037fe:	00092703          	lw	a4,0(s2)
    80003802:	87ba                	mv	a5,a4
    80003804:	00e02533          	sgtz	a0,a4
    80003808:	00ea5463          	bge	s4,a4,80003810 <core_bench_matrix+0x350>
    8000380c:	4529                	li	a0,10
    8000380e:	4781                	li	a5,0
    80003810:	00490693          	add	a3,s2,4
    80003814:	8fba                	mv	t6,a4
    80003816:	4298                	lw	a4,0(a3)
    80003818:	1542                	sll	a0,a0,0x30
    8000381a:	03055a93          	srl	s5,a0,0x30
    8000381e:	9fb9                	addw	a5,a5,a4
    80003820:	00fa4463          	blt	s4,a5,80003828 <core_bench_matrix+0x368>
    80003824:	4520106f          	j	80004c76 <core_bench_matrix+0x17b6>
    80003828:	00aa859b          	addw	a1,s5,10
    8000382c:	0105939b          	sllw	t2,a1,0x10
    80003830:	4103d51b          	sraw	a0,t2,0x10
    80003834:	4781                	li	a5,0
    80003836:	0691                	add	a3,a3,4
    80003838:	80ba                	mv	ra,a4
    8000383a:	4298                	lw	a4,0(a3)
    8000383c:	03051293          	sll	t0,a0,0x30
    80003840:	0302d813          	srl	a6,t0,0x30
    80003844:	9fb9                	addw	a5,a5,a4
    80003846:	00fa4463          	blt	s4,a5,8000384e <core_bench_matrix+0x38e>
    8000384a:	3e80106f          	j	80004c32 <core_bench_matrix+0x1772>
    8000384e:	00a8079b          	addw	a5,a6,10
    80003852:	0107931b          	sllw	t1,a5,0x10
    80003856:	4103551b          	sraw	a0,t1,0x10
    8000385a:	4781                	li	a5,0
    8000385c:	0691                	add	a3,a3,4
    8000385e:	8fba                	mv	t6,a4
    80003860:	4298                	lw	a4,0(a3)
    80003862:	1542                	sll	a0,a0,0x30
    80003864:	03055a93          	srl	s5,a0,0x30
    80003868:	9fb9                	addw	a5,a5,a4
    8000386a:	00fa5463          	bge	s4,a5,80003872 <core_bench_matrix+0x3b2>
    8000386e:	35a0106f          	j	80004bc8 <core_bench_matrix+0x1708>
    80003872:	00efa8b3          	slt	a7,t6,a4
    80003876:	01588b3b          	addw	s6,a7,s5
    8000387a:	010b1d1b          	sllw	s10,s6,0x10
    8000387e:	410d551b          	sraw	a0,s10,0x10
    80003882:	0691                	add	a3,a3,4
    80003884:	80ba                	mv	ra,a4
    80003886:	4298                	lw	a4,0(a3)
    80003888:	03051293          	sll	t0,a0,0x30
    8000388c:	0302d813          	srl	a6,t0,0x30
    80003890:	9fb9                	addw	a5,a5,a4
    80003892:	3efa5163          	bge	s4,a5,80003c74 <core_bench_matrix+0x7b4>
    80003896:	00a8079b          	addw	a5,a6,10
    8000389a:	0107931b          	sllw	t1,a5,0x10
    8000389e:	4103551b          	sraw	a0,t1,0x10
    800038a2:	4781                	li	a5,0
    800038a4:	0691                	add	a3,a3,4
    800038a6:	8fba                	mv	t6,a4
    800038a8:	4298                	lw	a4,0(a3)
    800038aa:	1542                	sll	a0,a0,0x30
    800038ac:	03055a93          	srl	s5,a0,0x30
    800038b0:	9fb9                	addw	a5,a5,a4
    800038b2:	3afa5763          	bge	s4,a5,80003c60 <core_bench_matrix+0x7a0>
    800038b6:	00aa859b          	addw	a1,s5,10
    800038ba:	0105939b          	sllw	t2,a1,0x10
    800038be:	4103d51b          	sraw	a0,t2,0x10
    800038c2:	4781                	li	a5,0
    800038c4:	0691                	add	a3,a3,4
    800038c6:	80ba                	mv	ra,a4
    800038c8:	4298                	lw	a4,0(a3)
    800038ca:	03051293          	sll	t0,a0,0x30
    800038ce:	0302d813          	srl	a6,t0,0x30
    800038d2:	9fb9                	addw	a5,a5,a4
    800038d4:	36fa4e63          	blt	s4,a5,80003c50 <core_bench_matrix+0x790>
    800038d8:	00e0a633          	slt	a2,ra,a4
    800038dc:	01060ebb          	addw	t4,a2,a6
    800038e0:	010e9f1b          	sllw	t5,t4,0x10
    800038e4:	410f551b          	sraw	a0,t5,0x10
    800038e8:	0691                	add	a3,a3,4
    800038ea:	13c68363          	beq	a3,t3,80003a10 <core_bench_matrix+0x550>
    800038ee:	0006af83          	lw	t6,0(a3)
    800038f2:	1542                	sll	a0,a0,0x30
    800038f4:	03055a93          	srl	s5,a0,0x30
    800038f8:	00ff88bb          	addw	a7,t6,a5
    800038fc:	251a4a63          	blt	s4,a7,80003b50 <core_bench_matrix+0x690>
    80003900:	01f72733          	slt	a4,a4,t6
    80003904:	0046a283          	lw	t0,4(a3)
    80003908:	01570b3b          	addw	s6,a4,s5
    8000390c:	010b1d1b          	sllw	s10,s6,0x10
    80003910:	410d559b          	sraw	a1,s10,0x10
    80003914:	03059813          	sll	a6,a1,0x30
    80003918:	01128abb          	addw	s5,t0,a7
    8000391c:	0691                	add	a3,a3,4
    8000391e:	03085e93          	srl	t4,a6,0x30
    80003922:	255a5963          	bge	s4,s5,80003b74 <core_bench_matrix+0x6b4>
    80003926:	00ae879b          	addw	a5,t4,10
    8000392a:	0046a883          	lw	a7,4(a3)
    8000392e:	01079f9b          	sllw	t6,a5,0x10
    80003932:	410fd51b          	sraw	a0,t6,0x10
    80003936:	4a81                	li	s5,0
    80003938:	03051713          	sll	a4,a0,0x30
    8000393c:	01588ebb          	addw	t4,a7,s5
    80003940:	03075b13          	srl	s6,a4,0x30
    80003944:	25da4a63          	blt	s4,t4,80003b98 <core_bench_matrix+0x6d8>
    80003948:	0112ad33          	slt	s10,t0,a7
    8000394c:	016d05bb          	addw	a1,s10,s6
    80003950:	0086af03          	lw	t5,8(a3)
    80003954:	0105939b          	sllw	t2,a1,0x10
    80003958:	4103d81b          	sraw	a6,t2,0x10
    8000395c:	03081613          	sll	a2,a6,0x30
    80003960:	01df0b3b          	addw	s6,t5,t4
    80003964:	03065313          	srl	t1,a2,0x30
    80003968:	256a4963          	blt	s4,s6,80003bba <core_bench_matrix+0x6fa>
    8000396c:	01e8afb3          	slt	t6,a7,t5
    80003970:	006f853b          	addw	a0,t6,t1
    80003974:	00c6ad03          	lw	s10,12(a3)
    80003978:	01051a9b          	sllw	s5,a0,0x10
    8000397c:	410ad71b          	sraw	a4,s5,0x10
    80003980:	03071593          	sll	a1,a4,0x30
    80003984:	016d033b          	addw	t1,s10,s6
    80003988:	0305d393          	srl	t2,a1,0x30
    8000398c:	246a4863          	blt	s4,t1,80003bdc <core_bench_matrix+0x71c>
    80003990:	01af20b3          	slt	ra,t5,s10
    80003994:	007082bb          	addw	t0,ra,t2
    80003998:	0106af83          	lw	t6,16(a3)
    8000399c:	0102981b          	sllw	a6,t0,0x10
    800039a0:	4108561b          	sraw	a2,a6,0x10
    800039a4:	03061513          	sll	a0,a2,0x30
    800039a8:	006f83bb          	addw	t2,t6,t1
    800039ac:	03055a93          	srl	s5,a0,0x30
    800039b0:	247a4763          	blt	s4,t2,80003bfe <core_bench_matrix+0x73e>
    800039b4:	01fd28b3          	slt	a7,s10,t6
    800039b8:	0158873b          	addw	a4,a7,s5
    800039bc:	0146a083          	lw	ra,20(a3)
    800039c0:	01071b1b          	sllw	s6,a4,0x10
    800039c4:	410b559b          	sraw	a1,s6,0x10
    800039c8:	03059293          	sll	t0,a1,0x30
    800039cc:	00708abb          	addw	s5,ra,t2
    800039d0:	0302d813          	srl	a6,t0,0x30
    800039d4:	255a4663          	blt	s4,s5,80003c20 <core_bench_matrix+0x760>
    800039d8:	001faeb3          	slt	t4,t6,ra
    800039dc:	4e98                	lw	a4,24(a3)
    800039de:	010e8f3b          	addw	t5,t4,a6
    800039e2:	010f161b          	sllw	a2,t5,0x10
    800039e6:	4106551b          	sraw	a0,a2,0x10
    800039ea:	03051893          	sll	a7,a0,0x30
    800039ee:	015707bb          	addw	a5,a4,s5
    800039f2:	0308db13          	srl	s6,a7,0x30
    800039f6:	24fa4563          	blt	s4,a5,80003c40 <core_bench_matrix+0x780>
    800039fa:	00e0ad33          	slt	s10,ra,a4
    800039fe:	016d05bb          	addw	a1,s10,s6
    80003a02:	0105939b          	sllw	t2,a1,0x10
    80003a06:	4103d51b          	sraw	a0,t2,0x10
    80003a0a:	06f1                	add	a3,a3,28
    80003a0c:	efc691e3          	bne	a3,t3,800038ee <core_bench_matrix+0x42e>
    80003a10:	4581                	li	a1,0
    80003a12:	ebbfd0ef          	jal	800018cc <crc16>
    80003a16:	85aa                	mv	a1,a0
    80003a18:	e099                	bnez	s1,80003a1e <core_bench_matrix+0x55e>
    80003a1a:	2c60106f          	j	80004ce0 <core_bench_matrix+0x1820>
    80003a1e:	8b4a                	mv	s6,s2
    80003a20:	00092023          	sw	zero,0(s2)
    80003a24:	80ca                	mv	ra,s2
    80003a26:	8526                	mv	a0,s1
    80003a28:	834a                	mv	t1,s2
    80003a2a:	4801                	li	a6,0
    80003a2c:	4e01                	li	t3,0
    80003a2e:	410502b3          	sub	t0,a0,a6
    80003a32:	0032fe93          	and	t4,t0,3
    80003a36:	8ace                	mv	s5,s3
    80003a38:	87ce                	mv	a5,s3
    80003a3a:	8742                	mv	a4,a6
    80003a3c:	4681                	li	a3,0
    80003a3e:	060e8a63          	beqz	t4,80003ab2 <core_bench_matrix+0x5f2>
    80003a42:	4f05                	li	t5,1
    80003a44:	05ee8563          	beq	t4,t5,80003a8e <core_bench_matrix+0x5ce>
    80003a48:	4609                	li	a2,2
    80003a4a:	02ce8263          	beq	t4,a2,80003a6e <core_bench_matrix+0x5ae>
    80003a4e:	02081f93          	sll	t6,a6,0x20
    80003a52:	01ffd713          	srl	a4,t6,0x1f
    80003a56:	00e408b3          	add	a7,s0,a4
    80003a5a:	00089d03          	lh	s10,0(a7)
    80003a5e:	00099383          	lh	t2,0(s3)
    80003a62:	0018071b          	addw	a4,a6,1
    80003a66:	00298793          	add	a5,s3,2
    80003a6a:	027d06bb          	mulw	a3,s10,t2
    80003a6e:	02071293          	sll	t0,a4,0x20
    80003a72:	01f2de93          	srl	t4,t0,0x1f
    80003a76:	01d40f33          	add	t5,s0,t4
    80003a7a:	00079603          	lh	a2,0(a5)
    80003a7e:	000f1f83          	lh	t6,0(t5)
    80003a82:	2705                	addw	a4,a4,1
    80003a84:	0789                	add	a5,a5,2
    80003a86:	02cf88bb          	mulw	a7,t6,a2
    80003a8a:	00d886bb          	addw	a3,a7,a3
    80003a8e:	02071d13          	sll	s10,a4,0x20
    80003a92:	01fd5393          	srl	t2,s10,0x1f
    80003a96:	007402b3          	add	t0,s0,t2
    80003a9a:	00079e83          	lh	t4,0(a5)
    80003a9e:	00029f03          	lh	t5,0(t0)
    80003aa2:	2705                	addw	a4,a4,1
    80003aa4:	0789                	add	a5,a5,2
    80003aa6:	03df063b          	mulw	a2,t5,t4
    80003aaa:	9eb1                	addw	a3,a3,a2
    80003aac:	8fb6                	mv	t6,a3
    80003aae:	08e50463          	beq	a0,a4,80003b36 <core_bench_matrix+0x676>
    80003ab2:	0017089b          	addw	a7,a4,1
    80003ab6:	02071d13          	sll	s10,a4,0x20
    80003aba:	01fd5393          	srl	t2,s10,0x1f
    80003abe:	00188f1b          	addw	t5,a7,1
    80003ac2:	02089293          	sll	t0,a7,0x20
    80003ac6:	00740eb3          	add	t4,s0,t2
    80003aca:	01f2d613          	srl	a2,t0,0x1f
    80003ace:	001f071b          	addw	a4,t5,1
    80003ad2:	020f1893          	sll	a7,t5,0x20
    80003ad6:	000e9d03          	lh	s10,0(t4)
    80003ada:	00c40fb3          	add	t6,s0,a2
    80003ade:	01f8de93          	srl	t4,a7,0x1f
    80003ae2:	02071613          	sll	a2,a4,0x20
    80003ae6:	00079283          	lh	t0,0(a5)
    80003aea:	000f9383          	lh	t2,0(t6)
    80003aee:	00279f03          	lh	t5,2(a5)
    80003af2:	01d40fb3          	add	t6,s0,t4
    80003af6:	01f65e93          	srl	t4,a2,0x1f
    80003afa:	00479883          	lh	a7,4(a5)
    80003afe:	000f9f83          	lh	t6,0(t6)
    80003b02:	9ea2                	add	t4,t4,s0
    80003b04:	025d02bb          	mulw	t0,s10,t0
    80003b08:	00679603          	lh	a2,6(a5)
    80003b0c:	000e9d03          	lh	s10,0(t4)
    80003b10:	2705                	addw	a4,a4,1
    80003b12:	07a1                	add	a5,a5,8
    80003b14:	03e38f3b          	mulw	t5,t2,t5
    80003b18:	00d286bb          	addw	a3,t0,a3
    80003b1c:	031f83bb          	mulw	t2,t6,a7
    80003b20:	00df08bb          	addw	a7,t5,a3
    80003b24:	02cd0fbb          	mulw	t6,s10,a2
    80003b28:	01138ebb          	addw	t4,t2,a7
    80003b2c:	01df86bb          	addw	a3,t6,t4
    80003b30:	8fb6                	mv	t6,a3
    80003b32:	f8e510e3          	bne	a0,a4,80003ab2 <core_bench_matrix+0x5f2>
    80003b36:	01f0a023          	sw	t6,0(ra)
    80003b3a:	2e05                	addw	t3,t3,1
    80003b3c:	0311                	add	t1,t1,4
    80003b3e:	0104883b          	addw	a6,s1,a6
    80003b42:	9d25                	addw	a0,a0,s1
    80003b44:	149e7263          	bgeu	t3,s1,80003c88 <core_bench_matrix+0x7c8>
    80003b48:	809a                	mv	ra,t1
    80003b4a:	00032023          	sw	zero,0(t1)
    80003b4e:	b5c5                	j	80003a2e <core_bench_matrix+0x56e>
    80003b50:	0046a283          	lw	t0,4(a3)
    80003b54:	00aa839b          	addw	t2,s5,10
    80003b58:	0103909b          	sllw	ra,t2,0x10
    80003b5c:	4100d59b          	sraw	a1,ra,0x10
    80003b60:	4881                	li	a7,0
    80003b62:	03059813          	sll	a6,a1,0x30
    80003b66:	01128abb          	addw	s5,t0,a7
    80003b6a:	0691                	add	a3,a3,4
    80003b6c:	03085e93          	srl	t4,a6,0x30
    80003b70:	db5a4be3          	blt	s4,s5,80003926 <core_bench_matrix+0x466>
    80003b74:	005fa633          	slt	a2,t6,t0
    80003b78:	01d60f3b          	addw	t5,a2,t4
    80003b7c:	0046a883          	lw	a7,4(a3)
    80003b80:	010f131b          	sllw	t1,t5,0x10
    80003b84:	4103551b          	sraw	a0,t1,0x10
    80003b88:	03051713          	sll	a4,a0,0x30
    80003b8c:	01588ebb          	addw	t4,a7,s5
    80003b90:	03075b13          	srl	s6,a4,0x30
    80003b94:	dbda5ae3          	bge	s4,t4,80003948 <core_bench_matrix+0x488>
    80003b98:	00ab009b          	addw	ra,s6,10
    80003b9c:	0086af03          	lw	t5,8(a3)
    80003ba0:	0100929b          	sllw	t0,ra,0x10
    80003ba4:	4102d81b          	sraw	a6,t0,0x10
    80003ba8:	4e81                	li	t4,0
    80003baa:	03081613          	sll	a2,a6,0x30
    80003bae:	01df0b3b          	addw	s6,t5,t4
    80003bb2:	03065313          	srl	t1,a2,0x30
    80003bb6:	db6a5be3          	bge	s4,s6,8000396c <core_bench_matrix+0x4ac>
    80003bba:	00a3079b          	addw	a5,t1,10
    80003bbe:	00c6ad03          	lw	s10,12(a3)
    80003bc2:	0107989b          	sllw	a7,a5,0x10
    80003bc6:	4108d71b          	sraw	a4,a7,0x10
    80003bca:	4b01                	li	s6,0
    80003bcc:	03071593          	sll	a1,a4,0x30
    80003bd0:	016d033b          	addw	t1,s10,s6
    80003bd4:	0305d393          	srl	t2,a1,0x30
    80003bd8:	da6a5ce3          	bge	s4,t1,80003990 <core_bench_matrix+0x4d0>
    80003bdc:	00a38e9b          	addw	t4,t2,10
    80003be0:	0106af83          	lw	t6,16(a3)
    80003be4:	010e9f1b          	sllw	t5,t4,0x10
    80003be8:	410f561b          	sraw	a2,t5,0x10
    80003bec:	4301                	li	t1,0
    80003bee:	03061513          	sll	a0,a2,0x30
    80003bf2:	006f83bb          	addw	t2,t6,t1
    80003bf6:	03055a93          	srl	s5,a0,0x30
    80003bfa:	da7a5de3          	bge	s4,t2,800039b4 <core_bench_matrix+0x4f4>
    80003bfe:	00aa879b          	addw	a5,s5,10
    80003c02:	0146a083          	lw	ra,20(a3)
    80003c06:	01079d1b          	sllw	s10,a5,0x10
    80003c0a:	410d559b          	sraw	a1,s10,0x10
    80003c0e:	4381                	li	t2,0
    80003c10:	03059293          	sll	t0,a1,0x30
    80003c14:	00708abb          	addw	s5,ra,t2
    80003c18:	0302d813          	srl	a6,t0,0x30
    80003c1c:	db5a5ee3          	bge	s4,s5,800039d8 <core_bench_matrix+0x518>
    80003c20:	4e98                	lw	a4,24(a3)
    80003c22:	00a8031b          	addw	t1,a6,10
    80003c26:	01031f9b          	sllw	t6,t1,0x10
    80003c2a:	410fd51b          	sraw	a0,t6,0x10
    80003c2e:	4a81                	li	s5,0
    80003c30:	03051893          	sll	a7,a0,0x30
    80003c34:	015707bb          	addw	a5,a4,s5
    80003c38:	0308db13          	srl	s6,a7,0x30
    80003c3c:	dafa5fe3          	bge	s4,a5,800039fa <core_bench_matrix+0x53a>
    80003c40:	00ab079b          	addw	a5,s6,10
    80003c44:	0107909b          	sllw	ra,a5,0x10
    80003c48:	4100d51b          	sraw	a0,ra,0x10
    80003c4c:	4781                	li	a5,0
    80003c4e:	bb75                	j	80003a0a <core_bench_matrix+0x54a>
    80003c50:	00a8079b          	addw	a5,a6,10
    80003c54:	0107931b          	sllw	t1,a5,0x10
    80003c58:	4103551b          	sraw	a0,t1,0x10
    80003c5c:	4781                	li	a5,0
    80003c5e:	b169                	j	800038e8 <core_bench_matrix+0x428>
    80003c60:	00efa8b3          	slt	a7,t6,a4
    80003c64:	01588b3b          	addw	s6,a7,s5
    80003c68:	010b1d1b          	sllw	s10,s6,0x10
    80003c6c:	410d551b          	sraw	a0,s10,0x10
    80003c70:	0691                	add	a3,a3,4
    80003c72:	b991                	j	800038c6 <core_bench_matrix+0x406>
    80003c74:	00e0a633          	slt	a2,ra,a4
    80003c78:	01060ebb          	addw	t4,a2,a6
    80003c7c:	010e9f1b          	sllw	t5,t4,0x10
    80003c80:	410f551b          	sraw	a0,t5,0x10
    80003c84:	0691                	add	a3,a3,4
    80003c86:	b105                	j	800038a6 <core_bench_matrix+0x3e6>
    80003c88:	000c1463          	bnez	s8,80003c90 <core_bench_matrix+0x7d0>
    80003c8c:	07c0106f          	j	80004d08 <core_bench_matrix+0x1848>
    80003c90:	020c9093          	sll	ra,s9,0x20
    80003c94:	01e0d513          	srl	a0,ra,0x1e
    80003c98:	ffc50313          	add	t1,a0,-4
    80003c9c:	00235813          	srl	a6,t1,0x2
    80003ca0:	00180e13          	add	t3,a6,1
    80003ca4:	007e7613          	and	a2,t3,7
    80003ca8:	00a902b3          	add	t0,s2,a0
    80003cac:	86ca                	mv	a3,s2
    80003cae:	4701                	li	a4,0
    80003cb0:	4501                	li	a0,0
    80003cb2:	4781                	li	a5,0
    80003cb4:	0e060de3          	beqz	a2,800045ae <core_bench_matrix+0x10ee>
    80003cb8:	4d05                	li	s10,1
    80003cba:	0fa60463          	beq	a2,s10,80003da2 <core_bench_matrix+0x8e2>
    80003cbe:	4f09                	li	t5,2
    80003cc0:	0be60f63          	beq	a2,t5,80003d7e <core_bench_matrix+0x8be>
    80003cc4:	438d                	li	t2,3
    80003cc6:	08760a63          	beq	a2,t2,80003d5a <core_bench_matrix+0x89a>
    80003cca:	4891                	li	a7,4
    80003ccc:	07160563          	beq	a2,a7,80003d36 <core_bench_matrix+0x876>
    80003cd0:	4f95                	li	t6,5
    80003cd2:	05f60163          	beq	a2,t6,80003d14 <core_bench_matrix+0x854>
    80003cd6:	4e99                	li	t4,6
    80003cd8:	01d60e63          	beq	a2,t4,80003cf4 <core_bench_matrix+0x834>
    80003cdc:	00092703          	lw	a4,0(s2)
    80003ce0:	4681                	li	a3,0
    80003ce2:	87ba                	mv	a5,a4
    80003ce4:	00e6a533          	slt	a0,a3,a4
    80003ce8:	00ea5463          	bge	s4,a4,80003cf0 <core_bench_matrix+0x830>
    80003cec:	4529                	li	a0,10
    80003cee:	4781                	li	a5,0
    80003cf0:	00490693          	add	a3,s2,4
    80003cf4:	80ba                	mv	ra,a4
    80003cf6:	4298                	lw	a4,0(a3)
    80003cf8:	1542                	sll	a0,a0,0x30
    80003cfa:	03055313          	srl	t1,a0,0x30
    80003cfe:	9fb9                	addw	a5,a5,a4
    80003d00:	7afa52e3          	bge	s4,a5,80004ca4 <core_bench_matrix+0x17e4>
    80003d04:	00a3079b          	addw	a5,t1,10
    80003d08:	01079d1b          	sllw	s10,a5,0x10
    80003d0c:	410d551b          	sraw	a0,s10,0x10
    80003d10:	4781                	li	a5,0
    80003d12:	0691                	add	a3,a3,4
    80003d14:	8f3a                	mv	t5,a4
    80003d16:	4298                	lw	a4,0(a3)
    80003d18:	03051393          	sll	t2,a0,0x30
    80003d1c:	0303d893          	srl	a7,t2,0x30
    80003d20:	9fb9                	addw	a5,a5,a4
    80003d22:	6cfa57e3          	bge	s4,a5,80004bf0 <core_bench_matrix+0x1730>
    80003d26:	00a8851b          	addw	a0,a7,10
    80003d2a:	0105131b          	sllw	t1,a0,0x10
    80003d2e:	4103551b          	sraw	a0,t1,0x10
    80003d32:	4781                	li	a5,0
    80003d34:	0691                	add	a3,a3,4
    80003d36:	883a                	mv	a6,a4
    80003d38:	4298                	lw	a4,0(a3)
    80003d3a:	03051e13          	sll	t3,a0,0x30
    80003d3e:	030e5613          	srl	a2,t3,0x30
    80003d42:	9fb9                	addw	a5,a5,a4
    80003d44:	68fa4ce3          	blt	s4,a5,80004bdc <core_bench_matrix+0x171c>
    80003d48:	00e82d33          	slt	s10,a6,a4
    80003d4c:	00cd0f3b          	addw	t5,s10,a2
    80003d50:	010f139b          	sllw	t2,t5,0x10
    80003d54:	4103d51b          	sraw	a0,t2,0x10
    80003d58:	0691                	add	a3,a3,4
    80003d5a:	8fba                	mv	t6,a4
    80003d5c:	4298                	lw	a4,0(a3)
    80003d5e:	03051e93          	sll	t4,a0,0x30
    80003d62:	030ed093          	srl	ra,t4,0x30
    80003d66:	9fb9                	addw	a5,a5,a4
    80003d68:	60fa48e3          	blt	s4,a5,80004b78 <core_bench_matrix+0x16b8>
    80003d6c:	00efa533          	slt	a0,t6,a4
    80003d70:	0015033b          	addw	t1,a0,ra
    80003d74:	0103181b          	sllw	a6,t1,0x10
    80003d78:	4108551b          	sraw	a0,a6,0x10
    80003d7c:	0691                	add	a3,a3,4
    80003d7e:	8d3a                	mv	s10,a4
    80003d80:	4298                	lw	a4,0(a3)
    80003d82:	03051f13          	sll	t5,a0,0x30
    80003d86:	030f5393          	srl	t2,t5,0x30
    80003d8a:	9fb9                	addw	a5,a5,a4
    80003d8c:	5afa48e3          	blt	s4,a5,80004b3c <core_bench_matrix+0x167c>
    80003d90:	00ed28b3          	slt	a7,s10,a4
    80003d94:	00788fbb          	addw	t6,a7,t2
    80003d98:	010f9e9b          	sllw	t4,t6,0x10
    80003d9c:	410ed51b          	sraw	a0,t4,0x10
    80003da0:	0691                	add	a3,a3,4
    80003da2:	833a                	mv	t1,a4
    80003da4:	4298                	lw	a4,0(a3)
    80003da6:	1542                	sll	a0,a0,0x30
    80003da8:	03055813          	srl	a6,a0,0x30
    80003dac:	9fb9                	addw	a5,a5,a4
    80003dae:	54fa4be3          	blt	s4,a5,80004b04 <core_bench_matrix+0x1644>
    80003db2:	00e32e33          	slt	t3,t1,a4
    80003db6:	010e063b          	addw	a2,t3,a6
    80003dba:	01061d1b          	sllw	s10,a2,0x10
    80003dbe:	410d551b          	sraw	a0,s10,0x10
    80003dc2:	0691                	add	a3,a3,4
    80003dc4:	7e569563          	bne	a3,t0,800045ae <core_bench_matrix+0x10ee>
    80003dc8:	b05fd0ef          	jal	800018cc <crc16>
    80003dcc:	85aa                	mv	a1,a0
    80003dce:	88a6                	mv	a7,s1
    80003dd0:	4701                	li	a4,0
    80003dd2:	4681                	li	a3,0
    80003dd4:	866e                	mv	a2,s11
    80003dd6:	4781                	li	a5,0
    80003dd8:	00e78dbb          	addw	s11,a5,a4
    80003ddc:	020d9e13          	sll	t3,s11,0x20
    80003de0:	40e882b3          	sub	t0,a7,a4
    80003de4:	01ee5513          	srl	a0,t3,0x1e
    80003de8:	0032fd13          	and	s10,t0,3
    80003dec:	00a90f33          	add	t5,s2,a0
    80003df0:	883e                	mv	a6,a5
    80003df2:	853a                	mv	a0,a4
    80003df4:	4e01                	li	t3,0
    80003df6:	0a0d0063          	beqz	s10,80003e96 <core_bench_matrix+0x9d6>
    80003dfa:	4385                	li	t2,1
    80003dfc:	067d0263          	beq	s10,t2,80003e60 <core_bench_matrix+0x9a0>
    80003e00:	4f89                	li	t6,2
    80003e02:	03fd0863          	beq	s10,t6,80003e32 <core_bench_matrix+0x972>
    80003e06:	02071e93          	sll	t4,a4,0x20
    80003e0a:	02079313          	sll	t1,a5,0x20
    80003e0e:	01fed093          	srl	ra,t4,0x1f
    80003e12:	01f35d93          	srl	s11,t1,0x1f
    80003e16:	00140833          	add	a6,s0,ra
    80003e1a:	01b982b3          	add	t0,s3,s11
    80003e1e:	00081e03          	lh	t3,0(a6)
    80003e22:	00029d03          	lh	s10,0(t0)
    80003e26:	0017051b          	addw	a0,a4,1
    80003e2a:	00f4883b          	addw	a6,s1,a5
    80003e2e:	03ae0e3b          	mulw	t3,t3,s10
    80003e32:	02051393          	sll	t2,a0,0x20
    80003e36:	02081f93          	sll	t6,a6,0x20
    80003e3a:	01f3de93          	srl	t4,t2,0x1f
    80003e3e:	01ffd093          	srl	ra,t6,0x1f
    80003e42:	01d40db3          	add	s11,s0,t4
    80003e46:	00198333          	add	t1,s3,ra
    80003e4a:	000d9283          	lh	t0,0(s11)
    80003e4e:	00031d03          	lh	s10,0(t1)
    80003e52:	2505                	addw	a0,a0,1
    80003e54:	0104883b          	addw	a6,s1,a6
    80003e58:	03a283bb          	mulw	t2,t0,s10
    80003e5c:	01c38e3b          	addw	t3,t2,t3
    80003e60:	02051e93          	sll	t4,a0,0x20
    80003e64:	02081f93          	sll	t6,a6,0x20
    80003e68:	01fed093          	srl	ra,t4,0x1f
    80003e6c:	01ffdd93          	srl	s11,t6,0x1f
    80003e70:	001402b3          	add	t0,s0,ra
    80003e74:	01b98333          	add	t1,s3,s11
    80003e78:	00029d03          	lh	s10,0(t0)
    80003e7c:	00031383          	lh	t2,0(t1)
    80003e80:	2505                	addw	a0,a0,1
    80003e82:	8eaa                	mv	t4,a0
    80003e84:	027d00bb          	mulw	ra,s10,t2
    80003e88:	0104883b          	addw	a6,s1,a6
    80003e8c:	01c08e3b          	addw	t3,ra,t3
    80003e90:	8ff2                	mv	t6,t3
    80003e92:	0d150463          	beq	a0,a7,80003f5a <core_bench_matrix+0xa9a>
    80003e96:	02051293          	sll	t0,a0,0x20
    80003e9a:	01f2d393          	srl	t2,t0,0x1f
    80003e9e:	00150d9b          	addw	s11,a0,1
    80003ea2:	01048d3b          	addw	s10,s1,a6
    80003ea6:	02081313          	sll	t1,a6,0x20
    80003eaa:	007400b3          	add	ra,s0,t2
    80003eae:	00009283          	lh	t0,0(ra)
    80003eb2:	01f35513          	srl	a0,t1,0x1f
    80003eb6:	001d8e9b          	addw	t4,s11,1
    80003eba:	020d1f93          	sll	t6,s10,0x20
    80003ebe:	01a4833b          	addw	t1,s1,s10
    80003ec2:	00a983b3          	add	t2,s3,a0
    80003ec6:	020d9813          	sll	a6,s11,0x20
    80003eca:	001e851b          	addw	a0,t4,1
    80003ece:	01ffdd13          	srl	s10,t6,0x1f
    80003ed2:	1e82                	sll	t4,t4,0x20
    80003ed4:	01a98fb3          	add	t6,s3,s10
    80003ed8:	01f85d93          	srl	s11,a6,0x1f
    80003edc:	01fedd13          	srl	s10,t4,0x1f
    80003ee0:	0064883b          	addw	a6,s1,t1
    80003ee4:	1302                	sll	t1,t1,0x20
    80003ee6:	01f35e93          	srl	t4,t1,0x1f
    80003eea:	c616                	sw	t0,12(sp)
    80003eec:	02081313          	sll	t1,a6,0x20
    80003ef0:	01a402b3          	add	t0,s0,s10
    80003ef4:	02051d13          	sll	s10,a0,0x20
    80003ef8:	000f9083          	lh	ra,0(t6)
    80003efc:	01f35313          	srl	t1,t1,0x1f
    80003f00:	01d98fb3          	add	t6,s3,t4
    80003f04:	01fd5e93          	srl	t4,s10,0x1f
    80003f08:	00039383          	lh	t2,0(t2)
    80003f0c:	00029d03          	lh	s10,0(t0)
    80003f10:	9da2                	add	s11,s11,s0
    80003f12:	01d402b3          	add	t0,s0,t4
    80003f16:	00698eb3          	add	t4,s3,t1
    80003f1a:	4332                	lw	t1,12(sp)
    80003f1c:	000d9d83          	lh	s11,0(s11)
    80003f20:	000f9f83          	lh	t6,0(t6)
    80003f24:	0273033b          	mulw	t1,t1,t2
    80003f28:	00029383          	lh	t2,0(t0)
    80003f2c:	000e9283          	lh	t0,0(t4)
    80003f30:	2505                	addw	a0,a0,1
    80003f32:	8eaa                	mv	t4,a0
    80003f34:	0104883b          	addw	a6,s1,a6
    80003f38:	021d8dbb          	mulw	s11,s11,ra
    80003f3c:	01c30e3b          	addw	t3,t1,t3
    80003f40:	03fd00bb          	mulw	ra,s10,t6
    80003f44:	01cd8d3b          	addw	s10,s11,t3
    80003f48:	02538fbb          	mulw	t6,t2,t0
    80003f4c:	01a0833b          	addw	t1,ra,s10
    80003f50:	006f8e3b          	addw	t3,t6,t1
    80003f54:	8ff2                	mv	t6,t3
    80003f56:	f51510e3          	bne	a0,a7,80003e96 <core_bench_matrix+0x9d6>
    80003f5a:	01ff2023          	sw	t6,0(t5)
    80003f5e:	2785                	addw	a5,a5,1
    80003f60:	e6f49ce3          	bne	s1,a5,80003dd8 <core_bench_matrix+0x918>
    80003f64:	2685                	addw	a3,a3,1
    80003f66:	9f25                	addw	a4,a4,s1
    80003f68:	009e88bb          	addw	a7,t4,s1
    80003f6c:	e696e5e3          	bltu	a3,s1,80003dd6 <core_bench_matrix+0x916>
    80003f70:	8db2                	mv	s11,a2
    80003f72:	560c0ce3          	beqz	s8,80004cea <core_bench_matrix+0x182a>
    80003f76:	020c9493          	sll	s1,s9,0x20
    80003f7a:	0204dd13          	srl	s10,s1,0x20
    80003f7e:	002d1f13          	sll	t5,s10,0x2
    80003f82:	ffcf0613          	add	a2,t5,-4
    80003f86:	00265513          	srl	a0,a2,0x2
    80003f8a:	00150813          	add	a6,a0,1
    80003f8e:	00787e93          	and	t4,a6,7
    80003f92:	01e904b3          	add	s1,s2,t5
    80003f96:	86ca                	mv	a3,s2
    80003f98:	4701                	li	a4,0
    80003f9a:	4501                	li	a0,0
    80003f9c:	4781                	li	a5,0
    80003f9e:	000e86e3          	beqz	t4,800047aa <core_bench_matrix+0x12ea>
    80003fa2:	4385                	li	t2,1
    80003fa4:	0e7e8363          	beq	t4,t2,8000408a <core_bench_matrix+0xbca>
    80003fa8:	4289                	li	t0,2
    80003faa:	0a5e8e63          	beq	t4,t0,80004066 <core_bench_matrix+0xba6>
    80003fae:	4e0d                	li	t3,3
    80003fb0:	09ce8963          	beq	t4,t3,80004042 <core_bench_matrix+0xb82>
    80003fb4:	4091                	li	ra,4
    80003fb6:	061e8563          	beq	t4,ra,80004020 <core_bench_matrix+0xb60>
    80003fba:	4f95                	li	t6,5
    80003fbc:	05fe8163          	beq	t4,t6,80003ffe <core_bench_matrix+0xb3e>
    80003fc0:	4319                	li	t1,6
    80003fc2:	006e8d63          	beq	t4,t1,80003fdc <core_bench_matrix+0xb1c>
    80003fc6:	00092703          	lw	a4,0(s2)
    80003fca:	87ba                	mv	a5,a4
    80003fcc:	00e02533          	sgtz	a0,a4
    80003fd0:	00ea5463          	bge	s4,a4,80003fd8 <core_bench_matrix+0xb18>
    80003fd4:	4529                	li	a0,10
    80003fd6:	4781                	li	a5,0
    80003fd8:	00490693          	add	a3,s2,4
    80003fdc:	88ba                	mv	a7,a4
    80003fde:	4298                	lw	a4,0(a3)
    80003fe0:	03051f13          	sll	t5,a0,0x30
    80003fe4:	030f5613          	srl	a2,t5,0x30
    80003fe8:	9fb9                	addw	a5,a5,a4
    80003fea:	4cfa58e3          	bge	s4,a5,80004cba <core_bench_matrix+0x17fa>
    80003fee:	00a6079b          	addw	a5,a2,10
    80003ff2:	0107939b          	sllw	t2,a5,0x10
    80003ff6:	4103d51b          	sraw	a0,t2,0x10
    80003ffa:	4781                	li	a5,0
    80003ffc:	0691                	add	a3,a3,4
    80003ffe:	82ba                	mv	t0,a4
    80004000:	4298                	lw	a4,0(a3)
    80004002:	03051e13          	sll	t3,a0,0x30
    80004006:	030e5093          	srl	ra,t3,0x30
    8000400a:	9fb9                	addw	a5,a5,a4
    8000400c:	3efa5de3          	bge	s4,a5,80004c06 <core_bench_matrix+0x1746>
    80004010:	00a08f1b          	addw	t5,ra,10
    80004014:	010f161b          	sllw	a2,t5,0x10
    80004018:	4106551b          	sraw	a0,a2,0x10
    8000401c:	4781                	li	a5,0
    8000401e:	0691                	add	a3,a3,4
    80004020:	883a                	mv	a6,a4
    80004022:	4298                	lw	a4,0(a3)
    80004024:	1542                	sll	a0,a0,0x30
    80004026:	03055e93          	srl	t4,a0,0x30
    8000402a:	9fb9                	addw	a5,a5,a4
    8000402c:	38fa44e3          	blt	s4,a5,80004bb4 <core_bench_matrix+0x16f4>
    80004030:	00e823b3          	slt	t2,a6,a4
    80004034:	01d382bb          	addw	t0,t2,t4
    80004038:	01029e1b          	sllw	t3,t0,0x10
    8000403c:	410e551b          	sraw	a0,t3,0x10
    80004040:	0691                	add	a3,a3,4
    80004042:	8fba                	mv	t6,a4
    80004044:	4298                	lw	a4,0(a3)
    80004046:	03051313          	sll	t1,a0,0x30
    8000404a:	03035893          	srl	a7,t1,0x30
    8000404e:	9fb9                	addw	a5,a5,a4
    80004050:	32fa4ee3          	blt	s4,a5,80004b8c <core_bench_matrix+0x16cc>
    80004054:	00efaf33          	slt	t5,t6,a4
    80004058:	011f063b          	addw	a2,t5,a7
    8000405c:	0106181b          	sllw	a6,a2,0x10
    80004060:	4108551b          	sraw	a0,a6,0x10
    80004064:	0691                	add	a3,a3,4
    80004066:	83ba                	mv	t2,a4
    80004068:	4298                	lw	a4,0(a3)
    8000406a:	03051293          	sll	t0,a0,0x30
    8000406e:	0302de13          	srl	t3,t0,0x30
    80004072:	9fb9                	addw	a5,a5,a4
    80004074:	2cfa4ee3          	blt	s4,a5,80004b50 <core_bench_matrix+0x1690>
    80004078:	00e3a0b3          	slt	ra,t2,a4
    8000407c:	01c08fbb          	addw	t6,ra,t3
    80004080:	010f931b          	sllw	t1,t6,0x10
    80004084:	4103551b          	sraw	a0,t1,0x10
    80004088:	0691                	add	a3,a3,4
    8000408a:	8f3a                	mv	t5,a4
    8000408c:	4298                	lw	a4,0(a3)
    8000408e:	03051613          	sll	a2,a0,0x30
    80004092:	03065813          	srl	a6,a2,0x30
    80004096:	9fb9                	addw	a5,a5,a4
    80004098:	24fa4de3          	blt	s4,a5,80004af2 <core_bench_matrix+0x1632>
    8000409c:	00ef2533          	slt	a0,t5,a4
    800040a0:	01050ebb          	addw	t4,a0,a6
    800040a4:	010e939b          	sllw	t2,t4,0x10
    800040a8:	4103d51b          	sraw	a0,t2,0x10
    800040ac:	0691                	add	a3,a3,4
    800040ae:	6ed49e63          	bne	s1,a3,800047aa <core_bench_matrix+0x12ea>
    800040b2:	81bfd0ef          	jal	800018cc <crc16>
    800040b6:	0d06                	sll	s10,s10,0x1
    800040b8:	ffed0593          	add	a1,s10,-2
    800040bc:	0015d813          	srl	a6,a1,0x1
    800040c0:	00180e93          	add	t4,a6,1
    800040c4:	007ef393          	and	t2,t4,7
    800040c8:	85aa                	mv	a1,a0
    800040ca:	01a982b3          	add	t0,s3,s10
    800040ce:	87ca                	mv	a5,s2
    800040d0:	08038663          	beqz	t2,8000415c <core_bench_matrix+0xc9c>
    800040d4:	4505                	li	a0,1
    800040d6:	06a38963          	beq	t2,a0,80004148 <core_bench_matrix+0xc88>
    800040da:	4e09                	li	t3,2
    800040dc:	05c38e63          	beq	t2,t3,80004138 <core_bench_matrix+0xc78>
    800040e0:	470d                	li	a4,3
    800040e2:	04e38363          	beq	t2,a4,80004128 <core_bench_matrix+0xc68>
    800040e6:	4091                	li	ra,4
    800040e8:	02138863          	beq	t2,ra,80004118 <core_bench_matrix+0xc58>
    800040ec:	4f95                	li	t6,5
    800040ee:	01f38d63          	beq	t2,t6,80004108 <core_bench_matrix+0xc48>
    800040f2:	4319                	li	t1,6
    800040f4:	366395e3          	bne	t2,t1,80004c5e <core_bench_matrix+0x179e>
    800040f8:	000adf03          	lhu	t5,0(s5)
    800040fc:	0791                	add	a5,a5,4
    800040fe:	0a89                	add	s5,s5,2
    80004100:	00ff7613          	and	a2,t5,15
    80004104:	fec7ae23          	sw	a2,-4(a5)
    80004108:	000ad683          	lhu	a3,0(s5)
    8000410c:	0791                	add	a5,a5,4
    8000410e:	0a89                	add	s5,s5,2
    80004110:	00f6fd13          	and	s10,a3,15
    80004114:	ffa7ae23          	sw	s10,-4(a5)
    80004118:	000ad803          	lhu	a6,0(s5)
    8000411c:	0791                	add	a5,a5,4
    8000411e:	0a89                	add	s5,s5,2
    80004120:	00f87e93          	and	t4,a6,15
    80004124:	ffd7ae23          	sw	t4,-4(a5)
    80004128:	000ad383          	lhu	t2,0(s5)
    8000412c:	0791                	add	a5,a5,4
    8000412e:	0a89                	add	s5,s5,2
    80004130:	00f3f513          	and	a0,t2,15
    80004134:	fea7ae23          	sw	a0,-4(a5)
    80004138:	000ade03          	lhu	t3,0(s5)
    8000413c:	0791                	add	a5,a5,4
    8000413e:	0a89                	add	s5,s5,2
    80004140:	00fe7713          	and	a4,t3,15
    80004144:	fee7ae23          	sw	a4,-4(a5)
    80004148:	000ad083          	lhu	ra,0(s5)
    8000414c:	0791                	add	a5,a5,4
    8000414e:	0a89                	add	s5,s5,2
    80004150:	00f0ff93          	and	t6,ra,15
    80004154:	fff7ae23          	sw	t6,-4(a5)
    80004158:	065a8563          	beq	s5,t0,800041c2 <core_bench_matrix+0xd02>
    8000415c:	000ad983          	lhu	s3,0(s5)
    80004160:	002adf03          	lhu	t5,2(s5)
    80004164:	004ad303          	lhu	t1,4(s5)
    80004168:	006ad883          	lhu	a7,6(s5)
    8000416c:	008ad683          	lhu	a3,8(s5)
    80004170:	00aadd03          	lhu	s10,10(s5)
    80004174:	00cad603          	lhu	a2,12(s5)
    80004178:	00ead383          	lhu	t2,14(s5)
    8000417c:	00f9fe93          	and	t4,s3,15
    80004180:	00ff7e13          	and	t3,t5,15
    80004184:	00f37093          	and	ra,t1,15
    80004188:	00f8ff93          	and	t6,a7,15
    8000418c:	00f6f813          	and	a6,a3,15
    80004190:	00fd7513          	and	a0,s10,15
    80004194:	00f67993          	and	s3,a2,15
    80004198:	00f3f713          	and	a4,t2,15
    8000419c:	01d7a023          	sw	t4,0(a5)
    800041a0:	01c7a223          	sw	t3,4(a5)
    800041a4:	0017a423          	sw	ra,8(a5)
    800041a8:	01f7a623          	sw	t6,12(a5)
    800041ac:	0107a823          	sw	a6,16(a5)
    800041b0:	cbc8                	sw	a0,20(a5)
    800041b2:	0137ac23          	sw	s3,24(a5)
    800041b6:	cfd8                	sw	a4,28(a5)
    800041b8:	0ac1                	add	s5,s5,16
    800041ba:	02078793          	add	a5,a5,32
    800041be:	f85a9fe3          	bne	s5,t0,8000415c <core_bench_matrix+0xc9c>
    800041c2:	41248ab3          	sub	s5,s1,s2
    800041c6:	ffca8293          	add	t0,s5,-4
    800041ca:	0022d793          	srl	a5,t0,0x2
    800041ce:	00178f13          	add	t5,a5,1
    800041d2:	007f7313          	and	t1,t5,7
    800041d6:	4701                	li	a4,0
    800041d8:	4501                	li	a0,0
    800041da:	4781                	li	a5,0
    800041dc:	7c030663          	beqz	t1,800049a8 <core_bench_matrix+0x14e8>
    800041e0:	4885                	li	a7,1
    800041e2:	0f130963          	beq	t1,a7,800042d4 <core_bench_matrix+0xe14>
    800041e6:	4689                	li	a3,2
    800041e8:	0cd30363          	beq	t1,a3,800042ae <core_bench_matrix+0xdee>
    800041ec:	4d0d                	li	s10,3
    800041ee:	09a30d63          	beq	t1,s10,80004288 <core_bench_matrix+0xdc8>
    800041f2:	4611                	li	a2,4
    800041f4:	06c30763          	beq	t1,a2,80004262 <core_bench_matrix+0xda2>
    800041f8:	4395                	li	t2,5
    800041fa:	04730263          	beq	t1,t2,8000423e <core_bench_matrix+0xd7e>
    800041fe:	4e99                	li	t4,6
    80004200:	01d30d63          	beq	t1,t4,8000421a <core_bench_matrix+0xd5a>
    80004204:	00092703          	lw	a4,0(s2)
    80004208:	87ba                	mv	a5,a4
    8000420a:	00e02533          	sgtz	a0,a4
    8000420e:	00ea5463          	bge	s4,a4,80004216 <core_bench_matrix+0xd56>
    80004212:	4529                	li	a0,10
    80004214:	4781                	li	a5,0
    80004216:	00490b13          	add	s6,s2,4
    8000421a:	893a                	mv	s2,a4
    8000421c:	000b2703          	lw	a4,0(s6)
    80004220:	03051e13          	sll	t3,a0,0x30
    80004224:	030e5093          	srl	ra,t3,0x30
    80004228:	9fb9                	addw	a5,a5,a4
    8000422a:	20fa5fe3          	bge	s4,a5,80004c48 <core_bench_matrix+0x1788>
    8000422e:	00a0899b          	addw	s3,ra,10
    80004232:	01099a9b          	sllw	s5,s3,0x10
    80004236:	410ad51b          	sraw	a0,s5,0x10
    8000423a:	4781                	li	a5,0
    8000423c:	0b11                	add	s6,s6,4
    8000423e:	82ba                	mv	t0,a4
    80004240:	000b2703          	lw	a4,0(s6)
    80004244:	03051f13          	sll	t5,a0,0x30
    80004248:	030f5313          	srl	t1,t5,0x30
    8000424c:	9fb9                	addw	a5,a5,a4
    8000424e:	1cfa57e3          	bge	s4,a5,80004c1c <core_bench_matrix+0x175c>
    80004252:	00a3079b          	addw	a5,t1,10
    80004256:	0107961b          	sllw	a2,a5,0x10
    8000425a:	4106551b          	sraw	a0,a2,0x10
    8000425e:	4781                	li	a5,0
    80004260:	0b11                	add	s6,s6,4
    80004262:	83ba                	mv	t2,a4
    80004264:	000b2703          	lw	a4,0(s6)
    80004268:	03051e93          	sll	t4,a0,0x30
    8000426c:	030ed913          	srl	s2,t4,0x30
    80004270:	9fb9                	addw	a5,a5,a4
    80004272:	12fa47e3          	blt	s4,a5,80004ba0 <core_bench_matrix+0x16e0>
    80004276:	00e3ae33          	slt	t3,t2,a4
    8000427a:	012e00bb          	addw	ra,t3,s2
    8000427e:	01009f9b          	sllw	t6,ra,0x10
    80004282:	410fd51b          	sraw	a0,t6,0x10
    80004286:	0b11                	add	s6,s6,4
    80004288:	89ba                	mv	s3,a4
    8000428a:	000b2703          	lw	a4,0(s6)
    8000428e:	03051a93          	sll	s5,a0,0x30
    80004292:	030ad293          	srl	t0,s5,0x30
    80004296:	9fb9                	addw	a5,a5,a4
    80004298:	0cfa46e3          	blt	s4,a5,80004b64 <core_bench_matrix+0x16a4>
    8000429c:	00e9af33          	slt	t5,s3,a4
    800042a0:	005f033b          	addw	t1,t5,t0
    800042a4:	0103189b          	sllw	a7,t1,0x10
    800042a8:	4108d51b          	sraw	a0,a7,0x10
    800042ac:	0b11                	add	s6,s6,4
    800042ae:	863a                	mv	a2,a4
    800042b0:	000b2703          	lw	a4,0(s6)
    800042b4:	03051393          	sll	t2,a0,0x30
    800042b8:	0303de93          	srl	t4,t2,0x30
    800042bc:	9fb9                	addw	a5,a5,a4
    800042be:	06fa45e3          	blt	s4,a5,80004b28 <core_bench_matrix+0x1668>
    800042c2:	00e62933          	slt	s2,a2,a4
    800042c6:	01d90e3b          	addw	t3,s2,t4
    800042ca:	010e109b          	sllw	ra,t3,0x10
    800042ce:	4100d51b          	sraw	a0,ra,0x10
    800042d2:	0b11                	add	s6,s6,4
    800042d4:	883a                	mv	a6,a4
    800042d6:	000b2703          	lw	a4,0(s6)
    800042da:	1542                	sll	a0,a0,0x30
    800042dc:	03055993          	srl	s3,a0,0x30
    800042e0:	9fb9                	addw	a5,a5,a4
    800042e2:	02fa4ae3          	blt	s4,a5,80004b16 <core_bench_matrix+0x1656>
    800042e6:	00e82ab3          	slt	s5,a6,a4
    800042ea:	013a82bb          	addw	t0,s5,s3
    800042ee:	01029f1b          	sllw	t5,t0,0x10
    800042f2:	410f551b          	sraw	a0,t5,0x10
    800042f6:	0b11                	add	s6,s6,4
    800042f8:	6b649863          	bne	s1,s6,800049a8 <core_bench_matrix+0x14e8>
    800042fc:	dd0fd0ef          	jal	800018cc <crc16>
    80004300:	00145a13          	srl	s4,s0,0x1
    80004304:	414004bb          	negw	s1,s4
    80004308:	1bc2                	sll	s7,s7,0x30
    8000430a:	fffc859b          	addw	a1,s9,-1
    8000430e:	4b15                	li	s6,5
    80004310:	030bd393          	srl	t2,s7,0x30
    80004314:	0034fe93          	and	t4,s1,3
    80004318:	1ebb75e3          	bgeu	s6,a1,80004d02 <core_bench_matrix+0x1842>
    8000431c:	4981                	li	s3,0
    8000431e:	020e8e63          	beqz	t4,8000435a <core_bench_matrix+0xe9a>
    80004322:	00045d03          	lhu	s10,0(s0)
    80004326:	0024f913          	and	s2,s1,2
    8000432a:	4985                	li	s3,1
    8000432c:	407d063b          	subw	a2,s10,t2
    80004330:	00c41023          	sh	a2,0(s0)
    80004334:	02090363          	beqz	s2,8000435a <core_bench_matrix+0xe9a>
    80004338:	00245e03          	lhu	t3,2(s0)
    8000433c:	408d                	li	ra,3
    8000433e:	4989                	li	s3,2
    80004340:	407e0fbb          	subw	t6,t3,t2
    80004344:	01f41123          	sh	t6,2(s0)
    80004348:	001e9963          	bne	t4,ra,8000435a <core_bench_matrix+0xe9a>
    8000434c:	00445803          	lhu	a6,4(s0)
    80004350:	498d                	li	s3,3
    80004352:	4078073b          	subw	a4,a6,t2
    80004356:	00e41223          	sh	a4,4(s0)
    8000435a:	41dc8abb          	subw	s5,s9,t4
    8000435e:	01039293          	sll	t0,t2,0x10
    80004362:	02039f13          	sll	t5,t2,0x20
    80004366:	0053e333          	or	t1,t2,t0
    8000436a:	001e9793          	sll	a5,t4,0x1
    8000436e:	002ad69b          	srlw	a3,s5,0x2
    80004372:	01e368b3          	or	a7,t1,t5
    80004376:	03039a13          	sll	s4,t2,0x30
    8000437a:	00f40f33          	add	t5,s0,a5
    8000437e:	00369493          	sll	s1,a3,0x3
    80004382:	0148e5b3          	or	a1,a7,s4
    80004386:	01e48b33          	add	s6,s1,t5
    8000438a:	000f3b83          	ld	s7,0(t5)
    8000438e:	00005e97          	auipc	t4,0x5
    80004392:	00005c97          	auipc	s9,0x5
    80004396:	e7aebd03          	ld	s10,-390(t4) # 80009208 <mem_name+0x38>
    8000439a:	e6ecb903          	ld	s2,-402(s9) # 80009200 <mem_name+0x30>
    8000439e:	00bbc633          	xor	a2,s7,a1
    800043a2:	fff64093          	not	ra,a2
    800043a6:	01abefb3          	or	t6,s7,s10
    800043aa:	0125fe33          	and	t3,a1,s2
    800043ae:	01a0f833          	and	a6,ra,s10
    800043b2:	41cf8733          	sub	a4,t6,t3
    800043b6:	00e842b3          	xor	t0,a6,a4
    800043ba:	005f3023          	sd	t0,0(t5)
    800043be:	0f21                	add	t5,t5,8
    800043c0:	fd6f15e3          	bne	t5,s6,8000438a <core_bench_matrix+0xeca>
    800043c4:	ffcaf313          	and	t1,s5,-4
    800043c8:	003afa93          	and	s5,s5,3
    800043cc:	01330cbb          	addw	s9,t1,s3
    800043d0:	0c0a8663          	beqz	s5,8000449c <core_bench_matrix+0xfdc>
    800043d4:	020c9993          	sll	s3,s9,0x20
    800043d8:	01f9d793          	srl	a5,s3,0x1f
    800043dc:	00f40a33          	add	s4,s0,a5
    800043e0:	000a5883          	lhu	a7,0(s4)
    800043e4:	001c869b          	addw	a3,s9,1
    800043e8:	0006849b          	sext.w	s1,a3
    800043ec:	407885bb          	subw	a1,a7,t2
    800043f0:	00ba1023          	sh	a1,0(s4)
    800043f4:	0b84f463          	bgeu	s1,s8,8000449c <core_bench_matrix+0xfdc>
    800043f8:	02069b13          	sll	s6,a3,0x20
    800043fc:	01fb5b93          	srl	s7,s6,0x1f
    80004400:	01740eb3          	add	t4,s0,s7
    80004404:	000edd03          	lhu	s10,0(t4)
    80004408:	002c891b          	addw	s2,s9,2
    8000440c:	0009061b          	sext.w	a2,s2
    80004410:	407d00bb          	subw	ra,s10,t2
    80004414:	001e9023          	sh	ra,0(t4)
    80004418:	09867263          	bgeu	a2,s8,8000449c <core_bench_matrix+0xfdc>
    8000441c:	02091f93          	sll	t6,s2,0x20
    80004420:	01ffde13          	srl	t3,t6,0x1f
    80004424:	01c40733          	add	a4,s0,t3
    80004428:	00075803          	lhu	a6,0(a4)
    8000442c:	003c829b          	addw	t0,s9,3
    80004430:	00028f1b          	sext.w	t5,t0
    80004434:	4078033b          	subw	t1,a6,t2
    80004438:	00671023          	sh	t1,0(a4)
    8000443c:	078f7063          	bgeu	t5,s8,8000449c <core_bench_matrix+0xfdc>
    80004440:	02029a93          	sll	s5,t0,0x20
    80004444:	01fad993          	srl	s3,s5,0x1f
    80004448:	013407b3          	add	a5,s0,s3
    8000444c:	0007da03          	lhu	s4,0(a5)
    80004450:	004c889b          	addw	a7,s9,4
    80004454:	0008869b          	sext.w	a3,a7
    80004458:	407a04bb          	subw	s1,s4,t2
    8000445c:	00979023          	sh	s1,0(a5)
    80004460:	0386fe63          	bgeu	a3,s8,8000449c <core_bench_matrix+0xfdc>
    80004464:	02089593          	sll	a1,a7,0x20
    80004468:	01f5db13          	srl	s6,a1,0x1f
    8000446c:	01640bb3          	add	s7,s0,s6
    80004470:	000bde83          	lhu	t4,0(s7)
    80004474:	2c95                	addw	s9,s9,5
    80004476:	000c8d1b          	sext.w	s10,s9
    8000447a:	407e893b          	subw	s2,t4,t2
    8000447e:	012b9023          	sh	s2,0(s7)
    80004482:	018d7d63          	bgeu	s10,s8,8000449c <core_bench_matrix+0xfdc>
    80004486:	020c9c13          	sll	s8,s9,0x20
    8000448a:	01fc5613          	srl	a2,s8,0x1f
    8000448e:	9432                	add	s0,s0,a2
    80004490:	00045083          	lhu	ra,0(s0)
    80004494:	407083bb          	subw	t2,ra,t2
    80004498:	00741023          	sh	t2,0(s0)
    8000449c:	7446                	ld	s0,112(sp)
    8000449e:	70e6                	ld	ra,120(sp)
    800044a0:	74a6                	ld	s1,104(sp)
    800044a2:	7906                	ld	s2,96(sp)
    800044a4:	69e6                	ld	s3,88(sp)
    800044a6:	6a46                	ld	s4,80(sp)
    800044a8:	6aa6                	ld	s5,72(sp)
    800044aa:	6b06                	ld	s6,64(sp)
    800044ac:	7be2                	ld	s7,56(sp)
    800044ae:	7c42                	ld	s8,48(sp)
    800044b0:	7ca2                	ld	s9,40(sp)
    800044b2:	7d02                	ld	s10,32(sp)
    800044b4:	85ee                	mv	a1,s11
    800044b6:	6de2                	ld	s11,24(sp)
    800044b8:	0105151b          	sllw	a0,a0,0x10
    800044bc:	4105551b          	sraw	a0,a0,0x10
    800044c0:	6109                	add	sp,sp,128
    800044c2:	c0afd06f          	j	800018cc <crc16>
    800044c6:	0046a303          	lw	t1,4(a3)
    800044ca:	00af0e9b          	addw	t4,t5,10
    800044ce:	010e979b          	sllw	a5,t4,0x10
    800044d2:	4107d71b          	sraw	a4,a5,0x10
    800044d6:	4081                	li	ra,0
    800044d8:	03071513          	sll	a0,a4,0x30
    800044dc:	00130fbb          	addw	t6,t1,ra
    800044e0:	03055813          	srl	a6,a0,0x30
    800044e4:	13fa4363          	blt	s4,t6,8000460a <core_bench_matrix+0x114a>
    800044e8:	006d2e33          	slt	t3,s10,t1
    800044ec:	0086ae83          	lw	t4,8(a3)
    800044f0:	010e0d3b          	addw	s10,t3,a6
    800044f4:	010d161b          	sllw	a2,s10,0x10
    800044f8:	4106589b          	sraw	a7,a2,0x10
    800044fc:	03089793          	sll	a5,a7,0x30
    80004500:	01fe8f3b          	addw	t5,t4,t6
    80004504:	0307d713          	srl	a4,a5,0x30
    80004508:	13ea4263          	blt	s4,t5,8000462c <core_bench_matrix+0x116c>
    8000450c:	01d320b3          	slt	ra,t1,t4
    80004510:	46d0                	lw	a2,12(a3)
    80004512:	00e0833b          	addw	t1,ra,a4
    80004516:	0103151b          	sllw	a0,t1,0x10
    8000451a:	41055d1b          	sraw	s10,a0,0x10
    8000451e:	030d1393          	sll	t2,s10,0x30
    80004522:	01e6083b          	addw	a6,a2,t5
    80004526:	0303d893          	srl	a7,t2,0x30
    8000452a:	130a4163          	blt	s4,a6,8000464c <core_bench_matrix+0x118c>
    8000452e:	00ceafb3          	slt	t6,t4,a2
    80004532:	0106ae03          	lw	t3,16(a3)
    80004536:	011f8ebb          	addw	t4,t6,a7
    8000453a:	010e971b          	sllw	a4,t4,0x10
    8000453e:	4107531b          	sraw	t1,a4,0x10
    80004542:	03031513          	sll	a0,t1,0x30
    80004546:	010e073b          	addw	a4,t3,a6
    8000454a:	03055d13          	srl	s10,a0,0x30
    8000454e:	12ea4063          	blt	s4,a4,8000466e <core_bench_matrix+0x11ae>
    80004552:	01c62f33          	slt	t5,a2,t3
    80004556:	0146a083          	lw	ra,20(a3)
    8000455a:	01af063b          	addw	a2,t5,s10
    8000455e:	0106139b          	sllw	t2,a2,0x10
    80004562:	4103de9b          	sraw	t4,t2,0x10
    80004566:	030e9793          	sll	a5,t4,0x30
    8000456a:	00e083bb          	addw	t2,ra,a4
    8000456e:	0307d313          	srl	t1,a5,0x30
    80004572:	107a4f63          	blt	s4,t2,80004690 <core_bench_matrix+0x11d0>
    80004576:	001e2833          	slt	a6,t3,ra
    8000457a:	4e98                	lw	a4,24(a3)
    8000457c:	00680e3b          	addw	t3,a6,t1
    80004580:	010e151b          	sllw	a0,t3,0x10
    80004584:	4105561b          	sraw	a2,a0,0x10
    80004588:	03061893          	sll	a7,a2,0x30
    8000458c:	007707bb          	addw	a5,a4,t2
    80004590:	0308df93          	srl	t6,a7,0x30
    80004594:	10fa4e63          	blt	s4,a5,800046b0 <core_bench_matrix+0x11f0>
    80004598:	00e0aeb3          	slt	t4,ra,a4
    8000459c:	01fe80bb          	addw	ra,t4,t6
    800045a0:	0100931b          	sllw	t1,ra,0x10
    800045a4:	4103551b          	sraw	a0,t1,0x10
    800045a8:	06f1                	add	a3,a3,28
    800045aa:	80568fe3          	beq	a3,t0,80003dc8 <core_bench_matrix+0x908>
    800045ae:	0006a883          	lw	a7,0(a3)
    800045b2:	03051f93          	sll	t6,a0,0x30
    800045b6:	030fde93          	srl	t4,t6,0x30
    800045ba:	00f887bb          	addw	a5,a7,a5
    800045be:	52fa5163          	bge	s4,a5,80004ae0 <core_bench_matrix+0x1620>
    800045c2:	00ae881b          	addw	a6,t4,10
    800045c6:	01081e1b          	sllw	t3,a6,0x10
    800045ca:	410e551b          	sraw	a0,t3,0x10
    800045ce:	4781                	li	a5,0
    800045d0:	0046ad03          	lw	s10,4(a3)
    800045d4:	03051613          	sll	a2,a0,0x30
    800045d8:	0691                	add	a3,a3,4
    800045da:	00fd00bb          	addw	ra,s10,a5
    800045de:	03065f13          	srl	t5,a2,0x30
    800045e2:	ee1a42e3          	blt	s4,ra,800044c6 <core_bench_matrix+0x1006>
    800045e6:	01a8a3b3          	slt	t2,a7,s10
    800045ea:	0046a303          	lw	t1,4(a3)
    800045ee:	01e388bb          	addw	a7,t2,t5
    800045f2:	01089f9b          	sllw	t6,a7,0x10
    800045f6:	410fd71b          	sraw	a4,t6,0x10
    800045fa:	03071513          	sll	a0,a4,0x30
    800045fe:	00130fbb          	addw	t6,t1,ra
    80004602:	03055813          	srl	a6,a0,0x30
    80004606:	effa51e3          	bge	s4,t6,800044e8 <core_bench_matrix+0x1028>
    8000460a:	00a80f1b          	addw	t5,a6,10
    8000460e:	0086ae83          	lw	t4,8(a3)
    80004612:	010f139b          	sllw	t2,t5,0x10
    80004616:	4103d89b          	sraw	a7,t2,0x10
    8000461a:	4f81                	li	t6,0
    8000461c:	03089793          	sll	a5,a7,0x30
    80004620:	01fe8f3b          	addw	t5,t4,t6
    80004624:	0307d713          	srl	a4,a5,0x30
    80004628:	efea52e3          	bge	s4,t5,8000450c <core_bench_matrix+0x104c>
    8000462c:	00a7081b          	addw	a6,a4,10
    80004630:	46d0                	lw	a2,12(a3)
    80004632:	01081e1b          	sllw	t3,a6,0x10
    80004636:	410e5d1b          	sraw	s10,t3,0x10
    8000463a:	4f01                	li	t5,0
    8000463c:	030d1393          	sll	t2,s10,0x30
    80004640:	01e6083b          	addw	a6,a2,t5
    80004644:	0303d893          	srl	a7,t2,0x30
    80004648:	ef0a53e3          	bge	s4,a6,8000452e <core_bench_matrix+0x106e>
    8000464c:	0106ae03          	lw	t3,16(a3)
    80004650:	00a8879b          	addw	a5,a7,10
    80004654:	0107909b          	sllw	ra,a5,0x10
    80004658:	4100d31b          	sraw	t1,ra,0x10
    8000465c:	4801                	li	a6,0
    8000465e:	03031513          	sll	a0,t1,0x30
    80004662:	010e073b          	addw	a4,t3,a6
    80004666:	03055d13          	srl	s10,a0,0x30
    8000466a:	eeea54e3          	bge	s4,a4,80004552 <core_bench_matrix+0x1092>
    8000466e:	0146a083          	lw	ra,20(a3)
    80004672:	00ad089b          	addw	a7,s10,10
    80004676:	01089f9b          	sllw	t6,a7,0x10
    8000467a:	410fde9b          	sraw	t4,t6,0x10
    8000467e:	4701                	li	a4,0
    80004680:	030e9793          	sll	a5,t4,0x30
    80004684:	00e083bb          	addw	t2,ra,a4
    80004688:	0307d313          	srl	t1,a5,0x30
    8000468c:	ee7a55e3          	bge	s4,t2,80004576 <core_bench_matrix+0x10b6>
    80004690:	4e98                	lw	a4,24(a3)
    80004692:	00a30d1b          	addw	s10,t1,10
    80004696:	010d1f1b          	sllw	t5,s10,0x10
    8000469a:	410f561b          	sraw	a2,t5,0x10
    8000469e:	4381                	li	t2,0
    800046a0:	03061893          	sll	a7,a2,0x30
    800046a4:	007707bb          	addw	a5,a4,t2
    800046a8:	0308df93          	srl	t6,a7,0x30
    800046ac:	eefa56e3          	bge	s4,a5,80004598 <core_bench_matrix+0x10d8>
    800046b0:	00af879b          	addw	a5,t6,10
    800046b4:	0107981b          	sllw	a6,a5,0x10
    800046b8:	4108551b          	sraw	a0,a6,0x10
    800046bc:	4781                	li	a5,0
    800046be:	b5ed                	j	800045a8 <core_bench_matrix+0x10e8>
    800046c0:	0046af03          	lw	t5,4(a3)
    800046c4:	00a2831b          	addw	t1,t0,10
    800046c8:	0103179b          	sllw	a5,t1,0x10
    800046cc:	4107d71b          	sraw	a4,a5,0x10
    800046d0:	4881                	li	a7,0
    800046d2:	03071613          	sll	a2,a4,0x30
    800046d6:	011f0fbb          	addw	t6,t5,a7
    800046da:	03065813          	srl	a6,a2,0x30
    800046de:	13fa4463          	blt	s4,t6,80004806 <core_bench_matrix+0x1346>
    800046e2:	01eea533          	slt	a0,t4,t5
    800046e6:	0086a303          	lw	t1,8(a3)
    800046ea:	01050ebb          	addw	t4,a0,a6
    800046ee:	010e939b          	sllw	t2,t4,0x10
    800046f2:	4103d09b          	sraw	ra,t2,0x10
    800046f6:	03009793          	sll	a5,ra,0x30
    800046fa:	01f303bb          	addw	t2,t1,t6
    800046fe:	0307d713          	srl	a4,a5,0x30
    80004702:	127a4363          	blt	s4,t2,80004828 <core_bench_matrix+0x1368>
    80004706:	006f28b3          	slt	a7,t5,t1
    8000470a:	00c6a283          	lw	t0,12(a3)
    8000470e:	00e88f3b          	addw	t5,a7,a4
    80004712:	010f161b          	sllw	a2,t5,0x10
    80004716:	41065e9b          	sraw	t4,a2,0x10
    8000471a:	030e9e13          	sll	t3,t4,0x30
    8000471e:	0072863b          	addw	a2,t0,t2
    80004722:	030e5093          	srl	ra,t3,0x30
    80004726:	12ca4263          	blt	s4,a2,8000484a <core_bench_matrix+0x138a>
    8000472a:	00532fb3          	slt	t6,t1,t0
    8000472e:	0106a803          	lw	a6,16(a3)
    80004732:	001f833b          	addw	t1,t6,ra
    80004736:	0103171b          	sllw	a4,t1,0x10
    8000473a:	41075f1b          	sraw	t5,a4,0x10
    8000473e:	030f1513          	sll	a0,t5,0x30
    80004742:	00c8073b          	addw	a4,a6,a2
    80004746:	03055e93          	srl	t4,a0,0x30
    8000474a:	12ea4163          	blt	s4,a4,8000486c <core_bench_matrix+0x13ac>
    8000474e:	0102a3b3          	slt	t2,t0,a6
    80004752:	0146a883          	lw	a7,20(a3)
    80004756:	01d382bb          	addw	t0,t2,t4
    8000475a:	01029e1b          	sllw	t3,t0,0x10
    8000475e:	410e531b          	sraw	t1,t3,0x10
    80004762:	03031793          	sll	a5,t1,0x30
    80004766:	00e88e3b          	addw	t3,a7,a4
    8000476a:	0307df13          	srl	t5,a5,0x30
    8000476e:	13ca4063          	blt	s4,t3,8000488e <core_bench_matrix+0x13ce>
    80004772:	01182633          	slt	a2,a6,a7
    80004776:	4e98                	lw	a4,24(a3)
    80004778:	01e6083b          	addw	a6,a2,t5
    8000477c:	0108151b          	sllw	a0,a6,0x10
    80004780:	4105529b          	sraw	t0,a0,0x10
    80004784:	03029093          	sll	ra,t0,0x30
    80004788:	01c707bb          	addw	a5,a4,t3
    8000478c:	0300df93          	srl	t6,ra,0x30
    80004790:	10fa4f63          	blt	s4,a5,800048ae <core_bench_matrix+0x13ee>
    80004794:	00e8a333          	slt	t1,a7,a4
    80004798:	01f308bb          	addw	a7,t1,t6
    8000479c:	01089f1b          	sllw	t5,a7,0x10
    800047a0:	410f551b          	sraw	a0,t5,0x10
    800047a4:	06f1                	add	a3,a3,28
    800047a6:	90d486e3          	beq	s1,a3,800040b2 <core_bench_matrix+0xbf2>
    800047aa:	0006a083          	lw	ra,0(a3)
    800047ae:	03051f93          	sll	t6,a0,0x30
    800047b2:	030fd313          	srl	t1,t6,0x30
    800047b6:	00f087bb          	addw	a5,ra,a5
    800047ba:	30fa5a63          	bge	s4,a5,80004ace <core_bench_matrix+0x160e>
    800047be:	00a3081b          	addw	a6,t1,10
    800047c2:	0108151b          	sllw	a0,a6,0x10
    800047c6:	4105561b          	sraw	a2,a0,0x10
    800047ca:	4781                	li	a5,0
    800047cc:	0046ae83          	lw	t4,4(a3)
    800047d0:	03061393          	sll	t2,a2,0x30
    800047d4:	0691                	add	a3,a3,4
    800047d6:	00fe88bb          	addw	a7,t4,a5
    800047da:	0303d293          	srl	t0,t2,0x30
    800047de:	ef1a41e3          	blt	s4,a7,800046c0 <core_bench_matrix+0x1200>
    800047e2:	01d0ae33          	slt	t3,ra,t4
    800047e6:	0046af03          	lw	t5,4(a3)
    800047ea:	005e00bb          	addw	ra,t3,t0
    800047ee:	01009f9b          	sllw	t6,ra,0x10
    800047f2:	410fd71b          	sraw	a4,t6,0x10
    800047f6:	03071613          	sll	a2,a4,0x30
    800047fa:	011f0fbb          	addw	t6,t5,a7
    800047fe:	03065813          	srl	a6,a2,0x30
    80004802:	effa50e3          	bge	s4,t6,800046e2 <core_bench_matrix+0x1222>
    80004806:	0086a303          	lw	t1,8(a3)
    8000480a:	00a8029b          	addw	t0,a6,10
    8000480e:	01029e1b          	sllw	t3,t0,0x10
    80004812:	410e509b          	sraw	ra,t3,0x10
    80004816:	4f81                	li	t6,0
    80004818:	03009793          	sll	a5,ra,0x30
    8000481c:	01f303bb          	addw	t2,t1,t6
    80004820:	0307d713          	srl	a4,a5,0x30
    80004824:	ee7a51e3          	bge	s4,t2,80004706 <core_bench_matrix+0x1246>
    80004828:	00c6a283          	lw	t0,12(a3)
    8000482c:	00a7081b          	addw	a6,a4,10
    80004830:	0108151b          	sllw	a0,a6,0x10
    80004834:	41055e9b          	sraw	t4,a0,0x10
    80004838:	4381                	li	t2,0
    8000483a:	030e9e13          	sll	t3,t4,0x30
    8000483e:	0072863b          	addw	a2,t0,t2
    80004842:	030e5093          	srl	ra,t3,0x30
    80004846:	eeca52e3          	bge	s4,a2,8000472a <core_bench_matrix+0x126a>
    8000484a:	0106a803          	lw	a6,16(a3)
    8000484e:	00a0879b          	addw	a5,ra,10
    80004852:	0107989b          	sllw	a7,a5,0x10
    80004856:	4108df1b          	sraw	t5,a7,0x10
    8000485a:	4601                	li	a2,0
    8000485c:	030f1513          	sll	a0,t5,0x30
    80004860:	00c8073b          	addw	a4,a6,a2
    80004864:	03055e93          	srl	t4,a0,0x30
    80004868:	eeea53e3          	bge	s4,a4,8000474e <core_bench_matrix+0x128e>
    8000486c:	0146a883          	lw	a7,20(a3)
    80004870:	00ae809b          	addw	ra,t4,10
    80004874:	01009f9b          	sllw	t6,ra,0x10
    80004878:	410fd31b          	sraw	t1,t6,0x10
    8000487c:	4701                	li	a4,0
    8000487e:	03031793          	sll	a5,t1,0x30
    80004882:	00e88e3b          	addw	t3,a7,a4
    80004886:	0307df13          	srl	t5,a5,0x30
    8000488a:	efca54e3          	bge	s4,t3,80004772 <core_bench_matrix+0x12b2>
    8000488e:	4e98                	lw	a4,24(a3)
    80004890:	00af0e9b          	addw	t4,t5,10
    80004894:	010e939b          	sllw	t2,t4,0x10
    80004898:	4103d29b          	sraw	t0,t2,0x10
    8000489c:	4e01                	li	t3,0
    8000489e:	03029093          	sll	ra,t0,0x30
    800048a2:	01c707bb          	addw	a5,a4,t3
    800048a6:	0300df93          	srl	t6,ra,0x30
    800048aa:	eefa55e3          	bge	s4,a5,80004794 <core_bench_matrix+0x12d4>
    800048ae:	00af879b          	addw	a5,t6,10
    800048b2:	0107961b          	sllw	a2,a5,0x10
    800048b6:	4106551b          	sraw	a0,a2,0x10
    800048ba:	4781                	li	a5,0
    800048bc:	b5e5                	j	800047a4 <core_bench_matrix+0x12e4>
    800048be:	004b2d03          	lw	s10,4(s6)
    800048c2:	00a50f1b          	addw	t5,a0,10
    800048c6:	010f131b          	sllw	t1,t5,0x10
    800048ca:	4103589b          	sraw	a7,t1,0x10
    800048ce:	4681                	li	a3,0
    800048d0:	03089613          	sll	a2,a7,0x30
    800048d4:	00dd07bb          	addw	a5,s10,a3
    800048d8:	03065393          	srl	t2,a2,0x30
    800048dc:	12fa4463          	blt	s4,a5,80004a04 <core_bench_matrix+0x1544>
    800048e0:	01afa733          	slt	a4,t6,s10
    800048e4:	00770ebb          	addw	t4,a4,t2
    800048e8:	008b2803          	lw	a6,8(s6)
    800048ec:	010e991b          	sllw	s2,t4,0x10
    800048f0:	41095f9b          	sraw	t6,s2,0x10
    800048f4:	030f9513          	sll	a0,t6,0x30
    800048f8:	00f803bb          	addw	t2,a6,a5
    800048fc:	03055993          	srl	s3,a0,0x30
    80004900:	127a4363          	blt	s4,t2,80004a26 <core_bench_matrix+0x1566>
    80004904:	010d2ab3          	slt	s5,s10,a6
    80004908:	013a82bb          	addw	t0,s5,s3
    8000490c:	00cb2d03          	lw	s10,12(s6)
    80004910:	01029f1b          	sllw	t5,t0,0x10
    80004914:	410f569b          	sraw	a3,t5,0x10
    80004918:	03069613          	sll	a2,a3,0x30
    8000491c:	007d07bb          	addw	a5,s10,t2
    80004920:	03065e93          	srl	t4,a2,0x30
    80004924:	12fa4263          	blt	s4,a5,80004a48 <core_bench_matrix+0x1588>
    80004928:	01a82733          	slt	a4,a6,s10
    8000492c:	01d7093b          	addw	s2,a4,t4
    80004930:	010b2983          	lw	s3,16(s6)
    80004934:	01091e1b          	sllw	t3,s2,0x10
    80004938:	410e581b          	sraw	a6,t3,0x10
    8000493c:	03081513          	sll	a0,a6,0x30
    80004940:	00f98ebb          	addw	t4,s3,a5
    80004944:	03055a93          	srl	s5,a0,0x30
    80004948:	13da4163          	blt	s4,t4,80004a6a <core_bench_matrix+0x15aa>
    8000494c:	013d22b3          	slt	t0,s10,s3
    80004950:	01528f3b          	addw	t5,t0,s5
    80004954:	014b2d03          	lw	s10,20(s6)
    80004958:	010f131b          	sllw	t1,t5,0x10
    8000495c:	4103539b          	sraw	t2,t1,0x10
    80004960:	03039613          	sll	a2,t2,0x30
    80004964:	01dd07bb          	addw	a5,s10,t4
    80004968:	03065913          	srl	s2,a2,0x30
    8000496c:	12fa4063          	blt	s4,a5,80004a8c <core_bench_matrix+0x15cc>
    80004970:	01a9a733          	slt	a4,s3,s10
    80004974:	01270e3b          	addw	t3,a4,s2
    80004978:	018b2703          	lw	a4,24(s6)
    8000497c:	010e109b          	sllw	ra,t3,0x10
    80004980:	4100d99b          	sraw	s3,ra,0x10
    80004984:	03099513          	sll	a0,s3,0x30
    80004988:	9fb9                	addw	a5,a5,a4
    8000498a:	03055a93          	srl	s5,a0,0x30
    8000498e:	10fa4f63          	blt	s4,a5,80004aac <core_bench_matrix+0x15ec>
    80004992:	00ed22b3          	slt	t0,s10,a4
    80004996:	01528f3b          	addw	t5,t0,s5
    8000499a:	010f131b          	sllw	t1,t5,0x10
    8000499e:	4103551b          	sraw	a0,t1,0x10
    800049a2:	0b71                	add	s6,s6,28
    800049a4:	95648ce3          	beq	s1,s6,800042fc <core_bench_matrix+0xe3c>
    800049a8:	000b2d03          	lw	s10,0(s6)
    800049ac:	03051693          	sll	a3,a0,0x30
    800049b0:	0306d613          	srl	a2,a3,0x30
    800049b4:	00fd03bb          	addw	t2,s10,a5
    800049b8:	107a5263          	bge	s4,t2,80004abc <core_bench_matrix+0x15fc>
    800049bc:	00a6009b          	addw	ra,a2,10
    800049c0:	0100979b          	sllw	a5,ra,0x10
    800049c4:	4107de1b          	sraw	t3,a5,0x10
    800049c8:	4381                	li	t2,0
    800049ca:	004b2f83          	lw	t6,4(s6)
    800049ce:	030e1813          	sll	a6,t3,0x30
    800049d2:	0b11                	add	s6,s6,4
    800049d4:	007f86bb          	addw	a3,t6,t2
    800049d8:	03085513          	srl	a0,a6,0x30
    800049dc:	eeda41e3          	blt	s4,a3,800048be <core_bench_matrix+0x13fe>
    800049e0:	01fd29b3          	slt	s3,s10,t6
    800049e4:	00a98abb          	addw	s5,s3,a0
    800049e8:	004b2d03          	lw	s10,4(s6)
    800049ec:	010a929b          	sllw	t0,s5,0x10
    800049f0:	4102d89b          	sraw	a7,t0,0x10
    800049f4:	03089613          	sll	a2,a7,0x30
    800049f8:	00dd07bb          	addw	a5,s10,a3
    800049fc:	03065393          	srl	t2,a2,0x30
    80004a00:	eefa50e3          	bge	s4,a5,800048e0 <core_bench_matrix+0x1420>
    80004a04:	00a38e1b          	addw	t3,t2,10
    80004a08:	008b2803          	lw	a6,8(s6)
    80004a0c:	010e109b          	sllw	ra,t3,0x10
    80004a10:	4100df9b          	sraw	t6,ra,0x10
    80004a14:	4781                	li	a5,0
    80004a16:	030f9513          	sll	a0,t6,0x30
    80004a1a:	00f803bb          	addw	t2,a6,a5
    80004a1e:	03055993          	srl	s3,a0,0x30
    80004a22:	ee7a51e3          	bge	s4,t2,80004904 <core_bench_matrix+0x1444>
    80004a26:	00cb2d03          	lw	s10,12(s6)
    80004a2a:	00a9831b          	addw	t1,s3,10
    80004a2e:	0103189b          	sllw	a7,t1,0x10
    80004a32:	4108d69b          	sraw	a3,a7,0x10
    80004a36:	4381                	li	t2,0
    80004a38:	03069613          	sll	a2,a3,0x30
    80004a3c:	007d07bb          	addw	a5,s10,t2
    80004a40:	03065e93          	srl	t4,a2,0x30
    80004a44:	eefa52e3          	bge	s4,a5,80004928 <core_bench_matrix+0x1468>
    80004a48:	00ae809b          	addw	ra,t4,10
    80004a4c:	010b2983          	lw	s3,16(s6)
    80004a50:	01009f9b          	sllw	t6,ra,0x10
    80004a54:	410fd81b          	sraw	a6,t6,0x10
    80004a58:	4781                	li	a5,0
    80004a5a:	03081513          	sll	a0,a6,0x30
    80004a5e:	00f98ebb          	addw	t4,s3,a5
    80004a62:	03055a93          	srl	s5,a0,0x30
    80004a66:	efda53e3          	bge	s4,t4,8000494c <core_bench_matrix+0x148c>
    80004a6a:	014b2d03          	lw	s10,20(s6)
    80004a6e:	00aa889b          	addw	a7,s5,10
    80004a72:	0108969b          	sllw	a3,a7,0x10
    80004a76:	4106d39b          	sraw	t2,a3,0x10
    80004a7a:	4e81                	li	t4,0
    80004a7c:	03039613          	sll	a2,t2,0x30
    80004a80:	01dd07bb          	addw	a5,s10,t4
    80004a84:	03065913          	srl	s2,a2,0x30
    80004a88:	eefa54e3          	bge	s4,a5,80004970 <core_bench_matrix+0x14b0>
    80004a8c:	018b2703          	lw	a4,24(s6)
    80004a90:	00a90f9b          	addw	t6,s2,10
    80004a94:	010f981b          	sllw	a6,t6,0x10
    80004a98:	4108599b          	sraw	s3,a6,0x10
    80004a9c:	4781                	li	a5,0
    80004a9e:	03099513          	sll	a0,s3,0x30
    80004aa2:	9fb9                	addw	a5,a5,a4
    80004aa4:	03055a93          	srl	s5,a0,0x30
    80004aa8:	eefa55e3          	bge	s4,a5,80004992 <core_bench_matrix+0x14d2>
    80004aac:	00aa889b          	addw	a7,s5,10
    80004ab0:	0108969b          	sllw	a3,a7,0x10
    80004ab4:	4106d51b          	sraw	a0,a3,0x10
    80004ab8:	4781                	li	a5,0
    80004aba:	b5e5                	j	800049a2 <core_bench_matrix+0x14e2>
    80004abc:	01a72733          	slt	a4,a4,s10
    80004ac0:	00c70ebb          	addw	t4,a4,a2
    80004ac4:	010e991b          	sllw	s2,t4,0x10
    80004ac8:	41095e1b          	sraw	t3,s2,0x10
    80004acc:	bdfd                	j	800049ca <core_bench_matrix+0x150a>
    80004ace:	00172733          	slt	a4,a4,ra
    80004ad2:	006708bb          	addw	a7,a4,t1
    80004ad6:	01089f1b          	sllw	t5,a7,0x10
    80004ada:	410f561b          	sraw	a2,t5,0x10
    80004ade:	b1fd                	j	800047cc <core_bench_matrix+0x130c>
    80004ae0:	01172733          	slt	a4,a4,a7
    80004ae4:	01d700bb          	addw	ra,a4,t4
    80004ae8:	0100931b          	sllw	t1,ra,0x10
    80004aec:	4103551b          	sraw	a0,t1,0x10
    80004af0:	b4c5                	j	800045d0 <core_bench_matrix+0x1110>
    80004af2:	00a8029b          	addw	t0,a6,10
    80004af6:	01029e1b          	sllw	t3,t0,0x10
    80004afa:	410e551b          	sraw	a0,t3,0x10
    80004afe:	4781                	li	a5,0
    80004b00:	dacff06f          	j	800040ac <core_bench_matrix+0xbec>
    80004b04:	00a80f1b          	addw	t5,a6,10
    80004b08:	010f139b          	sllw	t2,t5,0x10
    80004b0c:	4103d51b          	sraw	a0,t2,0x10
    80004b10:	4781                	li	a5,0
    80004b12:	ab0ff06f          	j	80003dc2 <core_bench_matrix+0x902>
    80004b16:	00a9831b          	addw	t1,s3,10
    80004b1a:	0103189b          	sllw	a7,t1,0x10
    80004b1e:	4108d51b          	sraw	a0,a7,0x10
    80004b22:	4781                	li	a5,0
    80004b24:	fd2ff06f          	j	800042f6 <core_bench_matrix+0xe36>
    80004b28:	00ae879b          	addw	a5,t4,10
    80004b2c:	01079f9b          	sllw	t6,a5,0x10
    80004b30:	410fd51b          	sraw	a0,t6,0x10
    80004b34:	4781                	li	a5,0
    80004b36:	0b11                	add	s6,s6,4
    80004b38:	f9cff06f          	j	800042d4 <core_bench_matrix+0xe14>
    80004b3c:	00a3879b          	addw	a5,t2,10
    80004b40:	0107909b          	sllw	ra,a5,0x10
    80004b44:	4100d51b          	sraw	a0,ra,0x10
    80004b48:	4781                	li	a5,0
    80004b4a:	0691                	add	a3,a3,4
    80004b4c:	a56ff06f          	j	80003da2 <core_bench_matrix+0x8e2>
    80004b50:	00ae079b          	addw	a5,t3,10
    80004b54:	0107989b          	sllw	a7,a5,0x10
    80004b58:	4108d51b          	sraw	a0,a7,0x10
    80004b5c:	4781                	li	a5,0
    80004b5e:	0691                	add	a3,a3,4
    80004b60:	d2aff06f          	j	8000408a <core_bench_matrix+0xbca>
    80004b64:	00a2869b          	addw	a3,t0,10
    80004b68:	01069d1b          	sllw	s10,a3,0x10
    80004b6c:	410d551b          	sraw	a0,s10,0x10
    80004b70:	4781                	li	a5,0
    80004b72:	0b11                	add	s6,s6,4
    80004b74:	f3aff06f          	j	800042ae <core_bench_matrix+0xdee>
    80004b78:	00a08e1b          	addw	t3,ra,10
    80004b7c:	010e161b          	sllw	a2,t3,0x10
    80004b80:	4106551b          	sraw	a0,a2,0x10
    80004b84:	4781                	li	a5,0
    80004b86:	0691                	add	a3,a3,4
    80004b88:	9f6ff06f          	j	80003d7e <core_bench_matrix+0x8be>
    80004b8c:	00a8851b          	addw	a0,a7,10
    80004b90:	01051e9b          	sllw	t4,a0,0x10
    80004b94:	410ed51b          	sraw	a0,t4,0x10
    80004b98:	4781                	li	a5,0
    80004b9a:	0691                	add	a3,a3,4
    80004b9c:	ccaff06f          	j	80004066 <core_bench_matrix+0xba6>
    80004ba0:	00a9081b          	addw	a6,s2,10
    80004ba4:	0108151b          	sllw	a0,a6,0x10
    80004ba8:	4105551b          	sraw	a0,a0,0x10
    80004bac:	4781                	li	a5,0
    80004bae:	0b11                	add	s6,s6,4
    80004bb0:	ed8ff06f          	j	80004288 <core_bench_matrix+0xdc8>
    80004bb4:	00ae879b          	addw	a5,t4,10
    80004bb8:	0107909b          	sllw	ra,a5,0x10
    80004bbc:	4100d51b          	sraw	a0,ra,0x10
    80004bc0:	4781                	li	a5,0
    80004bc2:	0691                	add	a3,a3,4
    80004bc4:	c7eff06f          	j	80004042 <core_bench_matrix+0xb82>
    80004bc8:	00aa859b          	addw	a1,s5,10
    80004bcc:	0105939b          	sllw	t2,a1,0x10
    80004bd0:	4103d51b          	sraw	a0,t2,0x10
    80004bd4:	4781                	li	a5,0
    80004bd6:	0691                	add	a3,a3,4
    80004bd8:	cadfe06f          	j	80003884 <core_bench_matrix+0x3c4>
    80004bdc:	00a6079b          	addw	a5,a2,10
    80004be0:	0107989b          	sllw	a7,a5,0x10
    80004be4:	4108d51b          	sraw	a0,a7,0x10
    80004be8:	4781                	li	a5,0
    80004bea:	0691                	add	a3,a3,4
    80004bec:	96eff06f          	j	80003d5a <core_bench_matrix+0x89a>
    80004bf0:	00ef2fb3          	slt	t6,t5,a4
    80004bf4:	011f8ebb          	addw	t4,t6,a7
    80004bf8:	010e909b          	sllw	ra,t4,0x10
    80004bfc:	4100d51b          	sraw	a0,ra,0x10
    80004c00:	0691                	add	a3,a3,4
    80004c02:	934ff06f          	j	80003d36 <core_bench_matrix+0x876>
    80004c06:	00e2afb3          	slt	t6,t0,a4
    80004c0a:	001f833b          	addw	t1,t6,ra
    80004c0e:	0103189b          	sllw	a7,t1,0x10
    80004c12:	4108d51b          	sraw	a0,a7,0x10
    80004c16:	0691                	add	a3,a3,4
    80004c18:	c08ff06f          	j	80004020 <core_bench_matrix+0xb60>
    80004c1c:	00e2a8b3          	slt	a7,t0,a4
    80004c20:	006886bb          	addw	a3,a7,t1
    80004c24:	01069d1b          	sllw	s10,a3,0x10
    80004c28:	410d551b          	sraw	a0,s10,0x10
    80004c2c:	0b11                	add	s6,s6,4
    80004c2e:	e34ff06f          	j	80004262 <core_bench_matrix+0xda2>
    80004c32:	00e0a633          	slt	a2,ra,a4
    80004c36:	01060ebb          	addw	t4,a2,a6
    80004c3a:	010e9f1b          	sllw	t5,t4,0x10
    80004c3e:	410f551b          	sraw	a0,t5,0x10
    80004c42:	0691                	add	a3,a3,4
    80004c44:	c1bfe06f          	j	8000385e <core_bench_matrix+0x39e>
    80004c48:	00e92fb3          	slt	t6,s2,a4
    80004c4c:	001f883b          	addw	a6,t6,ra
    80004c50:	0108151b          	sllw	a0,a6,0x10
    80004c54:	4105551b          	sraw	a0,a0,0x10
    80004c58:	0b11                	add	s6,s6,4
    80004c5a:	de4ff06f          	j	8000423e <core_bench_matrix+0xd7e>
    80004c5e:	0009d883          	lhu	a7,0(s3)
    80004c62:	00298a93          	add	s5,s3,2
    80004c66:	00490793          	add	a5,s2,4
    80004c6a:	00f8f993          	and	s3,a7,15
    80004c6e:	01392023          	sw	s3,0(s2)
    80004c72:	c86ff06f          	j	800040f8 <core_bench_matrix+0xc38>
    80004c76:	00efa8b3          	slt	a7,t6,a4
    80004c7a:	01588b3b          	addw	s6,a7,s5
    80004c7e:	010b1d1b          	sllw	s10,s6,0x10
    80004c82:	410d551b          	sraw	a0,s10,0x10
    80004c86:	0691                	add	a3,a3,4
    80004c88:	bb1fe06f          	j	80003838 <core_bench_matrix+0x378>
    80004c8c:	00041b03          	lh	s6,0(s0)
    80004c90:	00240793          	add	a5,s0,2
    80004c94:	00490713          	add	a4,s2,4
    80004c98:	037b0d3b          	mulw	s10,s6,s7
    80004c9c:	01a92023          	sw	s10,0(s2)
    80004ca0:	a4dfe06f          	j	800036ec <core_bench_matrix+0x22c>
    80004ca4:	00e0a833          	slt	a6,ra,a4
    80004ca8:	00680e3b          	addw	t3,a6,t1
    80004cac:	010e161b          	sllw	a2,t3,0x10
    80004cb0:	4106551b          	sraw	a0,a2,0x10
    80004cb4:	0691                	add	a3,a3,4
    80004cb6:	85eff06f          	j	80003d14 <core_bench_matrix+0x854>
    80004cba:	00e8a533          	slt	a0,a7,a4
    80004cbe:	00c5083b          	addw	a6,a0,a2
    80004cc2:	01081e9b          	sllw	t4,a6,0x10
    80004cc6:	410ed51b          	sraw	a0,t4,0x10
    80004cca:	0691                	add	a3,a3,4
    80004ccc:	b32ff06f          	j	80003ffe <core_bench_matrix+0xb3e>
    80004cd0:	4581                	li	a1,0
    80004cd2:	4501                	li	a0,0
    80004cd4:	bf9fc0ef          	jal	800018cc <crc16>
    80004cd8:	85aa                	mv	a1,a0
    80004cda:	c099                	beqz	s1,80004ce0 <core_bench_matrix+0x1820>
    80004cdc:	d43fe06f          	j	80003a1e <core_bench_matrix+0x55e>
    80004ce0:	85aa                	mv	a1,a0
    80004ce2:	4501                	li	a0,0
    80004ce4:	be9fc0ef          	jal	800018cc <crc16>
    80004ce8:	85aa                	mv	a1,a0
    80004cea:	4501                	li	a0,0
    80004cec:	be1fc0ef          	jal	800018cc <crc16>
    80004cf0:	85aa                	mv	a1,a0
    80004cf2:	4501                	li	a0,0
    80004cf4:	bd9fc0ef          	jal	800018cc <crc16>
    80004cf8:	fa4ff06f          	j	8000449c <core_bench_matrix+0xfdc>
    80004cfc:	4301                	li	t1,0
    80004cfe:	8d7fe06f          	j	800035d4 <core_bench_matrix+0x114>
    80004d02:	4c81                	li	s9,0
    80004d04:	ed0ff06f          	j	800043d4 <core_bench_matrix+0xf14>
    80004d08:	4501                	li	a0,0
    80004d0a:	8beff06f          	j	80003dc8 <core_bench_matrix+0x908>

0000000080004d0e <matrix_test>:
matrix_test():
    80004d0e:	7159                	add	sp,sp,-112
    80004d10:	e86a                	sd	s10,16(sp)
    80004d12:	02a50d3b          	mulw	s10,a0,a0
    80004d16:	f0a2                	sd	s0,96(sp)
    80004d18:	eca6                	sd	s1,88(sp)
    80004d1a:	e8ca                	sd	s2,80(sp)
    80004d1c:	e4ce                	sd	s3,72(sp)
    80004d1e:	e0d2                	sd	s4,64(sp)
    80004d20:	f062                	sd	s8,32(sp)
    80004d22:	ec66                	sd	s9,24(sp)
    80004d24:	77fd                	lui	a5,0xfffff
    80004d26:	f486                	sd	ra,104(sp)
    80004d28:	fc56                	sd	s5,56(sp)
    80004d2a:	f85a                	sd	s6,48(sp)
    80004d2c:	f45e                	sd	s7,40(sp)
    80004d2e:	e46e                	sd	s11,8(sp)
    80004d30:	000d0c9b          	sext.w	s9,s10
    80004d34:	84aa                	mv	s1,a0
    80004d36:	8c3a                	mv	s8,a4
    80004d38:	89ae                	mv	s3,a1
    80004d3a:	8432                	mv	s0,a2
    80004d3c:	8936                	mv	s2,a3
    80004d3e:	00f76a33          	or	s4,a4,a5
    80004d42:	000c9463          	bnez	s9,80004d4a <matrix_test+0x3c>
    80004d46:	7fe0106f          	j	80006544 <matrix_test+0x1836>
    80004d4a:	00165093          	srl	ra,a2,0x1
    80004d4e:	03071693          	sll	a3,a4,0x30
    80004d52:	4010063b          	negw	a2,ra
    80004d56:	fffd051b          	addw	a0,s10,-1
    80004d5a:	4595                	li	a1,5
    80004d5c:	0306d293          	srl	t0,a3,0x30
    80004d60:	87a2                	mv	a5,s0
    80004d62:	00367713          	and	a4,a2,3
    80004d66:	00a5e463          	bltu	a1,a0,80004d6e <matrix_test+0x60>
    80004d6a:	00b0106f          	j	80006574 <matrix_test+0x1866>
    80004d6e:	4e81                	li	t4,0
    80004d70:	cf0d                	beqz	a4,80004daa <matrix_test+0x9c>
    80004d72:	00045383          	lhu	t2,0(s0)
    80004d76:	00267813          	and	a6,a2,2
    80004d7a:	4e85                	li	t4,1
    80004d7c:	005388bb          	addw	a7,t2,t0
    80004d80:	01141023          	sh	a7,0(s0)
    80004d84:	02080363          	beqz	a6,80004daa <matrix_test+0x9c>
    80004d88:	00245a83          	lhu	s5,2(s0)
    80004d8c:	4b0d                	li	s6,3
    80004d8e:	4e89                	li	t4,2
    80004d90:	005a8bbb          	addw	s7,s5,t0
    80004d94:	01741123          	sh	s7,2(s0)
    80004d98:	01671963          	bne	a4,s6,80004daa <matrix_test+0x9c>
    80004d9c:	00445d83          	lhu	s11,4(s0)
    80004da0:	4e8d                	li	t4,3
    80004da2:	005d8e3b          	addw	t3,s11,t0
    80004da6:	01c41223          	sh	t3,4(s0)
    80004daa:	40ed0f3b          	subw	t5,s10,a4
    80004dae:	01029f93          	sll	t6,t0,0x10
    80004db2:	02029093          	sll	ra,t0,0x20
    80004db6:	01f2e533          	or	a0,t0,t6
    80004dba:	00171693          	sll	a3,a4,0x1
    80004dbe:	002f561b          	srlw	a2,t5,0x2
    80004dc2:	00156333          	or	t1,a0,ra
    80004dc6:	03029593          	sll	a1,t0,0x30
    80004dca:	00d40733          	add	a4,s0,a3
    80004dce:	00361393          	sll	t2,a2,0x3
    80004dd2:	00b36ab3          	or	s5,t1,a1
    80004dd6:	00e38b33          	add	s6,t2,a4
    80004dda:	00004817          	auipc	a6,0x4
    80004dde:	00073b83          	ld	s7,0(a4)
    80004de2:	42683d83          	ld	s11,1062(a6) # 80009200 <mem_name+0x30>
    80004de6:	00004897          	auipc	a7,0x4
    80004dea:	4228be03          	ld	t3,1058(a7) # 80009208 <mem_name+0x38>
    80004dee:	01bbffb3          	and	t6,s7,s11
    80004df2:	01baf0b3          	and	ra,s5,s11
    80004df6:	017ac6b3          	xor	a3,s5,s7
    80004dfa:	001f8533          	add	a0,t6,ra
    80004dfe:	01c6f633          	and	a2,a3,t3
    80004e02:	00c54333          	xor	t1,a0,a2
    80004e06:	00673023          	sd	t1,0(a4)
    80004e0a:	0721                	add	a4,a4,8
    80004e0c:	fd6717e3          	bne	a4,s6,80004dda <matrix_test+0xcc>
    80004e10:	003f7593          	and	a1,t5,3
    80004e14:	c9f1                	beqz	a1,80004ee8 <matrix_test+0x1da>
    80004e16:	ffcf7f13          	and	t5,t5,-4
    80004e1a:	01df033b          	addw	t1,t5,t4
    80004e1e:	02031e93          	sll	t4,t1,0x20
    80004e22:	01fed393          	srl	t2,t4,0x1f
    80004e26:	00740ab3          	add	s5,s0,t2
    80004e2a:	000adb03          	lhu	s6,0(s5)
    80004e2e:	00130b9b          	addw	s7,t1,1
    80004e32:	000b8d9b          	sext.w	s11,s7
    80004e36:	005b083b          	addw	a6,s6,t0
    80004e3a:	010a9023          	sh	a6,0(s5)
    80004e3e:	0b9df563          	bgeu	s11,s9,80004ee8 <matrix_test+0x1da>
    80004e42:	020b9893          	sll	a7,s7,0x20
    80004e46:	01f8de13          	srl	t3,a7,0x1f
    80004e4a:	01c40fb3          	add	t6,s0,t3
    80004e4e:	000fd083          	lhu	ra,0(t6)
    80004e52:	0023069b          	addw	a3,t1,2
    80004e56:	0006851b          	sext.w	a0,a3
    80004e5a:	0050863b          	addw	a2,ra,t0
    80004e5e:	00cf9023          	sh	a2,0(t6)
    80004e62:	09957363          	bgeu	a0,s9,80004ee8 <matrix_test+0x1da>
    80004e66:	02069713          	sll	a4,a3,0x20
    80004e6a:	01f75593          	srl	a1,a4,0x1f
    80004e6e:	00b40f33          	add	t5,s0,a1
    80004e72:	000f5e83          	lhu	t4,0(t5)
    80004e76:	0033039b          	addw	t2,t1,3
    80004e7a:	00038a9b          	sext.w	s5,t2
    80004e7e:	005e8b3b          	addw	s6,t4,t0
    80004e82:	016f1023          	sh	s6,0(t5)
    80004e86:	079af163          	bgeu	s5,s9,80004ee8 <matrix_test+0x1da>
    80004e8a:	02039b93          	sll	s7,t2,0x20
    80004e8e:	01fbdd93          	srl	s11,s7,0x1f
    80004e92:	01b408b3          	add	a7,s0,s11
    80004e96:	0008d803          	lhu	a6,0(a7)
    80004e9a:	00430e1b          	addw	t3,t1,4
    80004e9e:	000e0f9b          	sext.w	t6,t3
    80004ea2:	005800bb          	addw	ra,a6,t0
    80004ea6:	00189023          	sh	ra,0(a7)
    80004eaa:	039fff63          	bgeu	t6,s9,80004ee8 <matrix_test+0x1da>
    80004eae:	020e1693          	sll	a3,t3,0x20
    80004eb2:	01f6d513          	srl	a0,a3,0x1f
    80004eb6:	00a40633          	add	a2,s0,a0
    80004eba:	00065f03          	lhu	t5,0(a2)
    80004ebe:	2315                	addw	t1,t1,5
    80004ec0:	0003071b          	sext.w	a4,t1
    80004ec4:	005f05bb          	addw	a1,t5,t0
    80004ec8:	00b61023          	sh	a1,0(a2)
    80004ecc:	01977e63          	bgeu	a4,s9,80004ee8 <matrix_test+0x1da>
    80004ed0:	02031e93          	sll	t4,t1,0x20
    80004ed4:	01fed393          	srl	t2,t4,0x1f
    80004ed8:	00740ab3          	add	s5,s0,t2
    80004edc:	000adb03          	lhu	s6,0(s5)
    80004ee0:	005b02bb          	addw	t0,s6,t0
    80004ee4:	005a9023          	sh	t0,0(s5)
    80004ee8:	020d1b93          	sll	s7,s10,0x20
    80004eec:	020bdd93          	srl	s11,s7,0x20
    80004ef0:	001d9893          	sll	a7,s11,0x1
    80004ef4:	ffe88813          	add	a6,a7,-2
    80004ef8:	00185e13          	srl	t3,a6,0x1
    80004efc:	001e0f93          	add	t6,t3,1
    80004f00:	007ff093          	and	ra,t6,7
    80004f04:	86ce                	mv	a3,s3
    80004f06:	01140533          	add	a0,s0,a7
    80004f0a:	874e                	mv	a4,s3
    80004f0c:	08008863          	beqz	ra,80004f9c <matrix_test+0x28e>
    80004f10:	4605                	li	a2,1
    80004f12:	06c08b63          	beq	ra,a2,80004f88 <matrix_test+0x27a>
    80004f16:	4f09                	li	t5,2
    80004f18:	07e08063          	beq	ra,t5,80004f78 <matrix_test+0x26a>
    80004f1c:	430d                	li	t1,3
    80004f1e:	04608563          	beq	ra,t1,80004f68 <matrix_test+0x25a>
    80004f22:	4591                	li	a1,4
    80004f24:	02b08a63          	beq	ra,a1,80004f58 <matrix_test+0x24a>
    80004f28:	4e95                	li	t4,5
    80004f2a:	01d08f63          	beq	ra,t4,80004f48 <matrix_test+0x23a>
    80004f2e:	4399                	li	t2,6
    80004f30:	00708463          	beq	ra,t2,80004f38 <matrix_test+0x22a>
    80004f34:	5cc0106f          	j	80006500 <matrix_test+0x17f2>
    80004f38:	00079283          	lh	t0,0(a5) # fffffffffffff000 <__global_pointer$+0xffffffff7fff5618>
    80004f3c:	0711                	add	a4,a4,4
    80004f3e:	0789                	add	a5,a5,2
    80004f40:	03828bbb          	mulw	s7,t0,s8
    80004f44:	ff772e23          	sw	s7,-4(a4)
    80004f48:	00079883          	lh	a7,0(a5)
    80004f4c:	0711                	add	a4,a4,4
    80004f4e:	0789                	add	a5,a5,2
    80004f50:	0388883b          	mulw	a6,a7,s8
    80004f54:	ff072e23          	sw	a6,-4(a4)
    80004f58:	00079e03          	lh	t3,0(a5)
    80004f5c:	0711                	add	a4,a4,4
    80004f5e:	0789                	add	a5,a5,2
    80004f60:	038e0fbb          	mulw	t6,t3,s8
    80004f64:	fff72e23          	sw	t6,-4(a4)
    80004f68:	00079083          	lh	ra,0(a5)
    80004f6c:	0711                	add	a4,a4,4
    80004f6e:	0789                	add	a5,a5,2
    80004f70:	0380863b          	mulw	a2,ra,s8
    80004f74:	fec72e23          	sw	a2,-4(a4)
    80004f78:	00079f03          	lh	t5,0(a5)
    80004f7c:	0711                	add	a4,a4,4
    80004f7e:	0789                	add	a5,a5,2
    80004f80:	038f033b          	mulw	t1,t5,s8
    80004f84:	fe672e23          	sw	t1,-4(a4)
    80004f88:	00079583          	lh	a1,0(a5)
    80004f8c:	0711                	add	a4,a4,4
    80004f8e:	0789                	add	a5,a5,2
    80004f90:	03858ebb          	mulw	t4,a1,s8
    80004f94:	ffd72e23          	sw	t4,-4(a4)
    80004f98:	06a78763          	beq	a5,a0,80005006 <matrix_test+0x2f8>
    80004f9c:	00079383          	lh	t2,0(a5)
    80004fa0:	00279a83          	lh	s5,2(a5)
    80004fa4:	00479b03          	lh	s6,4(a5)
    80004fa8:	00679283          	lh	t0,6(a5)
    80004fac:	00879b83          	lh	s7,8(a5)
    80004fb0:	00a79883          	lh	a7,10(a5)
    80004fb4:	00c79803          	lh	a6,12(a5)
    80004fb8:	00e79083          	lh	ra,14(a5)
    80004fbc:	03838e3b          	mulw	t3,t2,s8
    80004fc0:	07c1                	add	a5,a5,16
    80004fc2:	02070713          	add	a4,a4,32
    80004fc6:	038a8fbb          	mulw	t6,s5,s8
    80004fca:	ffc72023          	sw	t3,-32(a4)
    80004fce:	038b063b          	mulw	a2,s6,s8
    80004fd2:	fff72223          	sw	t6,-28(a4)
    80004fd6:	03828f3b          	mulw	t5,t0,s8
    80004fda:	fec72423          	sw	a2,-24(a4)
    80004fde:	038b833b          	mulw	t1,s7,s8
    80004fe2:	ffe72623          	sw	t5,-20(a4)
    80004fe6:	038885bb          	mulw	a1,a7,s8
    80004fea:	fe672823          	sw	t1,-16(a4)
    80004fee:	03880ebb          	mulw	t4,a6,s8
    80004ff2:	feb72a23          	sw	a1,-12(a4)
    80004ff6:	038083bb          	mulw	t2,ra,s8
    80004ffa:	ffd72c23          	sw	t4,-8(a4)
    80004ffe:	fe772e23          	sw	t2,-4(a4)
    80005002:	f8a79de3          	bne	a5,a0,80004f9c <matrix_test+0x28e>
    80005006:	0d8a                	sll	s11,s11,0x2
    80005008:	ffcd8513          	add	a0,s11,-4
    8000500c:	00255793          	srl	a5,a0,0x2
    80005010:	00178713          	add	a4,a5,1
    80005014:	00777a93          	and	s5,a4,7
    80005018:	01b98b33          	add	s6,s3,s11
    8000501c:	4701                	li	a4,0
    8000501e:	4501                	li	a0,0
    80005020:	4781                	li	a5,0
    80005022:	100a8e63          	beqz	s5,8000513e <matrix_test+0x430>
    80005026:	4285                	li	t0,1
    80005028:	0e5a8763          	beq	s5,t0,80005116 <matrix_test+0x408>
    8000502c:	4b89                	li	s7,2
    8000502e:	0d7a8363          	beq	s5,s7,800050f4 <matrix_test+0x3e6>
    80005032:	488d                	li	a7,3
    80005034:	091a8f63          	beq	s5,a7,800050d2 <matrix_test+0x3c4>
    80005038:	4811                	li	a6,4
    8000503a:	070a8863          	beq	s5,a6,800050aa <matrix_test+0x39c>
    8000503e:	4095                	li	ra,5
    80005040:	041a8363          	beq	s5,ra,80005086 <matrix_test+0x378>
    80005044:	4e19                	li	t3,6
    80005046:	01ca8d63          	beq	s5,t3,80005060 <matrix_test+0x352>
    8000504a:	0009a703          	lw	a4,0(s3)
    8000504e:	87ba                	mv	a5,a4
    80005050:	00e02533          	sgtz	a0,a4
    80005054:	00ea5463          	bge	s4,a4,8000505c <matrix_test+0x34e>
    80005058:	4529                	li	a0,10
    8000505a:	4781                	li	a5,0
    8000505c:	00498693          	add	a3,s3,4
    80005060:	8fba                	mv	t6,a4
    80005062:	4298                	lw	a4,0(a3)
    80005064:	03051613          	sll	a2,a0,0x30
    80005068:	03065f13          	srl	t5,a2,0x30
    8000506c:	9fb9                	addw	a5,a5,a4
    8000506e:	00fa4463          	blt	s4,a5,80005076 <matrix_test+0x368>
    80005072:	4780106f          	j	800064ea <matrix_test+0x17dc>
    80005076:	00af039b          	addw	t2,t5,10
    8000507a:	01039d9b          	sllw	s11,t2,0x10
    8000507e:	410dd51b          	sraw	a0,s11,0x10
    80005082:	4781                	li	a5,0
    80005084:	0691                	add	a3,a3,4
    80005086:	8aba                	mv	s5,a4
    80005088:	4298                	lw	a4,0(a3)
    8000508a:	1542                	sll	a0,a0,0x30
    8000508c:	03055293          	srl	t0,a0,0x30
    80005090:	9fb9                	addw	a5,a5,a4
    80005092:	00fa4463          	blt	s4,a5,8000509a <matrix_test+0x38c>
    80005096:	4100106f          	j	800064a6 <matrix_test+0x1798>
    8000509a:	00a2879b          	addw	a5,t0,10
    8000509e:	0107909b          	sllw	ra,a5,0x10
    800050a2:	4100d51b          	sraw	a0,ra,0x10
    800050a6:	4781                	li	a5,0
    800050a8:	0691                	add	a3,a3,4
    800050aa:	8e3a                	mv	t3,a4
    800050ac:	4298                	lw	a4,0(a3)
    800050ae:	03051f93          	sll	t6,a0,0x30
    800050b2:	030fd613          	srl	a2,t6,0x30
    800050b6:	9fb9                	addw	a5,a5,a4
    800050b8:	00fa5463          	bge	s4,a5,800050c0 <matrix_test+0x3b2>
    800050bc:	3800106f          	j	8000643c <matrix_test+0x172e>
    800050c0:	00ee2f33          	slt	t5,t3,a4
    800050c4:	00cf033b          	addw	t1,t5,a2
    800050c8:	0103159b          	sllw	a1,t1,0x10
    800050cc:	4105d51b          	sraw	a0,a1,0x10
    800050d0:	0691                	add	a3,a3,4
    800050d2:	8dba                	mv	s11,a4
    800050d4:	4298                	lw	a4,0(a3)
    800050d6:	03051a93          	sll	s5,a0,0x30
    800050da:	030ad293          	srl	t0,s5,0x30
    800050de:	9fb9                	addw	a5,a5,a4
    800050e0:	3efa5163          	bge	s4,a5,800054c2 <matrix_test+0x7b4>
    800050e4:	00a2881b          	addw	a6,t0,10
    800050e8:	0108179b          	sllw	a5,a6,0x10
    800050ec:	4107d51b          	sraw	a0,a5,0x10
    800050f0:	0691                	add	a3,a3,4
    800050f2:	4781                	li	a5,0
    800050f4:	80ba                	mv	ra,a4
    800050f6:	4298                	lw	a4,0(a3)
    800050f8:	03051e13          	sll	t3,a0,0x30
    800050fc:	030e5f93          	srl	t6,t3,0x30
    80005100:	9fb9                	addw	a5,a5,a4
    80005102:	3afa5663          	bge	s4,a5,800054ae <matrix_test+0x7a0>
    80005106:	00af859b          	addw	a1,t6,10
    8000510a:	01059e9b          	sllw	t4,a1,0x10
    8000510e:	410ed51b          	sraw	a0,t4,0x10
    80005112:	4781                	li	a5,0
    80005114:	0691                	add	a3,a3,4
    80005116:	83ba                	mv	t2,a4
    80005118:	4298                	lw	a4,0(a3)
    8000511a:	03051d93          	sll	s11,a0,0x30
    8000511e:	030dda93          	srl	s5,s11,0x30
    80005122:	9fb9                	addw	a5,a5,a4
    80005124:	36fa4d63          	blt	s4,a5,8000549e <matrix_test+0x790>
    80005128:	00e3a2b3          	slt	t0,t2,a4
    8000512c:	0152853b          	addw	a0,t0,s5
    80005130:	01051b9b          	sllw	s7,a0,0x10
    80005134:	410bd51b          	sraw	a0,s7,0x10
    80005138:	0691                	add	a3,a3,4
    8000513a:	13668263          	beq	a3,s6,8000525e <matrix_test+0x550>
    8000513e:	0006a083          	lw	ra,0(a3)
    80005142:	03051e13          	sll	t3,a0,0x30
    80005146:	030e5f93          	srl	t6,t3,0x30
    8000514a:	00f087bb          	addw	a5,ra,a5
    8000514e:	24fa4a63          	blt	s4,a5,800053a2 <matrix_test+0x694>
    80005152:	00172733          	slt	a4,a4,ra
    80005156:	0046a383          	lw	t2,4(a3)
    8000515a:	01f7063b          	addw	a2,a4,t6
    8000515e:	01061f1b          	sllw	t5,a2,0x10
    80005162:	410f531b          	sraw	t1,t5,0x10
    80005166:	03031d93          	sll	s11,t1,0x30
    8000516a:	00f38e3b          	addw	t3,t2,a5
    8000516e:	0691                	add	a3,a3,4
    80005170:	030dda93          	srl	s5,s11,0x30
    80005174:	25ca5963          	bge	s4,t3,800053c6 <matrix_test+0x6b8>
    80005178:	0046af83          	lw	t6,4(a3)
    8000517c:	00aa889b          	addw	a7,s5,10
    80005180:	0108981b          	sllw	a6,a7,0x10
    80005184:	4108509b          	sraw	ra,a6,0x10
    80005188:	4e01                	li	t3,0
    8000518a:	03009793          	sll	a5,ra,0x30
    8000518e:	01cf8dbb          	addw	s11,t6,t3
    80005192:	0307d613          	srl	a2,a5,0x30
    80005196:	25ba4a63          	blt	s4,s11,800053ea <matrix_test+0x6dc>
    8000519a:	01f3a733          	slt	a4,t2,t6
    8000519e:	0086aa83          	lw	s5,8(a3)
    800051a2:	00c70f3b          	addw	t5,a4,a2
    800051a6:	010f131b          	sllw	t1,t5,0x10
    800051aa:	4103539b          	sraw	t2,t1,0x10
    800051ae:	03039293          	sll	t0,t2,0x30
    800051b2:	01ba87bb          	addw	a5,s5,s11
    800051b6:	0302d513          	srl	a0,t0,0x30
    800051ba:	24fa4963          	blt	s4,a5,8000540c <matrix_test+0x6fe>
    800051be:	015fabb3          	slt	s7,t6,s5
    800051c2:	46d0                	lw	a2,12(a3)
    800051c4:	00ab88bb          	addw	a7,s7,a0
    800051c8:	0108981b          	sllw	a6,a7,0x10
    800051cc:	41085f9b          	sraw	t6,a6,0x10
    800051d0:	030f9713          	sll	a4,t6,0x30
    800051d4:	00f602bb          	addw	t0,a2,a5
    800051d8:	03075f13          	srl	t5,a4,0x30
    800051dc:	245a4863          	blt	s4,t0,8000542c <matrix_test+0x71e>
    800051e0:	00caa333          	slt	t1,s5,a2
    800051e4:	01e305bb          	addw	a1,t1,t5
    800051e8:	0106ab83          	lw	s7,16(a3)
    800051ec:	01059e9b          	sllw	t4,a1,0x10
    800051f0:	410eda9b          	sraw	s5,t4,0x10
    800051f4:	030a9513          	sll	a0,s5,0x30
    800051f8:	005b8f3b          	addw	t5,s7,t0
    800051fc:	03055893          	srl	a7,a0,0x30
    80005200:	25ea4763          	blt	s4,t5,8000544e <matrix_test+0x740>
    80005204:	01762833          	slt	a6,a2,s7
    80005208:	011800bb          	addw	ra,a6,a7
    8000520c:	4ad0                	lw	a2,20(a3)
    8000520e:	01009e1b          	sllw	t3,ra,0x10
    80005212:	410e571b          	sraw	a4,t3,0x10
    80005216:	03071313          	sll	t1,a4,0x30
    8000521a:	01e608bb          	addw	a7,a2,t5
    8000521e:	03035593          	srl	a1,t1,0x30
    80005222:	251a4663          	blt	s4,a7,8000546e <matrix_test+0x760>
    80005226:	00cbaeb3          	slt	t4,s7,a2
    8000522a:	4e98                	lw	a4,24(a3)
    8000522c:	00be83bb          	addw	t2,t4,a1
    80005230:	01039d9b          	sllw	s11,t2,0x10
    80005234:	410ddb9b          	sraw	s7,s11,0x10
    80005238:	030b9513          	sll	a0,s7,0x30
    8000523c:	011707bb          	addw	a5,a4,a7
    80005240:	03055813          	srl	a6,a0,0x30
    80005244:	24fa4563          	blt	s4,a5,8000548e <matrix_test+0x780>
    80005248:	00e620b3          	slt	ra,a2,a4
    8000524c:	01008e3b          	addw	t3,ra,a6
    80005250:	010e1f9b          	sllw	t6,t3,0x10
    80005254:	410fd51b          	sraw	a0,t6,0x10
    80005258:	06f1                	add	a3,a3,28
    8000525a:	ef6692e3          	bne	a3,s6,8000513e <matrix_test+0x430>
    8000525e:	4581                	li	a1,0
    80005260:	e6cfc0ef          	jal	800018cc <crc16>
    80005264:	85aa                	mv	a1,a0
    80005266:	e099                	bnez	s1,8000526c <matrix_test+0x55e>
    80005268:	2ec0106f          	j	80006554 <matrix_test+0x1846>
    8000526c:	8b4e                	mv	s6,s3
    8000526e:	0009a023          	sw	zero,0(s3)
    80005272:	8bce                	mv	s7,s3
    80005274:	8526                	mv	a0,s1
    80005276:	834e                	mv	t1,s3
    80005278:	4801                	li	a6,0
    8000527a:	4e01                	li	t3,0
    8000527c:	41050633          	sub	a2,a0,a6
    80005280:	00367e93          	and	t4,a2,3
    80005284:	8aca                	mv	s5,s2
    80005286:	87ca                	mv	a5,s2
    80005288:	8742                	mv	a4,a6
    8000528a:	4681                	li	a3,0
    8000528c:	060e8b63          	beqz	t4,80005302 <matrix_test+0x5f4>
    80005290:	4385                	li	t2,1
    80005292:	047e8563          	beq	t4,t2,800052dc <matrix_test+0x5ce>
    80005296:	4289                	li	t0,2
    80005298:	025e8263          	beq	t4,t0,800052bc <matrix_test+0x5ae>
    8000529c:	02081893          	sll	a7,a6,0x20
    800052a0:	01f8d713          	srl	a4,a7,0x1f
    800052a4:	00e400b3          	add	ra,s0,a4
    800052a8:	00009f83          	lh	t6,0(ra)
    800052ac:	00091f03          	lh	t5,0(s2)
    800052b0:	0018071b          	addw	a4,a6,1
    800052b4:	00290793          	add	a5,s2,2
    800052b8:	03ef86bb          	mulw	a3,t6,t5
    800052bc:	02071d93          	sll	s11,a4,0x20
    800052c0:	01fdd613          	srl	a2,s11,0x1f
    800052c4:	00c40eb3          	add	t4,s0,a2
    800052c8:	00079383          	lh	t2,0(a5)
    800052cc:	000e9283          	lh	t0,0(t4)
    800052d0:	2705                	addw	a4,a4,1
    800052d2:	0789                	add	a5,a5,2
    800052d4:	027288bb          	mulw	a7,t0,t2
    800052d8:	00d886bb          	addw	a3,a7,a3
    800052dc:	02071093          	sll	ra,a4,0x20
    800052e0:	01f0df93          	srl	t6,ra,0x1f
    800052e4:	01f40f33          	add	t5,s0,t6
    800052e8:	00079d83          	lh	s11,0(a5)
    800052ec:	000f1603          	lh	a2,0(t5)
    800052f0:	2705                	addw	a4,a4,1
    800052f2:	0789                	add	a5,a5,2
    800052f4:	03b60ebb          	mulw	t4,a2,s11
    800052f8:	00de86bb          	addw	a3,t4,a3
    800052fc:	83b6                	mv	t2,a3
    800052fe:	08e50563          	beq	a0,a4,80005388 <matrix_test+0x67a>
    80005302:	0017029b          	addw	t0,a4,1
    80005306:	02071893          	sll	a7,a4,0x20
    8000530a:	00128f9b          	addw	t6,t0,1
    8000530e:	01f8d093          	srl	ra,a7,0x1f
    80005312:	02029d93          	sll	s11,t0,0x20
    80005316:	01fdd613          	srl	a2,s11,0x1f
    8000531a:	001f871b          	addw	a4,t6,1
    8000531e:	020f9e93          	sll	t4,t6,0x20
    80005322:	00140f33          	add	t5,s0,ra
    80005326:	000f1083          	lh	ra,0(t5)
    8000532a:	00c403b3          	add	t2,s0,a2
    8000532e:	01fed893          	srl	a7,t4,0x1f
    80005332:	02071613          	sll	a2,a4,0x20
    80005336:	00079283          	lh	t0,0(a5)
    8000533a:	00039d83          	lh	s11,0(t2)
    8000533e:	00279f03          	lh	t5,2(a5)
    80005342:	01f65393          	srl	t2,a2,0x1f
    80005346:	01140fb3          	add	t6,s0,a7
    8000534a:	000f9f83          	lh	t6,0(t6)
    8000534e:	00479883          	lh	a7,4(a5)
    80005352:	00740eb3          	add	t4,s0,t2
    80005356:	025082bb          	mulw	t0,ra,t0
    8000535a:	00679603          	lh	a2,6(a5)
    8000535e:	000e9083          	lh	ra,0(t4)
    80005362:	2705                	addw	a4,a4,1
    80005364:	07a1                	add	a5,a5,8
    80005366:	03ed8f3b          	mulw	t5,s11,t5
    8000536a:	00d286bb          	addw	a3,t0,a3
    8000536e:	031f8dbb          	mulw	s11,t6,a7
    80005372:	00df03bb          	addw	t2,t5,a3
    80005376:	02c088bb          	mulw	a7,ra,a2
    8000537a:	007d8fbb          	addw	t6,s11,t2
    8000537e:	01f886bb          	addw	a3,a7,t6
    80005382:	83b6                	mv	t2,a3
    80005384:	f6e51fe3          	bne	a0,a4,80005302 <matrix_test+0x5f4>
    80005388:	007ba023          	sw	t2,0(s7)
    8000538c:	2e05                	addw	t3,t3,1
    8000538e:	0311                	add	t1,t1,4
    80005390:	0104883b          	addw	a6,s1,a6
    80005394:	9d25                	addw	a0,a0,s1
    80005396:	149e7063          	bgeu	t3,s1,800054d6 <matrix_test+0x7c8>
    8000539a:	8b9a                	mv	s7,t1
    8000539c:	00032023          	sw	zero,0(t1)
    800053a0:	bdf1                	j	8000527c <matrix_test+0x56e>
    800053a2:	0046a383          	lw	t2,4(a3)
    800053a6:	00af859b          	addw	a1,t6,10
    800053aa:	01059e9b          	sllw	t4,a1,0x10
    800053ae:	410ed31b          	sraw	t1,t4,0x10
    800053b2:	4781                	li	a5,0
    800053b4:	03031d93          	sll	s11,t1,0x30
    800053b8:	00f38e3b          	addw	t3,t2,a5
    800053bc:	0691                	add	a3,a3,4
    800053be:	030dda93          	srl	s5,s11,0x30
    800053c2:	dbca4be3          	blt	s4,t3,80005178 <matrix_test+0x46a>
    800053c6:	0070a2b3          	slt	t0,ra,t2
    800053ca:	0046af83          	lw	t6,4(a3)
    800053ce:	0152853b          	addw	a0,t0,s5
    800053d2:	01051b9b          	sllw	s7,a0,0x10
    800053d6:	410bd09b          	sraw	ra,s7,0x10
    800053da:	03009793          	sll	a5,ra,0x30
    800053de:	01cf8dbb          	addw	s11,t6,t3
    800053e2:	0307d613          	srl	a2,a5,0x30
    800053e6:	dbba5ae3          	bge	s4,s11,8000519a <matrix_test+0x48c>
    800053ea:	0086aa83          	lw	s5,8(a3)
    800053ee:	00a6059b          	addw	a1,a2,10
    800053f2:	01059e9b          	sllw	t4,a1,0x10
    800053f6:	410ed39b          	sraw	t2,t4,0x10
    800053fa:	4d81                	li	s11,0
    800053fc:	03039293          	sll	t0,t2,0x30
    80005400:	01ba87bb          	addw	a5,s5,s11
    80005404:	0302d513          	srl	a0,t0,0x30
    80005408:	dafa5be3          	bge	s4,a5,800051be <matrix_test+0x4b0>
    8000540c:	46d0                	lw	a2,12(a3)
    8000540e:	00a5009b          	addw	ra,a0,10
    80005412:	01009e1b          	sllw	t3,ra,0x10
    80005416:	410e5f9b          	sraw	t6,t3,0x10
    8000541a:	4781                	li	a5,0
    8000541c:	030f9713          	sll	a4,t6,0x30
    80005420:	00f602bb          	addw	t0,a2,a5
    80005424:	03075f13          	srl	t5,a4,0x30
    80005428:	da5a5ce3          	bge	s4,t0,800051e0 <matrix_test+0x4d2>
    8000542c:	00af039b          	addw	t2,t5,10
    80005430:	0106ab83          	lw	s7,16(a3)
    80005434:	01039d9b          	sllw	s11,t2,0x10
    80005438:	410dda9b          	sraw	s5,s11,0x10
    8000543c:	4281                	li	t0,0
    8000543e:	030a9513          	sll	a0,s5,0x30
    80005442:	005b8f3b          	addw	t5,s7,t0
    80005446:	03055893          	srl	a7,a0,0x30
    8000544a:	dbea5de3          	bge	s4,t5,80005204 <matrix_test+0x4f6>
    8000544e:	00a88f9b          	addw	t6,a7,10
    80005452:	4ad0                	lw	a2,20(a3)
    80005454:	010f979b          	sllw	a5,t6,0x10
    80005458:	4107d71b          	sraw	a4,a5,0x10
    8000545c:	4f01                	li	t5,0
    8000545e:	03071313          	sll	t1,a4,0x30
    80005462:	01e608bb          	addw	a7,a2,t5
    80005466:	03035593          	srl	a1,t1,0x30
    8000546a:	db1a5ee3          	bge	s4,a7,80005226 <matrix_test+0x518>
    8000546e:	4e98                	lw	a4,24(a3)
    80005470:	00a58a9b          	addw	s5,a1,10
    80005474:	010a929b          	sllw	t0,s5,0x10
    80005478:	4102db9b          	sraw	s7,t0,0x10
    8000547c:	4881                	li	a7,0
    8000547e:	030b9513          	sll	a0,s7,0x30
    80005482:	011707bb          	addw	a5,a4,a7
    80005486:	03055813          	srl	a6,a0,0x30
    8000548a:	dafa5fe3          	bge	s4,a5,80005248 <matrix_test+0x53a>
    8000548e:	00a8079b          	addw	a5,a6,10
    80005492:	01079f1b          	sllw	t5,a5,0x10
    80005496:	410f551b          	sraw	a0,t5,0x10
    8000549a:	4781                	li	a5,0
    8000549c:	bb75                	j	80005258 <matrix_test+0x54a>
    8000549e:	00aa889b          	addw	a7,s5,10
    800054a2:	0108981b          	sllw	a6,a7,0x10
    800054a6:	4108551b          	sraw	a0,a6,0x10
    800054aa:	4781                	li	a5,0
    800054ac:	b171                	j	80005138 <matrix_test+0x42a>
    800054ae:	00e0a633          	slt	a2,ra,a4
    800054b2:	01f60f3b          	addw	t5,a2,t6
    800054b6:	010f131b          	sllw	t1,t5,0x10
    800054ba:	4103551b          	sraw	a0,t1,0x10
    800054be:	0691                	add	a3,a3,4
    800054c0:	b999                	j	80005116 <matrix_test+0x408>
    800054c2:	00eda533          	slt	a0,s11,a4
    800054c6:	00550bbb          	addw	s7,a0,t0
    800054ca:	010b989b          	sllw	a7,s7,0x10
    800054ce:	4108d51b          	sraw	a0,a7,0x10
    800054d2:	0691                	add	a3,a3,4
    800054d4:	b105                	j	800050f4 <matrix_test+0x3e6>
    800054d6:	000c9463          	bnez	s9,800054de <matrix_test+0x7d0>
    800054da:	0a60106f          	j	80006580 <matrix_test+0x1872>
    800054de:	020d1b93          	sll	s7,s10,0x20
    800054e2:	01ebd513          	srl	a0,s7,0x1e
    800054e6:	ffc50313          	add	t1,a0,-4
    800054ea:	00235813          	srl	a6,t1,0x2
    800054ee:	00180e13          	add	t3,a6,1
    800054f2:	007e7e93          	and	t4,t3,7
    800054f6:	00a982b3          	add	t0,s3,a0
    800054fa:	86ce                	mv	a3,s3
    800054fc:	4701                	li	a4,0
    800054fe:	4501                	li	a0,0
    80005500:	4781                	li	a5,0
    80005502:	100e8ae3          	beqz	t4,80005e16 <matrix_test+0x1108>
    80005506:	4605                	li	a2,1
    80005508:	0ece8463          	beq	t4,a2,800055f0 <matrix_test+0x8e2>
    8000550c:	4089                	li	ra,2
    8000550e:	0a1e8f63          	beq	t4,ra,800055cc <matrix_test+0x8be>
    80005512:	4f0d                	li	t5,3
    80005514:	09ee8a63          	beq	t4,t5,800055a8 <matrix_test+0x89a>
    80005518:	4d91                	li	s11,4
    8000551a:	07be8663          	beq	t4,s11,80005586 <matrix_test+0x878>
    8000551e:	4395                	li	t2,5
    80005520:	047e8263          	beq	t4,t2,80005564 <matrix_test+0x856>
    80005524:	4899                	li	a7,6
    80005526:	011e8e63          	beq	t4,a7,80005542 <matrix_test+0x834>
    8000552a:	0009a703          	lw	a4,0(s3)
    8000552e:	4681                	li	a3,0
    80005530:	87ba                	mv	a5,a4
    80005532:	00e6a533          	slt	a0,a3,a4
    80005536:	00ea5463          	bge	s4,a4,8000553e <matrix_test+0x830>
    8000553a:	4529                	li	a0,10
    8000553c:	4781                	li	a5,0
    8000553e:	00498693          	add	a3,s3,4
    80005542:	8fba                	mv	t6,a4
    80005544:	4298                	lw	a4,0(a3)
    80005546:	03051b93          	sll	s7,a0,0x30
    8000554a:	030bd313          	srl	t1,s7,0x30
    8000554e:	9fb9                	addw	a5,a5,a4
    80005550:	7cfa54e3          	bge	s4,a5,80006518 <matrix_test+0x180a>
    80005554:	00a3079b          	addw	a5,t1,10
    80005558:	01079e9b          	sllw	t4,a5,0x10
    8000555c:	410ed51b          	sraw	a0,t4,0x10
    80005560:	4781                	li	a5,0
    80005562:	0691                	add	a3,a3,4
    80005564:	80ba                	mv	ra,a4
    80005566:	4298                	lw	a4,0(a3)
    80005568:	03051613          	sll	a2,a0,0x30
    8000556c:	03065f13          	srl	t5,a2,0x30
    80005570:	9fb9                	addw	a5,a5,a4
    80005572:	6efa59e3          	bge	s4,a5,80006464 <matrix_test+0x1756>
    80005576:	00af0f9b          	addw	t6,t5,10
    8000557a:	010f9b9b          	sllw	s7,t6,0x10
    8000557e:	410bd51b          	sraw	a0,s7,0x10
    80005582:	4781                	li	a5,0
    80005584:	0691                	add	a3,a3,4
    80005586:	833a                	mv	t1,a4
    80005588:	4298                	lw	a4,0(a3)
    8000558a:	1542                	sll	a0,a0,0x30
    8000558c:	03055813          	srl	a6,a0,0x30
    80005590:	9fb9                	addw	a5,a5,a4
    80005592:	6afa4fe3          	blt	s4,a5,80006450 <matrix_test+0x1742>
    80005596:	00e32e33          	slt	t3,t1,a4
    8000559a:	010e0ebb          	addw	t4,t3,a6
    8000559e:	010e909b          	sllw	ra,t4,0x10
    800055a2:	4100d51b          	sraw	a0,ra,0x10
    800055a6:	0691                	add	a3,a3,4
    800055a8:	8f3a                	mv	t5,a4
    800055aa:	4298                	lw	a4,0(a3)
    800055ac:	03051d93          	sll	s11,a0,0x30
    800055b0:	030dd393          	srl	t2,s11,0x30
    800055b4:	9fb9                	addw	a5,a5,a4
    800055b6:	62fa4be3          	blt	s4,a5,800063ec <matrix_test+0x16de>
    800055ba:	00ef28b3          	slt	a7,t5,a4
    800055be:	00788fbb          	addw	t6,a7,t2
    800055c2:	010f9b9b          	sllw	s7,t6,0x10
    800055c6:	410bd51b          	sraw	a0,s7,0x10
    800055ca:	0691                	add	a3,a3,4
    800055cc:	883a                	mv	a6,a4
    800055ce:	4298                	lw	a4,0(a3)
    800055d0:	03051e13          	sll	t3,a0,0x30
    800055d4:	030e5e93          	srl	t4,t3,0x30
    800055d8:	9fb9                	addw	a5,a5,a4
    800055da:	5cfa4be3          	blt	s4,a5,800063b0 <matrix_test+0x16a2>
    800055de:	00e820b3          	slt	ra,a6,a4
    800055e2:	01d0863b          	addw	a2,ra,t4
    800055e6:	01061f1b          	sllw	t5,a2,0x10
    800055ea:	410f551b          	sraw	a0,t5,0x10
    800055ee:	0691                	add	a3,a3,4
    800055f0:	83ba                	mv	t2,a4
    800055f2:	4298                	lw	a4,0(a3)
    800055f4:	03051893          	sll	a7,a0,0x30
    800055f8:	0308df93          	srl	t6,a7,0x30
    800055fc:	9fb9                	addw	a5,a5,a4
    800055fe:	56fa4de3          	blt	s4,a5,80006378 <matrix_test+0x166a>
    80005602:	00e3abb3          	slt	s7,t2,a4
    80005606:	01fb833b          	addw	t1,s7,t6
    8000560a:	0103151b          	sllw	a0,t1,0x10
    8000560e:	4105551b          	sraw	a0,a0,0x10
    80005612:	0691                	add	a3,a3,4
    80005614:	00d291e3          	bne	t0,a3,80005e16 <matrix_test+0x1108>
    80005618:	ab4fc0ef          	jal	800018cc <crc16>
    8000561c:	8daa                	mv	s11,a0
    8000561e:	8326                	mv	t1,s1
    80005620:	4881                	li	a7,0
    80005622:	4b81                	li	s7,0
    80005624:	4601                	li	a2,0
    80005626:	011605bb          	addw	a1,a2,a7
    8000562a:	02059f13          	sll	t5,a1,0x20
    8000562e:	411302b3          	sub	t0,t1,a7
    80005632:	01ef5393          	srl	t2,t5,0x1e
    80005636:	0032ff93          	and	t6,t0,3
    8000563a:	007985b3          	add	a1,s3,t2
    8000563e:	8732                	mv	a4,a2
    80005640:	87c6                	mv	a5,a7
    80005642:	4681                	li	a3,0
    80005644:	080f8e63          	beqz	t6,800056e0 <matrix_test+0x9d2>
    80005648:	4505                	li	a0,1
    8000564a:	06af8163          	beq	t6,a0,800056ac <matrix_test+0x99e>
    8000564e:	4809                	li	a6,2
    80005650:	030f8863          	beq	t6,a6,80005680 <matrix_test+0x972>
    80005654:	02089713          	sll	a4,a7,0x20
    80005658:	02061e93          	sll	t4,a2,0x20
    8000565c:	01f75e13          	srl	t3,a4,0x1f
    80005660:	01fed093          	srl	ra,t4,0x1f
    80005664:	01c406b3          	add	a3,s0,t3
    80005668:	001907b3          	add	a5,s2,ra
    8000566c:	00079f03          	lh	t5,0(a5)
    80005670:	00069283          	lh	t0,0(a3)
    80005674:	0018879b          	addw	a5,a7,1
    80005678:	00c4873b          	addw	a4,s1,a2
    8000567c:	03e286bb          	mulw	a3,t0,t5
    80005680:	02079393          	sll	t2,a5,0x20
    80005684:	02071513          	sll	a0,a4,0x20
    80005688:	01f3df93          	srl	t6,t2,0x1f
    8000568c:	01f55e13          	srl	t3,a0,0x1f
    80005690:	01f40833          	add	a6,s0,t6
    80005694:	01c90eb3          	add	t4,s2,t3
    80005698:	00081083          	lh	ra,0(a6)
    8000569c:	000e9283          	lh	t0,0(t4)
    800056a0:	2785                	addw	a5,a5,1
    800056a2:	9f25                	addw	a4,a4,s1
    800056a4:	02508f3b          	mulw	t5,ra,t0
    800056a8:	00df06bb          	addw	a3,t5,a3
    800056ac:	02079393          	sll	t2,a5,0x20
    800056b0:	02071513          	sll	a0,a4,0x20
    800056b4:	01f3df93          	srl	t6,t2,0x1f
    800056b8:	01f55e13          	srl	t3,a0,0x1f
    800056bc:	01f40833          	add	a6,s0,t6
    800056c0:	01c90eb3          	add	t4,s2,t3
    800056c4:	00081083          	lh	ra,0(a6)
    800056c8:	000e9283          	lh	t0,0(t4)
    800056cc:	2785                	addw	a5,a5,1
    800056ce:	883e                	mv	a6,a5
    800056d0:	02508f3b          	mulw	t5,ra,t0
    800056d4:	9f25                	addw	a4,a4,s1
    800056d6:	00df06bb          	addw	a3,t5,a3
    800056da:	83b6                	mv	t2,a3
    800056dc:	0c678163          	beq	a5,t1,8000579e <matrix_test+0xa90>
    800056e0:	00178e9b          	addw	t4,a5,1
    800056e4:	00e48e3b          	addw	t3,s1,a4
    800056e8:	02079f93          	sll	t6,a5,0x20
    800056ec:	01ffd093          	srl	ra,t6,0x1f
    800056f0:	02071513          	sll	a0,a4,0x20
    800056f4:	020e9f13          	sll	t5,t4,0x20
    800056f8:	020e1713          	sll	a4,t3,0x20
    800056fc:	001e881b          	addw	a6,t4,1
    80005700:	01f55793          	srl	a5,a0,0x1f
    80005704:	01c483bb          	addw	t2,s1,t3
    80005708:	001402b3          	add	t0,s0,ra
    8000570c:	01f75e13          	srl	t3,a4,0x1f
    80005710:	01ff5093          	srl	ra,t5,0x1f
    80005714:	00f90fb3          	add	t6,s2,a5
    80005718:	0074873b          	addw	a4,s1,t2
    8000571c:	0018079b          	addw	a5,a6,1
    80005720:	00140f33          	add	t5,s0,ra
    80005724:	02081513          	sll	a0,a6,0x20
    80005728:	01c900b3          	add	ra,s2,t3
    8000572c:	1382                	sll	t2,t2,0x20
    8000572e:	000f9e83          	lh	t4,0(t6)
    80005732:	01f55813          	srl	a6,a0,0x1f
    80005736:	01f3de13          	srl	t3,t2,0x1f
    8000573a:	02071513          	sll	a0,a4,0x20
    8000573e:	000f1383          	lh	t2,0(t5)
    80005742:	00029283          	lh	t0,0(t0)
    80005746:	00009f03          	lh	t5,0(ra)
    8000574a:	02079093          	sll	ra,a5,0x20
    8000574e:	01040fb3          	add	t6,s0,a6
    80005752:	9e4a                	add	t3,t3,s2
    80005754:	01f0d813          	srl	a6,ra,0x1f
    80005758:	01f55093          	srl	ra,a0,0x1f
    8000575c:	000f9f83          	lh	t6,0(t6)
    80005760:	000e1e03          	lh	t3,0(t3)
    80005764:	9822                	add	a6,a6,s0
    80005766:	00190533          	add	a0,s2,ra
    8000576a:	03d282bb          	mulw	t0,t0,t4
    8000576e:	00051083          	lh	ra,0(a0)
    80005772:	00081e83          	lh	t4,0(a6)
    80005776:	2785                	addw	a5,a5,1
    80005778:	883e                	mv	a6,a5
    8000577a:	9f25                	addw	a4,a4,s1
    8000577c:	03e383bb          	mulw	t2,t2,t5
    80005780:	00d286bb          	addw	a3,t0,a3
    80005784:	03cf8f3b          	mulw	t5,t6,t3
    80005788:	00d38fbb          	addw	t6,t2,a3
    8000578c:	021e8e3b          	mulw	t3,t4,ra
    80005790:	01ff053b          	addw	a0,t5,t6
    80005794:	00ae06bb          	addw	a3,t3,a0
    80005798:	83b6                	mv	t2,a3
    8000579a:	f46793e3          	bne	a5,t1,800056e0 <matrix_test+0x9d2>
    8000579e:	0075a023          	sw	t2,0(a1)
    800057a2:	2605                	addw	a2,a2,1
    800057a4:	e8c491e3          	bne	s1,a2,80005626 <matrix_test+0x918>
    800057a8:	2b85                	addw	s7,s7,1
    800057aa:	011488bb          	addw	a7,s1,a7
    800057ae:	0098033b          	addw	t1,a6,s1
    800057b2:	e69be9e3          	bltu	s7,s1,80005624 <matrix_test+0x916>
    800057b6:	5a0c84e3          	beqz	s9,8000655e <matrix_test+0x1850>
    800057ba:	020d1493          	sll	s1,s10,0x20
    800057be:	0204db93          	srl	s7,s1,0x20
    800057c2:	002b9593          	sll	a1,s7,0x2
    800057c6:	ffc58793          	add	a5,a1,-4
    800057ca:	0027d713          	srl	a4,a5,0x2
    800057ce:	00170813          	add	a6,a4,1
    800057d2:	00787293          	and	t0,a6,7
    800057d6:	00b984b3          	add	s1,s3,a1
    800057da:	86ce                	mv	a3,s3
    800057dc:	4701                	li	a4,0
    800057de:	4501                	li	a0,0
    800057e0:	4781                	li	a5,0
    800057e2:	040287e3          	beqz	t0,80006030 <matrix_test+0x1322>
    800057e6:	4e85                	li	t4,1
    800057e8:	0fd28363          	beq	t0,t4,800058ce <matrix_test+0xbc0>
    800057ec:	4089                	li	ra,2
    800057ee:	0a128e63          	beq	t0,ra,800058aa <matrix_test+0xb9c>
    800057f2:	438d                	li	t2,3
    800057f4:	08728963          	beq	t0,t2,80005886 <matrix_test+0xb78>
    800057f8:	4f11                	li	t5,4
    800057fa:	07e28463          	beq	t0,t5,80005862 <matrix_test+0xb54>
    800057fe:	4f95                	li	t6,5
    80005800:	05f28063          	beq	t0,t6,80005840 <matrix_test+0xb32>
    80005804:	4e19                	li	t3,6
    80005806:	01c28d63          	beq	t0,t3,80005820 <matrix_test+0xb12>
    8000580a:	0009a703          	lw	a4,0(s3)
    8000580e:	87ba                	mv	a5,a4
    80005810:	00e02533          	sgtz	a0,a4
    80005814:	00ea5463          	bge	s4,a4,8000581c <matrix_test+0xb0e>
    80005818:	4529                	li	a0,10
    8000581a:	4781                	li	a5,0
    8000581c:	00498693          	add	a3,s3,4
    80005820:	88ba                	mv	a7,a4
    80005822:	4298                	lw	a4,0(a3)
    80005824:	1542                	sll	a0,a0,0x30
    80005826:	03055613          	srl	a2,a0,0x30
    8000582a:	9fb9                	addw	a5,a5,a4
    8000582c:	50fa51e3          	bge	s4,a5,8000652e <matrix_test+0x1820>
    80005830:	00a6079b          	addw	a5,a2,10
    80005834:	0107929b          	sllw	t0,a5,0x10
    80005838:	4102d51b          	sraw	a0,t0,0x10
    8000583c:	4781                	li	a5,0
    8000583e:	0691                	add	a3,a3,4
    80005840:	8eba                	mv	t4,a4
    80005842:	4298                	lw	a4,0(a3)
    80005844:	03051093          	sll	ra,a0,0x30
    80005848:	0300d393          	srl	t2,ra,0x30
    8000584c:	9fb9                	addw	a5,a5,a4
    8000584e:	42fa56e3          	bge	s4,a5,8000647a <matrix_test+0x176c>
    80005852:	00a3889b          	addw	a7,t2,10
    80005856:	0108951b          	sllw	a0,a7,0x10
    8000585a:	4105551b          	sraw	a0,a0,0x10
    8000585e:	4781                	li	a5,0
    80005860:	0691                	add	a3,a3,4
    80005862:	833a                	mv	t1,a4
    80005864:	4298                	lw	a4,0(a3)
    80005866:	03051613          	sll	a2,a0,0x30
    8000586a:	03065813          	srl	a6,a2,0x30
    8000586e:	9fb9                	addw	a5,a5,a4
    80005870:	3afa4ce3          	blt	s4,a5,80006428 <matrix_test+0x171a>
    80005874:	00e325b3          	slt	a1,t1,a4
    80005878:	010582bb          	addw	t0,a1,a6
    8000587c:	01029e9b          	sllw	t4,t0,0x10
    80005880:	410ed51b          	sraw	a0,t4,0x10
    80005884:	0691                	add	a3,a3,4
    80005886:	83ba                	mv	t2,a4
    80005888:	4298                	lw	a4,0(a3)
    8000588a:	03051f13          	sll	t5,a0,0x30
    8000588e:	030f5f93          	srl	t6,t5,0x30
    80005892:	9fb9                	addw	a5,a5,a4
    80005894:	36fa46e3          	blt	s4,a5,80006400 <matrix_test+0x16f2>
    80005898:	00e3ae33          	slt	t3,t2,a4
    8000589c:	01fe08bb          	addw	a7,t3,t6
    800058a0:	0108951b          	sllw	a0,a7,0x10
    800058a4:	4105551b          	sraw	a0,a0,0x10
    800058a8:	0691                	add	a3,a3,4
    800058aa:	883a                	mv	a6,a4
    800058ac:	4298                	lw	a4,0(a3)
    800058ae:	03051593          	sll	a1,a0,0x30
    800058b2:	0305d293          	srl	t0,a1,0x30
    800058b6:	9fb9                	addw	a5,a5,a4
    800058b8:	30fa46e3          	blt	s4,a5,800063c4 <matrix_test+0x16b6>
    800058bc:	00e82eb3          	slt	t4,a6,a4
    800058c0:	005e80bb          	addw	ra,t4,t0
    800058c4:	0100939b          	sllw	t2,ra,0x10
    800058c8:	4103d51b          	sraw	a0,t2,0x10
    800058cc:	0691                	add	a3,a3,4
    800058ce:	8fba                	mv	t6,a4
    800058d0:	4298                	lw	a4,0(a3)
    800058d2:	03051e13          	sll	t3,a0,0x30
    800058d6:	030e5893          	srl	a7,t3,0x30
    800058da:	9fb9                	addw	a5,a5,a4
    800058dc:	28fa45e3          	blt	s4,a5,80006366 <matrix_test+0x1658>
    800058e0:	00efa533          	slt	a0,t6,a4
    800058e4:	0115033b          	addw	t1,a0,a7
    800058e8:	0103161b          	sllw	a2,t1,0x10
    800058ec:	4106551b          	sraw	a0,a2,0x10
    800058f0:	0691                	add	a3,a3,4
    800058f2:	72d49f63          	bne	s1,a3,80006030 <matrix_test+0x1322>
    800058f6:	85ee                	mv	a1,s11
    800058f8:	001b9d93          	sll	s11,s7,0x1
    800058fc:	fd1fb0ef          	jal	800018cc <crc16>
    80005900:	ffed8b93          	add	s7,s11,-2
    80005904:	001bd393          	srl	t2,s7,0x1
    80005908:	00138f13          	add	t5,t2,1
    8000590c:	007f7f93          	and	t6,t5,7
    80005910:	85aa                	mv	a1,a0
    80005912:	01b902b3          	add	t0,s2,s11
    80005916:	87ce                	mv	a5,s3
    80005918:	080f8663          	beqz	t6,800059a4 <matrix_test+0xc96>
    8000591c:	4085                	li	ra,1
    8000591e:	061f8963          	beq	t6,ra,80005990 <matrix_test+0xc82>
    80005922:	4e09                	li	t3,2
    80005924:	05cf8e63          	beq	t6,t3,80005980 <matrix_test+0xc72>
    80005928:	488d                	li	a7,3
    8000592a:	051f8363          	beq	t6,a7,80005970 <matrix_test+0xc62>
    8000592e:	4711                	li	a4,4
    80005930:	02ef8863          	beq	t6,a4,80005960 <matrix_test+0xc52>
    80005934:	4515                	li	a0,5
    80005936:	00af8d63          	beq	t6,a0,80005950 <matrix_test+0xc42>
    8000593a:	4319                	li	t1,6
    8000593c:	386f9be3          	bne	t6,t1,800064d2 <matrix_test+0x17c4>
    80005940:	000ade83          	lhu	t4,0(s5)
    80005944:	0791                	add	a5,a5,4
    80005946:	0a89                	add	s5,s5,2
    80005948:	00fef613          	and	a2,t4,15
    8000594c:	fec7ae23          	sw	a2,-4(a5)
    80005950:	000ad683          	lhu	a3,0(s5)
    80005954:	0791                	add	a5,a5,4
    80005956:	0a89                	add	s5,s5,2
    80005958:	00f6fd93          	and	s11,a3,15
    8000595c:	ffb7ae23          	sw	s11,-4(a5)
    80005960:	000adb83          	lhu	s7,0(s5)
    80005964:	0791                	add	a5,a5,4
    80005966:	0a89                	add	s5,s5,2
    80005968:	00fbf393          	and	t2,s7,15
    8000596c:	fe77ae23          	sw	t2,-4(a5)
    80005970:	000adf03          	lhu	t5,0(s5)
    80005974:	0791                	add	a5,a5,4
    80005976:	0a89                	add	s5,s5,2
    80005978:	00ff7f93          	and	t6,t5,15
    8000597c:	fff7ae23          	sw	t6,-4(a5)
    80005980:	000ad083          	lhu	ra,0(s5)
    80005984:	0791                	add	a5,a5,4
    80005986:	0a89                	add	s5,s5,2
    80005988:	00f0fe13          	and	t3,ra,15
    8000598c:	ffc7ae23          	sw	t3,-4(a5)
    80005990:	000ad883          	lhu	a7,0(s5)
    80005994:	0791                	add	a5,a5,4
    80005996:	0a89                	add	s5,s5,2
    80005998:	00f8f713          	and	a4,a7,15
    8000599c:	fee7ae23          	sw	a4,-4(a5)
    800059a0:	065a8663          	beq	s5,t0,80005a0c <matrix_test+0xcfe>
    800059a4:	000ad903          	lhu	s2,0(s5)
    800059a8:	002ad683          	lhu	a3,2(s5)
    800059ac:	004ad303          	lhu	t1,4(s5)
    800059b0:	006add83          	lhu	s11,6(s5)
    800059b4:	008ad803          	lhu	a6,8(s5)
    800059b8:	00aad503          	lhu	a0,10(s5)
    800059bc:	00cad603          	lhu	a2,12(s5)
    800059c0:	00eadb83          	lhu	s7,14(s5)
    800059c4:	00f97e93          	and	t4,s2,15
    800059c8:	00f6f393          	and	t2,a3,15
    800059cc:	00f37f13          	and	t5,t1,15
    800059d0:	00fdff93          	and	t6,s11,15
    800059d4:	00f87093          	and	ra,a6,15
    800059d8:	00f57e13          	and	t3,a0,15
    800059dc:	00f67893          	and	a7,a2,15
    800059e0:	00fbf713          	and	a4,s7,15
    800059e4:	01d7a023          	sw	t4,0(a5)
    800059e8:	0077a223          	sw	t2,4(a5)
    800059ec:	01e7a423          	sw	t5,8(a5)
    800059f0:	01f7a623          	sw	t6,12(a5)
    800059f4:	0017a823          	sw	ra,16(a5)
    800059f8:	01c7aa23          	sw	t3,20(a5)
    800059fc:	0117ac23          	sw	a7,24(a5)
    80005a00:	cfd8                	sw	a4,28(a5)
    80005a02:	0ac1                	add	s5,s5,16
    80005a04:	02078793          	add	a5,a5,32
    80005a08:	f85a9ee3          	bne	s5,t0,800059a4 <matrix_test+0xc96>
    80005a0c:	41348ab3          	sub	s5,s1,s3
    80005a10:	ffca8293          	add	t0,s5,-4
    80005a14:	0022d793          	srl	a5,t0,0x2
    80005a18:	00178913          	add	s2,a5,1
    80005a1c:	00797693          	and	a3,s2,7
    80005a20:	4701                	li	a4,0
    80005a22:	4501                	li	a0,0
    80005a24:	4781                	li	a5,0
    80005a26:	020684e3          	beqz	a3,8000624e <matrix_test+0x1540>
    80005a2a:	4305                	li	t1,1
    80005a2c:	0e668863          	beq	a3,t1,80005b1c <matrix_test+0xe0e>
    80005a30:	4d89                	li	s11,2
    80005a32:	0db68263          	beq	a3,s11,80005af6 <matrix_test+0xde8>
    80005a36:	480d                	li	a6,3
    80005a38:	09068c63          	beq	a3,a6,80005ad0 <matrix_test+0xdc2>
    80005a3c:	4611                	li	a2,4
    80005a3e:	06c68663          	beq	a3,a2,80005aaa <matrix_test+0xd9c>
    80005a42:	4b95                	li	s7,5
    80005a44:	05768163          	beq	a3,s7,80005a86 <matrix_test+0xd78>
    80005a48:	4e99                	li	t4,6
    80005a4a:	01d68d63          	beq	a3,t4,80005a64 <matrix_test+0xd56>
    80005a4e:	0009a703          	lw	a4,0(s3)
    80005a52:	87ba                	mv	a5,a4
    80005a54:	00e02533          	sgtz	a0,a4
    80005a58:	00ea5463          	bge	s4,a4,80005a60 <matrix_test+0xd52>
    80005a5c:	4529                	li	a0,10
    80005a5e:	4781                	li	a5,0
    80005a60:	00498b13          	add	s6,s3,4
    80005a64:	89ba                	mv	s3,a4
    80005a66:	000b2703          	lw	a4,0(s6)
    80005a6a:	1542                	sll	a0,a0,0x30
    80005a6c:	03055393          	srl	t2,a0,0x30
    80005a70:	9fb9                	addw	a5,a5,a4
    80005a72:	24fa55e3          	bge	s4,a5,800064bc <matrix_test+0x17ae>
    80005a76:	00a38e1b          	addw	t3,t2,10
    80005a7a:	010e189b          	sllw	a7,t3,0x10
    80005a7e:	4108d51b          	sraw	a0,a7,0x10
    80005a82:	4781                	li	a5,0
    80005a84:	0b11                	add	s6,s6,4
    80005a86:	8aba                	mv	s5,a4
    80005a88:	000b2703          	lw	a4,0(s6)
    80005a8c:	03051293          	sll	t0,a0,0x30
    80005a90:	0302d913          	srl	s2,t0,0x30
    80005a94:	9fb9                	addw	a5,a5,a4
    80005a96:	1efa5de3          	bge	s4,a5,80006490 <matrix_test+0x1782>
    80005a9a:	00a9079b          	addw	a5,s2,10
    80005a9e:	0107981b          	sllw	a6,a5,0x10
    80005aa2:	4108551b          	sraw	a0,a6,0x10
    80005aa6:	4781                	li	a5,0
    80005aa8:	0b11                	add	s6,s6,4
    80005aaa:	863a                	mv	a2,a4
    80005aac:	000b2703          	lw	a4,0(s6)
    80005ab0:	03051b93          	sll	s7,a0,0x30
    80005ab4:	030bde93          	srl	t4,s7,0x30
    80005ab8:	9fb9                	addw	a5,a5,a4
    80005aba:	14fa4de3          	blt	s4,a5,80006414 <matrix_test+0x1706>
    80005abe:	00e629b3          	slt	s3,a2,a4
    80005ac2:	01d9853b          	addw	a0,s3,t4
    80005ac6:	0105139b          	sllw	t2,a0,0x10
    80005aca:	4103d51b          	sraw	a0,t2,0x10
    80005ace:	0b11                	add	s6,s6,4
    80005ad0:	80ba                	mv	ra,a4
    80005ad2:	000b2703          	lw	a4,0(s6)
    80005ad6:	03051e13          	sll	t3,a0,0x30
    80005ada:	030e5893          	srl	a7,t3,0x30
    80005ade:	9fb9                	addw	a5,a5,a4
    80005ae0:	0efa4ce3          	blt	s4,a5,800063d8 <matrix_test+0x16ca>
    80005ae4:	00e0aab3          	slt	s5,ra,a4
    80005ae8:	011a82bb          	addw	t0,s5,a7
    80005aec:	0102991b          	sllw	s2,t0,0x10
    80005af0:	4109551b          	sraw	a0,s2,0x10
    80005af4:	0b11                	add	s6,s6,4
    80005af6:	8dba                	mv	s11,a4
    80005af8:	000b2703          	lw	a4,0(s6)
    80005afc:	03051813          	sll	a6,a0,0x30
    80005b00:	03085b93          	srl	s7,a6,0x30
    80005b04:	9fb9                	addw	a5,a5,a4
    80005b06:	08fa4be3          	blt	s4,a5,8000639c <matrix_test+0x168e>
    80005b0a:	00eda633          	slt	a2,s11,a4
    80005b0e:	01760ebb          	addw	t4,a2,s7
    80005b12:	010e999b          	sllw	s3,t4,0x10
    80005b16:	4109d51b          	sraw	a0,s3,0x10
    80005b1a:	0b11                	add	s6,s6,4
    80005b1c:	83ba                	mv	t2,a4
    80005b1e:	000b2703          	lw	a4,0(s6)
    80005b22:	03051f13          	sll	t5,a0,0x30
    80005b26:	030f5f93          	srl	t6,t5,0x30
    80005b2a:	9fb9                	addw	a5,a5,a4
    80005b2c:	04fa4fe3          	blt	s4,a5,8000638a <matrix_test+0x167c>
    80005b30:	00e3a0b3          	slt	ra,t2,a4
    80005b34:	01f08e3b          	addw	t3,ra,t6
    80005b38:	010e189b          	sllw	a7,t3,0x10
    80005b3c:	4108d51b          	sraw	a0,a7,0x10
    80005b40:	0b11                	add	s6,s6,4
    80005b42:	71649663          	bne	s1,s6,8000624e <matrix_test+0x1540>
    80005b46:	d87fb0ef          	jal	800018cc <crc16>
    80005b4a:	00145a13          	srl	s4,s0,0x1
    80005b4e:	414004bb          	negw	s1,s4
    80005b52:	1c42                	sll	s8,s8,0x30
    80005b54:	fffd059b          	addw	a1,s10,-1
    80005b58:	4b15                	li	s6,5
    80005b5a:	8aaa                	mv	s5,a0
    80005b5c:	030c5293          	srl	t0,s8,0x30
    80005b60:	0034f893          	and	a7,s1,3
    80005b64:	20bb7be3          	bgeu	s6,a1,8000657a <matrix_test+0x186c>
    80005b68:	4301                	li	t1,0
    80005b6a:	02088d63          	beqz	a7,80005ba4 <matrix_test+0xe96>
    80005b6e:	00045903          	lhu	s2,0(s0)
    80005b72:	0024f693          	and	a3,s1,2
    80005b76:	4305                	li	t1,1
    80005b78:	40590dbb          	subw	s11,s2,t0
    80005b7c:	01b41023          	sh	s11,0(s0)
    80005b80:	c295                	beqz	a3,80005ba4 <matrix_test+0xe96>
    80005b82:	00245803          	lhu	a6,2(s0)
    80005b86:	4b8d                	li	s7,3
    80005b88:	4309                	li	t1,2
    80005b8a:	4058063b          	subw	a2,a6,t0
    80005b8e:	00c41123          	sh	a2,2(s0)
    80005b92:	01789963          	bne	a7,s7,80005ba4 <matrix_test+0xe96>
    80005b96:	00445e83          	lhu	t4,4(s0)
    80005b9a:	430d                	li	t1,3
    80005b9c:	405e89bb          	subw	s3,t4,t0
    80005ba0:	01341223          	sh	s3,4(s0)
    80005ba4:	411d073b          	subw	a4,s10,a7
    80005ba8:	01029393          	sll	t2,t0,0x10
    80005bac:	02029f13          	sll	t5,t0,0x20
    80005bb0:	0072e533          	or	a0,t0,t2
    80005bb4:	00189f93          	sll	t6,a7,0x1
    80005bb8:	0027509b          	srlw	ra,a4,0x2
    80005bbc:	03029e13          	sll	t3,t0,0x30
    80005bc0:	01e56a33          	or	s4,a0,t5
    80005bc4:	01f407b3          	add	a5,s0,t6
    80005bc8:	00309493          	sll	s1,ra,0x3
    80005bcc:	01ca6b33          	or	s6,s4,t3
    80005bd0:	00f48c33          	add	s8,s1,a5
    80005bd4:	0007b883          	ld	a7,0(a5)
    80005bd8:	00003d17          	auipc	s10,0x3
    80005bdc:	00003597          	auipc	a1,0x3
    80005be0:	630d3903          	ld	s2,1584(s10) # 80009208 <mem_name+0x38>
    80005be4:	6245b683          	ld	a3,1572(a1) # 80009200 <mem_name+0x30>
    80005be8:	0168cdb3          	xor	s11,a7,s6
    80005bec:	fffdcb93          	not	s7,s11
    80005bf0:	0128e833          	or	a6,a7,s2
    80005bf4:	00db7633          	and	a2,s6,a3
    80005bf8:	012bfeb3          	and	t4,s7,s2
    80005bfc:	40c809b3          	sub	s3,a6,a2
    80005c00:	013ec3b3          	xor	t2,t4,s3
    80005c04:	0077b023          	sd	t2,0(a5)
    80005c08:	07a1                	add	a5,a5,8
    80005c0a:	fd8795e3          	bne	a5,s8,80005bd4 <matrix_test+0xec6>
    80005c0e:	00377f13          	and	t5,a4,3
    80005c12:	0c0f0963          	beqz	t5,80005ce4 <matrix_test+0xfd6>
    80005c16:	9b71                	and	a4,a4,-4
    80005c18:	00670d3b          	addw	s10,a4,t1
    80005c1c:	020d1313          	sll	t1,s10,0x20
    80005c20:	01f35513          	srl	a0,t1,0x1f
    80005c24:	00a40fb3          	add	t6,s0,a0
    80005c28:	000fd083          	lhu	ra,0(t6)
    80005c2c:	001d0e1b          	addw	t3,s10,1
    80005c30:	000e0a1b          	sext.w	s4,t3
    80005c34:	405084bb          	subw	s1,ra,t0
    80005c38:	009f9023          	sh	s1,0(t6)
    80005c3c:	0b9a7463          	bgeu	s4,s9,80005ce4 <matrix_test+0xfd6>
    80005c40:	020e1b13          	sll	s6,t3,0x20
    80005c44:	01fb5c13          	srl	s8,s6,0x1f
    80005c48:	018408b3          	add	a7,s0,s8
    80005c4c:	0008d903          	lhu	s2,0(a7)
    80005c50:	002d069b          	addw	a3,s10,2
    80005c54:	0006859b          	sext.w	a1,a3
    80005c58:	40590dbb          	subw	s11,s2,t0
    80005c5c:	01b89023          	sh	s11,0(a7)
    80005c60:	0995f263          	bgeu	a1,s9,80005ce4 <matrix_test+0xfd6>
    80005c64:	02069b93          	sll	s7,a3,0x20
    80005c68:	01fbd813          	srl	a6,s7,0x1f
    80005c6c:	01040633          	add	a2,s0,a6
    80005c70:	00065e83          	lhu	t4,0(a2)
    80005c74:	003d099b          	addw	s3,s10,3
    80005c78:	0009839b          	sext.w	t2,s3
    80005c7c:	405e87bb          	subw	a5,t4,t0
    80005c80:	00f61023          	sh	a5,0(a2)
    80005c84:	0793f063          	bgeu	t2,s9,80005ce4 <matrix_test+0xfd6>
    80005c88:	02099f13          	sll	t5,s3,0x20
    80005c8c:	01ff5713          	srl	a4,t5,0x1f
    80005c90:	00e40333          	add	t1,s0,a4
    80005c94:	00035503          	lhu	a0,0(t1)
    80005c98:	004d0f9b          	addw	t6,s10,4
    80005c9c:	000f809b          	sext.w	ra,t6
    80005ca0:	40550e3b          	subw	t3,a0,t0
    80005ca4:	01c31023          	sh	t3,0(t1)
    80005ca8:	0390fe63          	bgeu	ra,s9,80005ce4 <matrix_test+0xfd6>
    80005cac:	020f9a13          	sll	s4,t6,0x20
    80005cb0:	01fa5493          	srl	s1,s4,0x1f
    80005cb4:	00940b33          	add	s6,s0,s1
    80005cb8:	000b5c03          	lhu	s8,0(s6)
    80005cbc:	2d15                	addw	s10,s10,5
    80005cbe:	000d089b          	sext.w	a7,s10
    80005cc2:	405c093b          	subw	s2,s8,t0
    80005cc6:	012b1023          	sh	s2,0(s6)
    80005cca:	0198fd63          	bgeu	a7,s9,80005ce4 <matrix_test+0xfd6>
    80005cce:	020d1c93          	sll	s9,s10,0x20
    80005cd2:	01fcd693          	srl	a3,s9,0x1f
    80005cd6:	9436                	add	s0,s0,a3
    80005cd8:	00045583          	lhu	a1,0(s0)
    80005cdc:	405582bb          	subw	t0,a1,t0
    80005ce0:	00541023          	sh	t0,0(s0)
    80005ce4:	70a6                	ld	ra,104(sp)
    80005ce6:	7406                	ld	s0,96(sp)
    80005ce8:	010a9a9b          	sllw	s5,s5,0x10
    80005cec:	64e6                	ld	s1,88(sp)
    80005cee:	6946                	ld	s2,80(sp)
    80005cf0:	69a6                	ld	s3,72(sp)
    80005cf2:	6a06                	ld	s4,64(sp)
    80005cf4:	7b42                	ld	s6,48(sp)
    80005cf6:	7ba2                	ld	s7,40(sp)
    80005cf8:	7c02                	ld	s8,32(sp)
    80005cfa:	6ce2                	ld	s9,24(sp)
    80005cfc:	6d42                	ld	s10,16(sp)
    80005cfe:	6da2                	ld	s11,8(sp)
    80005d00:	410ad51b          	sraw	a0,s5,0x10
    80005d04:	7ae2                	ld	s5,56(sp)
    80005d06:	6165                	add	sp,sp,112
    80005d08:	8082                	ret
    80005d0a:	0046ab83          	lw	s7,4(a3)
    80005d0e:	00a6089b          	addw	a7,a2,10
    80005d12:	01089f9b          	sllw	t6,a7,0x10
    80005d16:	410fd39b          	sraw	t2,t6,0x10
    80005d1a:	4f01                	li	t5,0
    80005d1c:	03039313          	sll	t1,t2,0x30
    80005d20:	01eb873b          	addw	a4,s7,t5
    80005d24:	0691                	add	a3,a3,4
    80005d26:	03035513          	srl	a0,t1,0x30
    80005d2a:	12ea5363          	bge	s4,a4,80005e50 <matrix_test+0x1142>
    80005d2e:	0046ad83          	lw	s11,4(a3)
    80005d32:	00a5009b          	addw	ra,a0,10
    80005d36:	0100961b          	sllw	a2,ra,0x10
    80005d3a:	41065f1b          	sraw	t5,a2,0x10
    80005d3e:	4701                	li	a4,0
    80005d40:	030f1793          	sll	a5,t5,0x30
    80005d44:	00ed8e3b          	addw	t3,s11,a4
    80005d48:	0307d393          	srl	t2,a5,0x30
    80005d4c:	13ca4463          	blt	s4,t3,80005e74 <matrix_test+0x1166>
    80005d50:	01bba8b3          	slt	a7,s7,s11
    80005d54:	00788fbb          	addw	t6,a7,t2
    80005d58:	0086ae83          	lw	t4,8(a3)
    80005d5c:	010f9b9b          	sllw	s7,t6,0x10
    80005d60:	410bd81b          	sraw	a6,s7,0x10
    80005d64:	03081093          	sll	ra,a6,0x30
    80005d68:	01ce8fbb          	addw	t6,t4,t3
    80005d6c:	0300df13          	srl	t5,ra,0x30
    80005d70:	13fa4363          	blt	s4,t6,80005e96 <matrix_test+0x1188>
    80005d74:	01dda633          	slt	a2,s11,t4
    80005d78:	00c6ab83          	lw	s7,12(a3)
    80005d7c:	01e6073b          	addw	a4,a2,t5
    80005d80:	01071d9b          	sllw	s11,a4,0x10
    80005d84:	410dd89b          	sraw	a7,s11,0x10
    80005d88:	03089313          	sll	t1,a7,0x30
    80005d8c:	01fb8dbb          	addw	s11,s7,t6
    80005d90:	03035513          	srl	a0,t1,0x30
    80005d94:	13ba4263          	blt	s4,s11,80005eb8 <matrix_test+0x11aa>
    80005d98:	017ea833          	slt	a6,t4,s7
    80005d9c:	00a80e3b          	addw	t3,a6,a0
    80005da0:	4a98                	lw	a4,16(a3)
    80005da2:	010e1e9b          	sllw	t4,t3,0x10
    80005da6:	410ed61b          	sraw	a2,t4,0x10
    80005daa:	03061793          	sll	a5,a2,0x30
    80005dae:	01b70e3b          	addw	t3,a4,s11
    80005db2:	0307d393          	srl	t2,a5,0x30
    80005db6:	13ca4163          	blt	s4,t3,80005ed8 <matrix_test+0x11ca>
    80005dba:	00eba8b3          	slt	a7,s7,a4
    80005dbe:	00788fbb          	addw	t6,a7,t2
    80005dc2:	0146ae83          	lw	t4,20(a3)
    80005dc6:	010f9b9b          	sllw	s7,t6,0x10
    80005dca:	410bd81b          	sraw	a6,s7,0x10
    80005dce:	03081093          	sll	ra,a6,0x30
    80005dd2:	01ce8fbb          	addw	t6,t4,t3
    80005dd6:	0300df13          	srl	t5,ra,0x30
    80005dda:	13fa4063          	blt	s4,t6,80005efa <matrix_test+0x11ec>
    80005dde:	01d72633          	slt	a2,a4,t4
    80005de2:	01e60dbb          	addw	s11,a2,t5
    80005de6:	010d971b          	sllw	a4,s11,0x10
    80005dea:	4107589b          	sraw	a7,a4,0x10
    80005dee:	4e98                	lw	a4,24(a3)
    80005df0:	03089b93          	sll	s7,a7,0x30
    80005df4:	030bd313          	srl	t1,s7,0x30
    80005df8:	01f707bb          	addw	a5,a4,t6
    80005dfc:	10fa4f63          	blt	s4,a5,80005f1a <matrix_test+0x120c>
    80005e00:	00eea533          	slt	a0,t4,a4
    80005e04:	0065083b          	addw	a6,a0,t1
    80005e08:	01081e1b          	sllw	t3,a6,0x10
    80005e0c:	410e551b          	sraw	a0,t3,0x10
    80005e10:	06f1                	add	a3,a3,28
    80005e12:	80d283e3          	beq	t0,a3,80005618 <matrix_test+0x90a>
    80005e16:	0006ae83          	lw	t4,0(a3)
    80005e1a:	03051093          	sll	ra,a0,0x30
    80005e1e:	0300d613          	srl	a2,ra,0x30
    80005e22:	00fe8f3b          	addw	t5,t4,a5
    80005e26:	efea42e3          	blt	s4,t5,80005d0a <matrix_test+0xffc>
    80005e2a:	01d72733          	slt	a4,a4,t4
    80005e2e:	0046ab83          	lw	s7,4(a3)
    80005e32:	00c707bb          	addw	a5,a4,a2
    80005e36:	01079d9b          	sllw	s11,a5,0x10
    80005e3a:	410dd39b          	sraw	t2,s11,0x10
    80005e3e:	03039313          	sll	t1,t2,0x30
    80005e42:	01eb873b          	addw	a4,s7,t5
    80005e46:	0691                	add	a3,a3,4
    80005e48:	03035513          	srl	a0,t1,0x30
    80005e4c:	eeea41e3          	blt	s4,a4,80005d2e <matrix_test+0x1020>
    80005e50:	017ea833          	slt	a6,t4,s7
    80005e54:	00a80e3b          	addw	t3,a6,a0
    80005e58:	0046ad83          	lw	s11,4(a3)
    80005e5c:	010e1e9b          	sllw	t4,t3,0x10
    80005e60:	410edf1b          	sraw	t5,t4,0x10
    80005e64:	030f1793          	sll	a5,t5,0x30
    80005e68:	00ed8e3b          	addw	t3,s11,a4
    80005e6c:	0307d393          	srl	t2,a5,0x30
    80005e70:	efca50e3          	bge	s4,t3,80005d50 <matrix_test+0x1042>
    80005e74:	0086ae83          	lw	t4,8(a3)
    80005e78:	00a3831b          	addw	t1,t2,10
    80005e7c:	0103151b          	sllw	a0,t1,0x10
    80005e80:	4105581b          	sraw	a6,a0,0x10
    80005e84:	4e01                	li	t3,0
    80005e86:	03081093          	sll	ra,a6,0x30
    80005e8a:	01ce8fbb          	addw	t6,t4,t3
    80005e8e:	0300df13          	srl	t5,ra,0x30
    80005e92:	effa51e3          	bge	s4,t6,80005d74 <matrix_test+0x1066>
    80005e96:	00c6ab83          	lw	s7,12(a3)
    80005e9a:	00af079b          	addw	a5,t5,10
    80005e9e:	0107939b          	sllw	t2,a5,0x10
    80005ea2:	4103d89b          	sraw	a7,t2,0x10
    80005ea6:	4f81                	li	t6,0
    80005ea8:	03089313          	sll	t1,a7,0x30
    80005eac:	01fb8dbb          	addw	s11,s7,t6
    80005eb0:	03035513          	srl	a0,t1,0x30
    80005eb4:	efba52e3          	bge	s4,s11,80005d98 <matrix_test+0x108a>
    80005eb8:	4a98                	lw	a4,16(a3)
    80005eba:	00a5009b          	addw	ra,a0,10
    80005ebe:	01009f1b          	sllw	t5,ra,0x10
    80005ec2:	410f561b          	sraw	a2,t5,0x10
    80005ec6:	4d81                	li	s11,0
    80005ec8:	03061793          	sll	a5,a2,0x30
    80005ecc:	01b70e3b          	addw	t3,a4,s11
    80005ed0:	0307d393          	srl	t2,a5,0x30
    80005ed4:	efca53e3          	bge	s4,t3,80005dba <matrix_test+0x10ac>
    80005ed8:	0146ae83          	lw	t4,20(a3)
    80005edc:	00a3831b          	addw	t1,t2,10
    80005ee0:	0103151b          	sllw	a0,t1,0x10
    80005ee4:	4105581b          	sraw	a6,a0,0x10
    80005ee8:	4e01                	li	t3,0
    80005eea:	03081093          	sll	ra,a6,0x30
    80005eee:	01ce8fbb          	addw	t6,t4,t3
    80005ef2:	0300df13          	srl	t5,ra,0x30
    80005ef6:	effa54e3          	bge	s4,t6,80005dde <matrix_test+0x10d0>
    80005efa:	00af079b          	addw	a5,t5,10
    80005efe:	4e98                	lw	a4,24(a3)
    80005f00:	0107939b          	sllw	t2,a5,0x10
    80005f04:	4103d89b          	sraw	a7,t2,0x10
    80005f08:	4f81                	li	t6,0
    80005f0a:	03089b93          	sll	s7,a7,0x30
    80005f0e:	01f707bb          	addw	a5,a4,t6
    80005f12:	030bd313          	srl	t1,s7,0x30
    80005f16:	eefa55e3          	bge	s4,a5,80005e00 <matrix_test+0x10f2>
    80005f1a:	00a30e9b          	addw	t4,t1,10
    80005f1e:	010e909b          	sllw	ra,t4,0x10
    80005f22:	4100d51b          	sraw	a0,ra,0x10
    80005f26:	4781                	li	a5,0
    80005f28:	b5e5                	j	80005e10 <matrix_test+0x1102>
    80005f2a:	42c8                	lw	a0,4(a3)
    80005f2c:	00a08e1b          	addw	t3,ra,10
    80005f30:	010e189b          	sllw	a7,t3,0x10
    80005f34:	4108df9b          	sraw	t6,a7,0x10
    80005f38:	4381                	li	t2,0
    80005f3a:	030f9313          	sll	t1,t6,0x30
    80005f3e:	0075073b          	addw	a4,a0,t2
    80005f42:	0691                	add	a3,a3,4
    80005f44:	03035813          	srl	a6,t1,0x30
    80005f48:	12ea5063          	bge	s4,a4,80006068 <matrix_test+0x135a>
    80005f4c:	0046af03          	lw	t5,4(a3)
    80005f50:	00a80e9b          	addw	t4,a6,10
    80005f54:	010e909b          	sllw	ra,t4,0x10
    80005f58:	4100d39b          	sraw	t2,ra,0x10
    80005f5c:	4701                	li	a4,0
    80005f5e:	03039793          	sll	a5,t2,0x30
    80005f62:	00ef02bb          	addw	t0,t5,a4
    80005f66:	0307df93          	srl	t6,a5,0x30
    80005f6a:	125a4163          	blt	s4,t0,8000608c <matrix_test+0x137e>
    80005f6e:	01e52e33          	slt	t3,a0,t5
    80005f72:	01fe08bb          	addw	a7,t3,t6
    80005f76:	0086ae83          	lw	t4,8(a3)
    80005f7a:	0108951b          	sllw	a0,a7,0x10
    80005f7e:	4105561b          	sraw	a2,a0,0x10
    80005f82:	03061593          	sll	a1,a2,0x30
    80005f86:	005e88bb          	addw	a7,t4,t0
    80005f8a:	0305d093          	srl	ra,a1,0x30
    80005f8e:	131a4063          	blt	s4,a7,800060ae <matrix_test+0x13a0>
    80005f92:	01df23b3          	slt	t2,t5,t4
    80005f96:	46c8                	lw	a0,12(a3)
    80005f98:	0013873b          	addw	a4,t2,ra
    80005f9c:	01071f1b          	sllw	t5,a4,0x10
    80005fa0:	410f5e1b          	sraw	t3,t5,0x10
    80005fa4:	030e1313          	sll	t1,t3,0x30
    80005fa8:	01150f3b          	addw	t5,a0,a7
    80005fac:	03035813          	srl	a6,t1,0x30
    80005fb0:	11ea4f63          	blt	s4,t5,800060ce <matrix_test+0x13c0>
    80005fb4:	00aea633          	slt	a2,t4,a0
    80005fb8:	4a98                	lw	a4,16(a3)
    80005fba:	010602bb          	addw	t0,a2,a6
    80005fbe:	01029e9b          	sllw	t4,t0,0x10
    80005fc2:	410ed39b          	sraw	t2,t4,0x10
    80005fc6:	03039793          	sll	a5,t2,0x30
    80005fca:	01e70ebb          	addw	t4,a4,t5
    80005fce:	0307df93          	srl	t6,a5,0x30
    80005fd2:	11da4e63          	blt	s4,t4,800060ee <matrix_test+0x13e0>
    80005fd6:	00e52e33          	slt	t3,a0,a4
    80005fda:	01fe08bb          	addw	a7,t3,t6
    80005fde:	4ad0                	lw	a2,20(a3)
    80005fe0:	0108951b          	sllw	a0,a7,0x10
    80005fe4:	4105529b          	sraw	t0,a0,0x10
    80005fe8:	03029593          	sll	a1,t0,0x30
    80005fec:	01d608bb          	addw	a7,a2,t4
    80005ff0:	0305d093          	srl	ra,a1,0x30
    80005ff4:	111a4d63          	blt	s4,a7,8000610e <matrix_test+0x1400>
    80005ff8:	00c723b3          	slt	t2,a4,a2
    80005ffc:	00138f3b          	addw	t5,t2,ra
    80006000:	010f171b          	sllw	a4,t5,0x10
    80006004:	41075e1b          	sraw	t3,a4,0x10
    80006008:	4e98                	lw	a4,24(a3)
    8000600a:	030e1513          	sll	a0,t3,0x30
    8000600e:	03055313          	srl	t1,a0,0x30
    80006012:	011707bb          	addw	a5,a4,a7
    80006016:	10fa4c63          	blt	s4,a5,8000612e <matrix_test+0x1420>
    8000601a:	00e62833          	slt	a6,a2,a4
    8000601e:	006802bb          	addw	t0,a6,t1
    80006022:	01029e9b          	sllw	t4,t0,0x10
    80006026:	410ed51b          	sraw	a0,t4,0x10
    8000602a:	06f1                	add	a3,a3,28
    8000602c:	8cd485e3          	beq	s1,a3,800058f6 <matrix_test+0xbe8>
    80006030:	0006a283          	lw	t0,0(a3)
    80006034:	03051e93          	sll	t4,a0,0x30
    80006038:	030ed093          	srl	ra,t4,0x30
    8000603c:	00f283bb          	addw	t2,t0,a5
    80006040:	ee7a45e3          	blt	s4,t2,80005f2a <matrix_test+0x121c>
    80006044:	00572733          	slt	a4,a4,t0
    80006048:	42c8                	lw	a0,4(a3)
    8000604a:	001707bb          	addw	a5,a4,ra
    8000604e:	01079f1b          	sllw	t5,a5,0x10
    80006052:	410f5f9b          	sraw	t6,t5,0x10
    80006056:	030f9313          	sll	t1,t6,0x30
    8000605a:	0075073b          	addw	a4,a0,t2
    8000605e:	0691                	add	a3,a3,4
    80006060:	03035813          	srl	a6,t1,0x30
    80006064:	eeea44e3          	blt	s4,a4,80005f4c <matrix_test+0x123e>
    80006068:	00a2a633          	slt	a2,t0,a0
    8000606c:	0046af03          	lw	t5,4(a3)
    80006070:	010605bb          	addw	a1,a2,a6
    80006074:	0105929b          	sllw	t0,a1,0x10
    80006078:	4102d39b          	sraw	t2,t0,0x10
    8000607c:	03039793          	sll	a5,t2,0x30
    80006080:	00ef02bb          	addw	t0,t5,a4
    80006084:	0307df93          	srl	t6,a5,0x30
    80006088:	ee5a53e3          	bge	s4,t0,80005f6e <matrix_test+0x1260>
    8000608c:	0086ae83          	lw	t4,8(a3)
    80006090:	00af831b          	addw	t1,t6,10
    80006094:	0103181b          	sllw	a6,t1,0x10
    80006098:	4108561b          	sraw	a2,a6,0x10
    8000609c:	4281                	li	t0,0
    8000609e:	03061593          	sll	a1,a2,0x30
    800060a2:	005e88bb          	addw	a7,t4,t0
    800060a6:	0305d093          	srl	ra,a1,0x30
    800060aa:	ef1a54e3          	bge	s4,a7,80005f92 <matrix_test+0x1284>
    800060ae:	46c8                	lw	a0,12(a3)
    800060b0:	00a0879b          	addw	a5,ra,10
    800060b4:	01079f9b          	sllw	t6,a5,0x10
    800060b8:	410fde1b          	sraw	t3,t6,0x10
    800060bc:	4881                	li	a7,0
    800060be:	030e1313          	sll	t1,t3,0x30
    800060c2:	01150f3b          	addw	t5,a0,a7
    800060c6:	03035813          	srl	a6,t1,0x30
    800060ca:	efea55e3          	bge	s4,t5,80005fb4 <matrix_test+0x12a6>
    800060ce:	4a98                	lw	a4,16(a3)
    800060d0:	00a8059b          	addw	a1,a6,10
    800060d4:	0105909b          	sllw	ra,a1,0x10
    800060d8:	4100d39b          	sraw	t2,ra,0x10
    800060dc:	4f01                	li	t5,0
    800060de:	03039793          	sll	a5,t2,0x30
    800060e2:	01e70ebb          	addw	t4,a4,t5
    800060e6:	0307df93          	srl	t6,a5,0x30
    800060ea:	efda56e3          	bge	s4,t4,80005fd6 <matrix_test+0x12c8>
    800060ee:	4ad0                	lw	a2,20(a3)
    800060f0:	00af831b          	addw	t1,t6,10
    800060f4:	0103181b          	sllw	a6,t1,0x10
    800060f8:	4108529b          	sraw	t0,a6,0x10
    800060fc:	4e81                	li	t4,0
    800060fe:	03029593          	sll	a1,t0,0x30
    80006102:	01d608bb          	addw	a7,a2,t4
    80006106:	0305d093          	srl	ra,a1,0x30
    8000610a:	ef1a57e3          	bge	s4,a7,80005ff8 <matrix_test+0x12ea>
    8000610e:	00a0879b          	addw	a5,ra,10
    80006112:	4e98                	lw	a4,24(a3)
    80006114:	01079f9b          	sllw	t6,a5,0x10
    80006118:	410fde1b          	sraw	t3,t6,0x10
    8000611c:	4881                	li	a7,0
    8000611e:	030e1513          	sll	a0,t3,0x30
    80006122:	011707bb          	addw	a5,a4,a7
    80006126:	03055313          	srl	t1,a0,0x30
    8000612a:	eefa58e3          	bge	s4,a5,8000601a <matrix_test+0x130c>
    8000612e:	00a3061b          	addw	a2,t1,10
    80006132:	0106159b          	sllw	a1,a2,0x10
    80006136:	4105d51b          	sraw	a0,a1,0x10
    8000613a:	4781                	li	a5,0
    8000613c:	b5fd                	j	8000602a <matrix_test+0x131c>
    8000613e:	004b2383          	lw	t2,4(s6)
    80006142:	00a30e9b          	addw	t4,t1,10
    80006146:	010e999b          	sllw	s3,t4,0x10
    8000614a:	4109d61b          	sraw	a2,s3,0x10
    8000614e:	4d81                	li	s11,0
    80006150:	03061793          	sll	a5,a2,0x30
    80006154:	01b382bb          	addw	t0,t2,s11
    80006158:	0b11                	add	s6,s6,4
    8000615a:	0307d513          	srl	a0,a5,0x30
    8000615e:	125a5563          	bge	s4,t0,80006288 <matrix_test+0x157a>
    80006162:	004b2903          	lw	s2,4(s6)
    80006166:	00a50e1b          	addw	t3,a0,10
    8000616a:	010e189b          	sllw	a7,t3,0x10
    8000616e:	4108da9b          	sraw	s5,a7,0x10
    80006172:	4281                	li	t0,0
    80006174:	030a9693          	sll	a3,s5,0x30
    80006178:	005909bb          	addw	s3,s2,t0
    8000617c:	0306d313          	srl	t1,a3,0x30
    80006180:	133a4663          	blt	s4,s3,800062ac <matrix_test+0x159e>
    80006184:	0123adb3          	slt	s11,t2,s2
    80006188:	006d873b          	addw	a4,s11,t1
    8000618c:	008b2383          	lw	t2,8(s6)
    80006190:	0107181b          	sllw	a6,a4,0x10
    80006194:	41085e9b          	sraw	t4,a6,0x10
    80006198:	030e9793          	sll	a5,t4,0x30
    8000619c:	013382bb          	addw	t0,t2,s3
    800061a0:	0307d513          	srl	a0,a5,0x30
    800061a4:	125a4563          	blt	s4,t0,800062ce <matrix_test+0x15c0>
    800061a8:	00792f33          	slt	t5,s2,t2
    800061ac:	00af0fbb          	addw	t6,t5,a0
    800061b0:	00cb2903          	lw	s2,12(s6)
    800061b4:	010f909b          	sllw	ra,t6,0x10
    800061b8:	4100da9b          	sraw	s5,ra,0x10
    800061bc:	030a9693          	sll	a3,s5,0x30
    800061c0:	005909bb          	addw	s3,s2,t0
    800061c4:	0306d313          	srl	t1,a3,0x30
    800061c8:	133a4463          	blt	s4,s3,800062f0 <matrix_test+0x15e2>
    800061cc:	0123adb3          	slt	s11,t2,s2
    800061d0:	006d873b          	addw	a4,s11,t1
    800061d4:	010b2383          	lw	t2,16(s6)
    800061d8:	0107181b          	sllw	a6,a4,0x10
    800061dc:	41085e9b          	sraw	t4,a6,0x10
    800061e0:	030e9793          	sll	a5,t4,0x30
    800061e4:	013382bb          	addw	t0,t2,s3
    800061e8:	0307d513          	srl	a0,a5,0x30
    800061ec:	125a4363          	blt	s4,t0,80006312 <matrix_test+0x1604>
    800061f0:	00792f33          	slt	t5,s2,t2
    800061f4:	00af0fbb          	addw	t6,t5,a0
    800061f8:	014b2903          	lw	s2,20(s6)
    800061fc:	010f909b          	sllw	ra,t6,0x10
    80006200:	4100da9b          	sraw	s5,ra,0x10
    80006204:	030a9693          	sll	a3,s5,0x30
    80006208:	005909bb          	addw	s3,s2,t0
    8000620c:	0306d313          	srl	t1,a3,0x30
    80006210:	133a4263          	blt	s4,s3,80006334 <matrix_test+0x1626>
    80006214:	0123adb3          	slt	s11,t2,s2
    80006218:	006d873b          	addw	a4,s11,t1
    8000621c:	0107181b          	sllw	a6,a4,0x10
    80006220:	018b2703          	lw	a4,24(s6)
    80006224:	41085e9b          	sraw	t4,a6,0x10
    80006228:	030e9393          	sll	t2,t4,0x30
    8000622c:	013707bb          	addw	a5,a4,s3
    80006230:	0303d513          	srl	a0,t2,0x30
    80006234:	12fa4163          	blt	s4,a5,80006356 <matrix_test+0x1648>
    80006238:	00e92f33          	slt	t5,s2,a4
    8000623c:	00af0fbb          	addw	t6,t5,a0
    80006240:	010f909b          	sllw	ra,t6,0x10
    80006244:	4100d51b          	sraw	a0,ra,0x10
    80006248:	0b71                	add	s6,s6,28
    8000624a:	8f648ee3          	beq	s1,s6,80005b46 <matrix_test+0xe38>
    8000624e:	000b2903          	lw	s2,0(s6)
    80006252:	03051693          	sll	a3,a0,0x30
    80006256:	0306d313          	srl	t1,a3,0x30
    8000625a:	00f90dbb          	addw	s11,s2,a5
    8000625e:	efba40e3          	blt	s4,s11,8000613e <matrix_test+0x1430>
    80006262:	01272733          	slt	a4,a4,s2
    80006266:	004b2383          	lw	t2,4(s6)
    8000626a:	0067083b          	addw	a6,a4,t1
    8000626e:	01081b9b          	sllw	s7,a6,0x10
    80006272:	410bd61b          	sraw	a2,s7,0x10
    80006276:	03061793          	sll	a5,a2,0x30
    8000627a:	01b382bb          	addw	t0,t2,s11
    8000627e:	0b11                	add	s6,s6,4
    80006280:	0307d513          	srl	a0,a5,0x30
    80006284:	ec5a4fe3          	blt	s4,t0,80006162 <matrix_test+0x1454>
    80006288:	00792f33          	slt	t5,s2,t2
    8000628c:	00af0fbb          	addw	t6,t5,a0
    80006290:	004b2903          	lw	s2,4(s6)
    80006294:	010f909b          	sllw	ra,t6,0x10
    80006298:	4100da9b          	sraw	s5,ra,0x10
    8000629c:	030a9693          	sll	a3,s5,0x30
    800062a0:	005909bb          	addw	s3,s2,t0
    800062a4:	0306d313          	srl	t1,a3,0x30
    800062a8:	ed3a5ee3          	bge	s4,s3,80006184 <matrix_test+0x1476>
    800062ac:	008b2383          	lw	t2,8(s6)
    800062b0:	00a30b9b          	addw	s7,t1,10
    800062b4:	010b961b          	sllw	a2,s7,0x10
    800062b8:	41065e9b          	sraw	t4,a2,0x10
    800062bc:	4981                	li	s3,0
    800062be:	030e9793          	sll	a5,t4,0x30
    800062c2:	013382bb          	addw	t0,t2,s3
    800062c6:	0307d513          	srl	a0,a5,0x30
    800062ca:	ec5a5fe3          	bge	s4,t0,800061a8 <matrix_test+0x149a>
    800062ce:	00cb2903          	lw	s2,12(s6)
    800062d2:	00a50e1b          	addw	t3,a0,10
    800062d6:	010e189b          	sllw	a7,t3,0x10
    800062da:	4108da9b          	sraw	s5,a7,0x10
    800062de:	4281                	li	t0,0
    800062e0:	030a9693          	sll	a3,s5,0x30
    800062e4:	005909bb          	addw	s3,s2,t0
    800062e8:	0306d313          	srl	t1,a3,0x30
    800062ec:	ef3a50e3          	bge	s4,s3,800061cc <matrix_test+0x14be>
    800062f0:	010b2383          	lw	t2,16(s6)
    800062f4:	00a30b9b          	addw	s7,t1,10
    800062f8:	010b961b          	sllw	a2,s7,0x10
    800062fc:	41065e9b          	sraw	t4,a2,0x10
    80006300:	4981                	li	s3,0
    80006302:	030e9793          	sll	a5,t4,0x30
    80006306:	013382bb          	addw	t0,t2,s3
    8000630a:	0307d513          	srl	a0,a5,0x30
    8000630e:	ee5a51e3          	bge	s4,t0,800061f0 <matrix_test+0x14e2>
    80006312:	014b2903          	lw	s2,20(s6)
    80006316:	00a50e1b          	addw	t3,a0,10
    8000631a:	010e189b          	sllw	a7,t3,0x10
    8000631e:	4108da9b          	sraw	s5,a7,0x10
    80006322:	4281                	li	t0,0
    80006324:	030a9693          	sll	a3,s5,0x30
    80006328:	005909bb          	addw	s3,s2,t0
    8000632c:	0306d313          	srl	t1,a3,0x30
    80006330:	ef3a52e3          	bge	s4,s3,80006214 <matrix_test+0x1506>
    80006334:	018b2703          	lw	a4,24(s6)
    80006338:	00a30b9b          	addw	s7,t1,10
    8000633c:	010b961b          	sllw	a2,s7,0x10
    80006340:	41065e9b          	sraw	t4,a2,0x10
    80006344:	4981                	li	s3,0
    80006346:	030e9393          	sll	t2,t4,0x30
    8000634a:	013707bb          	addw	a5,a4,s3
    8000634e:	0303d513          	srl	a0,t2,0x30
    80006352:	eefa53e3          	bge	s4,a5,80006238 <matrix_test+0x152a>
    80006356:	00a5079b          	addw	a5,a0,10
    8000635a:	01079e1b          	sllw	t3,a5,0x10
    8000635e:	410e551b          	sraw	a0,t3,0x10
    80006362:	4781                	li	a5,0
    80006364:	b5d5                	j	80006248 <matrix_test+0x153a>
    80006366:	00a8881b          	addw	a6,a7,10
    8000636a:	0108159b          	sllw	a1,a6,0x10
    8000636e:	4105d51b          	sraw	a0,a1,0x10
    80006372:	4781                	li	a5,0
    80006374:	d7cff06f          	j	800058f0 <matrix_test+0xbe2>
    80006378:	00af881b          	addw	a6,t6,10
    8000637c:	01081e1b          	sllw	t3,a6,0x10
    80006380:	410e551b          	sraw	a0,t3,0x10
    80006384:	4781                	li	a5,0
    80006386:	a8cff06f          	j	80005612 <matrix_test+0x904>
    8000638a:	00af8a9b          	addw	s5,t6,10
    8000638e:	010a929b          	sllw	t0,s5,0x10
    80006392:	4102d51b          	sraw	a0,t0,0x10
    80006396:	4781                	li	a5,0
    80006398:	fa8ff06f          	j	80005b40 <matrix_test+0xe32>
    8000639c:	00ab879b          	addw	a5,s7,10
    800063a0:	0107951b          	sllw	a0,a5,0x10
    800063a4:	4105551b          	sraw	a0,a0,0x10
    800063a8:	4781                	li	a5,0
    800063aa:	0b11                	add	s6,s6,4
    800063ac:	f70ff06f          	j	80005b1c <matrix_test+0xe0e>
    800063b0:	00ae879b          	addw	a5,t4,10
    800063b4:	01079d9b          	sllw	s11,a5,0x10
    800063b8:	410dd51b          	sraw	a0,s11,0x10
    800063bc:	4781                	li	a5,0
    800063be:	0691                	add	a3,a3,4
    800063c0:	a30ff06f          	j	800055f0 <matrix_test+0x8e2>
    800063c4:	00a2879b          	addw	a5,t0,10
    800063c8:	01079f1b          	sllw	t5,a5,0x10
    800063cc:	410f551b          	sraw	a0,t5,0x10
    800063d0:	4781                	li	a5,0
    800063d2:	0691                	add	a3,a3,4
    800063d4:	cfaff06f          	j	800058ce <matrix_test+0xbc0>
    800063d8:	00a8869b          	addw	a3,a7,10
    800063dc:	0106931b          	sllw	t1,a3,0x10
    800063e0:	4103551b          	sraw	a0,t1,0x10
    800063e4:	4781                	li	a5,0
    800063e6:	0b11                	add	s6,s6,4
    800063e8:	f0eff06f          	j	80005af6 <matrix_test+0xde8>
    800063ec:	00a3831b          	addw	t1,t2,10
    800063f0:	0103151b          	sllw	a0,t1,0x10
    800063f4:	4105551b          	sraw	a0,a0,0x10
    800063f8:	4781                	li	a5,0
    800063fa:	0691                	add	a3,a3,4
    800063fc:	9d0ff06f          	j	800055cc <matrix_test+0x8be>
    80006400:	00af831b          	addw	t1,t6,10
    80006404:	0103161b          	sllw	a2,t1,0x10
    80006408:	4106551b          	sraw	a0,a2,0x10
    8000640c:	4781                	li	a5,0
    8000640e:	0691                	add	a3,a3,4
    80006410:	c9aff06f          	j	800058aa <matrix_test+0xb9c>
    80006414:	00ae8f1b          	addw	t5,t4,10
    80006418:	010f1f9b          	sllw	t6,t5,0x10
    8000641c:	410fd51b          	sraw	a0,t6,0x10
    80006420:	4781                	li	a5,0
    80006422:	0b11                	add	s6,s6,4
    80006424:	eacff06f          	j	80005ad0 <matrix_test+0xdc2>
    80006428:	00a8079b          	addw	a5,a6,10
    8000642c:	0107909b          	sllw	ra,a5,0x10
    80006430:	4100d51b          	sraw	a0,ra,0x10
    80006434:	4781                	li	a5,0
    80006436:	0691                	add	a3,a3,4
    80006438:	c4eff06f          	j	80005886 <matrix_test+0xb78>
    8000643c:	00a60e9b          	addw	t4,a2,10
    80006440:	010e939b          	sllw	t2,t4,0x10
    80006444:	4103d51b          	sraw	a0,t2,0x10
    80006448:	4781                	li	a5,0
    8000644a:	0691                	add	a3,a3,4
    8000644c:	c87fe06f          	j	800050d2 <matrix_test+0x3c4>
    80006450:	00a8079b          	addw	a5,a6,10
    80006454:	0107961b          	sllw	a2,a5,0x10
    80006458:	4106551b          	sraw	a0,a2,0x10
    8000645c:	4781                	li	a5,0
    8000645e:	0691                	add	a3,a3,4
    80006460:	948ff06f          	j	800055a8 <matrix_test+0x89a>
    80006464:	00e0adb3          	slt	s11,ra,a4
    80006468:	01ed83bb          	addw	t2,s11,t5
    8000646c:	0103989b          	sllw	a7,t2,0x10
    80006470:	4108d51b          	sraw	a0,a7,0x10
    80006474:	0691                	add	a3,a3,4
    80006476:	910ff06f          	j	80005586 <matrix_test+0x878>
    8000647a:	00eeaf33          	slt	t5,t4,a4
    8000647e:	007f0fbb          	addw	t6,t5,t2
    80006482:	010f9e1b          	sllw	t3,t6,0x10
    80006486:	410e551b          	sraw	a0,t3,0x10
    8000648a:	0691                	add	a3,a3,4
    8000648c:	bd6ff06f          	j	80005862 <matrix_test+0xb54>
    80006490:	00eaa6b3          	slt	a3,s5,a4
    80006494:	0126833b          	addw	t1,a3,s2
    80006498:	01031d9b          	sllw	s11,t1,0x10
    8000649c:	410dd51b          	sraw	a0,s11,0x10
    800064a0:	0b11                	add	s6,s6,4
    800064a2:	e08ff06f          	j	80005aaa <matrix_test+0xd9c>
    800064a6:	00eaabb3          	slt	s7,s5,a4
    800064aa:	005b88bb          	addw	a7,s7,t0
    800064ae:	0108981b          	sllw	a6,a7,0x10
    800064b2:	4108551b          	sraw	a0,a6,0x10
    800064b6:	0691                	add	a3,a3,4
    800064b8:	bf3fe06f          	j	800050aa <matrix_test+0x39c>
    800064bc:	00e9af33          	slt	t5,s3,a4
    800064c0:	007f0fbb          	addw	t6,t5,t2
    800064c4:	010f909b          	sllw	ra,t6,0x10
    800064c8:	4100d51b          	sraw	a0,ra,0x10
    800064cc:	0b11                	add	s6,s6,4
    800064ce:	db8ff06f          	j	80005a86 <matrix_test+0xd78>
    800064d2:	00095803          	lhu	a6,0(s2)
    800064d6:	00290a93          	add	s5,s2,2
    800064da:	00498793          	add	a5,s3,4
    800064de:	00f87913          	and	s2,a6,15
    800064e2:	0129a023          	sw	s2,0(s3)
    800064e6:	c5aff06f          	j	80005940 <matrix_test+0xc32>
    800064ea:	00efa333          	slt	t1,t6,a4
    800064ee:	01e305bb          	addw	a1,t1,t5
    800064f2:	01059e9b          	sllw	t4,a1,0x10
    800064f6:	410ed51b          	sraw	a0,t4,0x10
    800064fa:	0691                	add	a3,a3,4
    800064fc:	b8bfe06f          	j	80005086 <matrix_test+0x378>
    80006500:	00041a83          	lh	s5,0(s0)
    80006504:	00240793          	add	a5,s0,2
    80006508:	00498713          	add	a4,s3,4
    8000650c:	038a8b3b          	mulw	s6,s5,s8
    80006510:	0169a023          	sw	s6,0(s3)
    80006514:	a25fe06f          	j	80004f38 <matrix_test+0x22a>
    80006518:	00efa533          	slt	a0,t6,a4
    8000651c:	0065083b          	addw	a6,a0,t1
    80006520:	01081e1b          	sllw	t3,a6,0x10
    80006524:	410e551b          	sraw	a0,t3,0x10
    80006528:	0691                	add	a3,a3,4
    8000652a:	83aff06f          	j	80005564 <matrix_test+0x856>
    8000652e:	00e8a333          	slt	t1,a7,a4
    80006532:	00c305bb          	addw	a1,t1,a2
    80006536:	0105981b          	sllw	a6,a1,0x10
    8000653a:	4108551b          	sraw	a0,a6,0x10
    8000653e:	0691                	add	a3,a3,4
    80006540:	b00ff06f          	j	80005840 <matrix_test+0xb32>
    80006544:	4581                	li	a1,0
    80006546:	4501                	li	a0,0
    80006548:	b84fb0ef          	jal	800018cc <crc16>
    8000654c:	85aa                	mv	a1,a0
    8000654e:	c099                	beqz	s1,80006554 <matrix_test+0x1846>
    80006550:	d1dfe06f          	j	8000526c <matrix_test+0x55e>
    80006554:	85aa                	mv	a1,a0
    80006556:	4501                	li	a0,0
    80006558:	b74fb0ef          	jal	800018cc <crc16>
    8000655c:	8daa                	mv	s11,a0
    8000655e:	85ee                	mv	a1,s11
    80006560:	4501                	li	a0,0
    80006562:	b6afb0ef          	jal	800018cc <crc16>
    80006566:	85aa                	mv	a1,a0
    80006568:	4501                	li	a0,0
    8000656a:	b62fb0ef          	jal	800018cc <crc16>
    8000656e:	8aaa                	mv	s5,a0
    80006570:	f74ff06f          	j	80005ce4 <matrix_test+0xfd6>
    80006574:	4301                	li	t1,0
    80006576:	8a9fe06f          	j	80004e1e <matrix_test+0x110>
    8000657a:	4d01                	li	s10,0
    8000657c:	ea0ff06f          	j	80005c1c <matrix_test+0xf0e>
    80006580:	4501                	li	a0,0
    80006582:	896ff06f          	j	80005618 <matrix_test+0x90a>

0000000080006586 <core_init_matrix>:
core_init_matrix():
    80006586:	1101                	add	sp,sp,-32
    80006588:	e826                	sd	s1,16(sp)
    8000658a:	ec22                	sd	s0,24(sp)
    8000658c:	e44a                	sd	s2,8(sp)
    8000658e:	e04e                	sd	s3,0(sp)
    80006590:	88aa                	mv	a7,a0
    80006592:	84b6                	mv	s1,a3
    80006594:	e211                	bnez	a2,80006598 <core_init_matrix+0x12>
    80006596:	4605                	li	a2,1
    80006598:	4701                	li	a4,0
    8000659a:	16088463          	beqz	a7,80006702 <core_init_matrix+0x17c>
    8000659e:	0017031b          	addw	t1,a4,1
    800065a2:	0263083b          	mulw	a6,t1,t1
    800065a6:	0007051b          	sext.w	a0,a4
    800065aa:	0003071b          	sext.w	a4,t1
    800065ae:	0038139b          	sllw	t2,a6,0x3
    800065b2:	ff13e6e3          	bltu	t2,a7,8000659e <core_init_matrix+0x18>
    800065b6:	02a5043b          	mulw	s0,a0,a0
    800065ba:	15fd                	add	a1,a1,-1
    800065bc:	ffc5f693          	and	a3,a1,-4
    800065c0:	00468813          	add	a6,a3,4
    800065c4:	0005099b          	sext.w	s3,a0
    800065c8:	02041913          	sll	s2,s0,0x20
    800065cc:	01f95913          	srl	s2,s2,0x1f
    800065d0:	012805b3          	add	a1,a6,s2
    800065d4:	14050363          	beqz	a0,8000671a <core_init_matrix+0x194>
    800065d8:	6e41                	lui	t3,0x10
    800065da:	0015029b          	addw	t0,a0,1
    800065de:	4681                	li	a3,0
    800065e0:	4785                	li	a5,1
    800065e2:	fffe0893          	add	a7,t3,-1 # ffff <_tbss_end+0xffff>
    800065e6:	40f28eb3          	sub	t4,t0,a5
    800065ea:	001eff13          	and	t5,t4,1
    800065ee:	0007841b          	sext.w	s0,a5
    800065f2:	0002839b          	sext.w	t2,t0
    800065f6:	020f0463          	beqz	t5,8000661e <core_init_matrix+0x98>
    800065fa:	fff7871b          	addw	a4,a5,-1
    800065fe:	02071e13          	sll	t3,a4,0x20
    80006602:	03079f93          	sll	t6,a5,0x30
    80006606:	01fe5f13          	srl	t5,t3,0x1f
    8000660a:	02f6063b          	mulw	a2,a2,a5
    8000660e:	030fd313          	srl	t1,t6,0x30
    80006612:	01e58eb3          	add	t4,a1,t5
    80006616:	01e80fb3          	add	t6,a6,t5
    8000661a:	2785                	addw	a5,a5,1
    8000661c:	a8a5                	j	80006694 <core_init_matrix+0x10e>
    8000661e:	02f60e3b          	mulw	t3,a2,a5
    80006622:	0017871b          	addw	a4,a5,1
    80006626:	fff78f1b          	addw	t5,a5,-1
    8000662a:	03079613          	sll	a2,a5,0x30
    8000662e:	020f1313          	sll	t1,t5,0x20
    80006632:	fff7079b          	addw	a5,a4,-1
    80006636:	03065e93          	srl	t4,a2,0x30
    8000663a:	03071f93          	sll	t6,a4,0x30
    8000663e:	01f35613          	srl	a2,t1,0x1f
    80006642:	02079f13          	sll	t5,a5,0x20
    80006646:	01ff5793          	srl	a5,t5,0x1f
    8000664a:	030fd313          	srl	t1,t6,0x30
    8000664e:	00c80f33          	add	t5,a6,a2
    80006652:	00c58fb3          	add	t6,a1,a2
    80006656:	41fe561b          	sraw	a2,t3,0x1f
    8000665a:	0106561b          	srlw	a2,a2,0x10
    8000665e:	00ce0e3b          	addw	t3,t3,a2
    80006662:	011e7e33          	and	t3,t3,a7
    80006666:	40ce0e3b          	subw	t3,t3,a2
    8000666a:	02ee063b          	mulw	a2,t3,a4
    8000666e:	01de0e3b          	addw	t3,t3,t4
    80006672:	1e42                	sll	t3,t3,0x30
    80006674:	030e5e13          	srl	t3,t3,0x30
    80006678:	01de0ebb          	addw	t4,t3,t4
    8000667c:	01cf9023          	sh	t3,0(t6)
    80006680:	0ffeff93          	zext.b	t6,t4
    80006684:	01ff1023          	sh	t6,0(t5)
    80006688:	00f58eb3          	add	t4,a1,a5
    8000668c:	00f80fb3          	add	t6,a6,a5
    80006690:	0017079b          	addw	a5,a4,1
    80006694:	41f6571b          	sraw	a4,a2,0x1f
    80006698:	01075e1b          	srlw	t3,a4,0x10
    8000669c:	01c6063b          	addw	a2,a2,t3
    800066a0:	01167f33          	and	t5,a2,a7
    800066a4:	41cf073b          	subw	a4,t5,t3
    800066a8:	00670e3b          	addw	t3,a4,t1
    800066ac:	030e1613          	sll	a2,t3,0x30
    800066b0:	03065f13          	srl	t5,a2,0x30
    800066b4:	006f033b          	addw	t1,t5,t1
    800066b8:	01ee9023          	sh	t5,0(t4)
    800066bc:	0ff37e93          	zext.b	t4,t1
    800066c0:	01df9023          	sh	t4,0(t6)
    800066c4:	0007061b          	sext.w	a2,a4
    800066c8:	f4779be3          	bne	a5,t2,8000661e <core_init_matrix+0x98>
    800066cc:	2685                	addw	a3,a3,1
    800066ce:	008507bb          	addw	a5,a0,s0
    800066d2:	005502bb          	addw	t0,a0,t0
    800066d6:	f0a698e3          	bne	a3,a0,800065e6 <core_init_matrix+0x60>
    800066da:	01258433          	add	s0,a1,s2
    800066de:	fff40393          	add	t2,s0,-1
    800066e2:	ffc3ff93          	and	t6,t2,-4
    800066e6:	6462                	ld	s0,24(sp)
    800066e8:	004f8793          	add	a5,t6,4
    800066ec:	0134a023          	sw	s3,0(s1)
    800066f0:	0104b423          	sd	a6,8(s1)
    800066f4:	e88c                	sd	a1,16(s1)
    800066f6:	ec9c                	sd	a5,24(s1)
    800066f8:	6922                	ld	s2,8(sp)
    800066fa:	64c2                	ld	s1,16(sp)
    800066fc:	6982                	ld	s3,0(sp)
    800066fe:	6105                	add	sp,sp,32
    80006700:	8082                	ret
    80006702:	fff58793          	add	a5,a1,-1
    80006706:	ffc7f293          	and	t0,a5,-4
    8000670a:	00428813          	add	a6,t0,4
    8000670e:	00628593          	add	a1,t0,6
    80006712:	59fd                	li	s3,-1
    80006714:	4909                	li	s2,2
    80006716:	557d                	li	a0,-1
    80006718:	b5c1                	j	800065d8 <core_init_matrix+0x52>
    8000671a:	4981                	li	s3,0
    8000671c:	bf7d                	j	800066da <core_init_matrix+0x154>

000000008000671e <matrix_sum>:
matrix_sum():
    8000671e:	02a507bb          	mulw	a5,a0,a0
    80006722:	0007871b          	sext.w	a4,a5
    80006726:	1c070363          	beqz	a4,800068ec <matrix_sum+0x1ce>
    8000672a:	02079293          	sll	t0,a5,0x20
    8000672e:	01e2d313          	srl	t1,t0,0x1e
    80006732:	ffc30393          	add	t2,t1,-4
    80006736:	0023d513          	srl	a0,t2,0x2
    8000673a:	00150693          	add	a3,a0,1
    8000673e:	0036f813          	and	a6,a3,3
    80006742:	872e                	mv	a4,a1
    80006744:	006588b3          	add	a7,a1,t1
    80006748:	4501                	li	a0,0
    8000674a:	4681                	li	a3,0
    8000674c:	4781                	li	a5,0
    8000674e:	0e080463          	beqz	a6,80006836 <matrix_sum+0x118>
    80006752:	4e05                	li	t3,1
    80006754:	03c80f63          	beq	a6,t3,80006792 <matrix_sum+0x74>
    80006758:	4e89                	li	t4,2
    8000675a:	01d80a63          	beq	a6,t4,8000676e <matrix_sum+0x50>
    8000675e:	4194                	lw	a3,0(a1)
    80006760:	87b6                	mv	a5,a3
    80006762:	00d02533          	sgtz	a0,a3
    80006766:	18d64063          	blt	a2,a3,800068e6 <matrix_sum+0x1c8>
    8000676a:	00458713          	add	a4,a1,4
    8000676e:	8f36                	mv	t5,a3
    80006770:	4314                	lw	a3,0(a4)
    80006772:	03051593          	sll	a1,a0,0x30
    80006776:	0305df93          	srl	t6,a1,0x30
    8000677a:	9fb5                	addw	a5,a5,a3
    8000677c:	14f64c63          	blt	a2,a5,800068d4 <matrix_sum+0x1b6>
    80006780:	00df22b3          	slt	t0,t5,a3
    80006784:	01f2833b          	addw	t1,t0,t6
    80006788:	0103139b          	sllw	t2,t1,0x10
    8000678c:	4103d51b          	sraw	a0,t2,0x10
    80006790:	0711                	add	a4,a4,4
    80006792:	8836                	mv	a6,a3
    80006794:	4314                	lw	a3,0(a4)
    80006796:	03051e13          	sll	t3,a0,0x30
    8000679a:	030e5e93          	srl	t4,t3,0x30
    8000679e:	9fb5                	addw	a5,a5,a3
    800067a0:	12f64263          	blt	a2,a5,800068c4 <matrix_sum+0x1a6>
    800067a4:	00d82f33          	slt	t5,a6,a3
    800067a8:	01df05bb          	addw	a1,t5,t4
    800067ac:	01059f9b          	sllw	t6,a1,0x10
    800067b0:	410fd51b          	sraw	a0,t6,0x10
    800067b4:	0711                	add	a4,a4,4
    800067b6:	08e89063          	bne	a7,a4,80006836 <matrix_sum+0x118>
    800067ba:	8082                	ret
    800067bc:	00472283          	lw	t0,4(a4)
    800067c0:	00a8059b          	addw	a1,a6,10
    800067c4:	01059f9b          	sllw	t6,a1,0x10
    800067c8:	410fdf1b          	sraw	t5,t6,0x10
    800067cc:	4781                	li	a5,0
    800067ce:	030f1313          	sll	t1,t5,0x30
    800067d2:	00f28f3b          	addw	t5,t0,a5
    800067d6:	0711                	add	a4,a4,4
    800067d8:	03035513          	srl	a0,t1,0x30
    800067dc:	09e65963          	bge	a2,t5,8000686e <matrix_sum+0x150>
    800067e0:	00a5079b          	addw	a5,a0,10
    800067e4:	434c                	lw	a1,4(a4)
    800067e6:	01079e1b          	sllw	t3,a5,0x10
    800067ea:	410e5e9b          	sraw	t4,t3,0x10
    800067ee:	4f01                	li	t5,0
    800067f0:	030e9f93          	sll	t6,t4,0x30
    800067f4:	01e587bb          	addw	a5,a1,t5
    800067f8:	030fd313          	srl	t1,t6,0x30
    800067fc:	08f64a63          	blt	a2,a5,80006890 <matrix_sum+0x172>
    80006800:	00b2a2b3          	slt	t0,t0,a1
    80006804:	4714                	lw	a3,8(a4)
    80006806:	0062853b          	addw	a0,t0,t1
    8000680a:	0105139b          	sllw	t2,a0,0x10
    8000680e:	4103de1b          	sraw	t3,t2,0x10
    80006812:	030e1e93          	sll	t4,t3,0x30
    80006816:	9fb5                	addw	a5,a5,a3
    80006818:	030edf13          	srl	t5,t4,0x30
    8000681c:	08f64963          	blt	a2,a5,800068ae <matrix_sum+0x190>
    80006820:	00d5a5b3          	slt	a1,a1,a3
    80006824:	01e58fbb          	addw	t6,a1,t5
    80006828:	010f931b          	sllw	t1,t6,0x10
    8000682c:	0731                	add	a4,a4,12
    8000682e:	4103551b          	sraw	a0,t1,0x10
    80006832:	08e88863          	beq	a7,a4,800068c2 <matrix_sum+0x1a4>
    80006836:	00072383          	lw	t2,0(a4)
    8000683a:	1542                	sll	a0,a0,0x30
    8000683c:	03055813          	srl	a6,a0,0x30
    80006840:	00f387bb          	addw	a5,t2,a5
    80006844:	f6f64ce3          	blt	a2,a5,800067bc <matrix_sum+0x9e>
    80006848:	0076a6b3          	slt	a3,a3,t2
    8000684c:	00472283          	lw	t0,4(a4)
    80006850:	01068e3b          	addw	t3,a3,a6
    80006854:	010e1e9b          	sllw	t4,t3,0x10
    80006858:	410edf1b          	sraw	t5,t4,0x10
    8000685c:	030f1313          	sll	t1,t5,0x30
    80006860:	00f28f3b          	addw	t5,t0,a5
    80006864:	0711                	add	a4,a4,4
    80006866:	03035513          	srl	a0,t1,0x30
    8000686a:	f7e64be3          	blt	a2,t5,800067e0 <matrix_sum+0xc2>
    8000686e:	0053a3b3          	slt	t2,t2,t0
    80006872:	434c                	lw	a1,4(a4)
    80006874:	00a3883b          	addw	a6,t2,a0
    80006878:	0108169b          	sllw	a3,a6,0x10
    8000687c:	4106de9b          	sraw	t4,a3,0x10
    80006880:	030e9f93          	sll	t6,t4,0x30
    80006884:	01e587bb          	addw	a5,a1,t5
    80006888:	030fd313          	srl	t1,t6,0x30
    8000688c:	f6f65ae3          	bge	a2,a5,80006800 <matrix_sum+0xe2>
    80006890:	00a3081b          	addw	a6,t1,10
    80006894:	0108169b          	sllw	a3,a6,0x10
    80006898:	4106de1b          	sraw	t3,a3,0x10
    8000689c:	4714                	lw	a3,8(a4)
    8000689e:	4781                	li	a5,0
    800068a0:	030e1e93          	sll	t4,t3,0x30
    800068a4:	9fb5                	addw	a5,a5,a3
    800068a6:	030edf13          	srl	t5,t4,0x30
    800068aa:	f6f65be3          	bge	a2,a5,80006820 <matrix_sum+0x102>
    800068ae:	00af029b          	addw	t0,t5,10
    800068b2:	0102951b          	sllw	a0,t0,0x10
    800068b6:	0731                	add	a4,a4,12
    800068b8:	4105551b          	sraw	a0,a0,0x10
    800068bc:	4781                	li	a5,0
    800068be:	f6e89ce3          	bne	a7,a4,80006836 <matrix_sum+0x118>
    800068c2:	8082                	ret
    800068c4:	00ae829b          	addw	t0,t4,10
    800068c8:	0102931b          	sllw	t1,t0,0x10
    800068cc:	4103551b          	sraw	a0,t1,0x10
    800068d0:	4781                	li	a5,0
    800068d2:	b5cd                	j	800067b4 <matrix_sum+0x96>
    800068d4:	00af879b          	addw	a5,t6,10
    800068d8:	0107951b          	sllw	a0,a5,0x10
    800068dc:	4105551b          	sraw	a0,a0,0x10
    800068e0:	4781                	li	a5,0
    800068e2:	0711                	add	a4,a4,4
    800068e4:	b57d                	j	80006792 <matrix_sum+0x74>
    800068e6:	4529                	li	a0,10
    800068e8:	4781                	li	a5,0
    800068ea:	b541                	j	8000676a <matrix_sum+0x4c>
    800068ec:	4501                	li	a0,0
    800068ee:	8082                	ret

00000000800068f0 <matrix_mul_const>:
matrix_mul_const():
    800068f0:	02a507bb          	mulw	a5,a0,a0
    800068f4:	0007871b          	sext.w	a4,a5
    800068f8:	10070b63          	beqz	a4,80006a0e <matrix_mul_const+0x11e>
    800068fc:	02079513          	sll	a0,a5,0x20
    80006900:	01f55293          	srl	t0,a0,0x1f
    80006904:	ffe28313          	add	t1,t0,-2
    80006908:	00135393          	srl	t2,t1,0x1
    8000690c:	00138813          	add	a6,t2,1
    80006910:	00787893          	and	a7,a6,7
    80006914:	00560fb3          	add	t6,a2,t0
    80006918:	08088663          	beqz	a7,800069a4 <matrix_mul_const+0xb4>
    8000691c:	4e05                	li	t3,1
    8000691e:	07c88963          	beq	a7,t3,80006990 <matrix_mul_const+0xa0>
    80006922:	4e89                	li	t4,2
    80006924:	05d88e63          	beq	a7,t4,80006980 <matrix_mul_const+0x90>
    80006928:	4f0d                	li	t5,3
    8000692a:	05e88363          	beq	a7,t5,80006970 <matrix_mul_const+0x80>
    8000692e:	4791                	li	a5,4
    80006930:	02f88863          	beq	a7,a5,80006960 <matrix_mul_const+0x70>
    80006934:	4715                	li	a4,5
    80006936:	00e88d63          	beq	a7,a4,80006950 <matrix_mul_const+0x60>
    8000693a:	4519                	li	a0,6
    8000693c:	0ca89a63          	bne	a7,a0,80006a10 <matrix_mul_const+0x120>
    80006940:	00061383          	lh	t2,0(a2)
    80006944:	0591                	add	a1,a1,4
    80006946:	0609                	add	a2,a2,2
    80006948:	02d3883b          	mulw	a6,t2,a3
    8000694c:	ff05ae23          	sw	a6,-4(a1)
    80006950:	00061883          	lh	a7,0(a2)
    80006954:	0591                	add	a1,a1,4
    80006956:	0609                	add	a2,a2,2
    80006958:	02d88e3b          	mulw	t3,a7,a3
    8000695c:	ffc5ae23          	sw	t3,-4(a1)
    80006960:	00061e83          	lh	t4,0(a2)
    80006964:	0591                	add	a1,a1,4
    80006966:	0609                	add	a2,a2,2
    80006968:	02de8f3b          	mulw	t5,t4,a3
    8000696c:	ffe5ae23          	sw	t5,-4(a1)
    80006970:	00061783          	lh	a5,0(a2)
    80006974:	0591                	add	a1,a1,4
    80006976:	0609                	add	a2,a2,2
    80006978:	02d7873b          	mulw	a4,a5,a3
    8000697c:	fee5ae23          	sw	a4,-4(a1)
    80006980:	00061503          	lh	a0,0(a2)
    80006984:	0591                	add	a1,a1,4
    80006986:	0609                	add	a2,a2,2
    80006988:	02d502bb          	mulw	t0,a0,a3
    8000698c:	fe55ae23          	sw	t0,-4(a1)
    80006990:	00061303          	lh	t1,0(a2)
    80006994:	0591                	add	a1,a1,4
    80006996:	0609                	add	a2,a2,2
    80006998:	02d303bb          	mulw	t2,t1,a3
    8000699c:	fe75ae23          	sw	t2,-4(a1)
    800069a0:	08cf8163          	beq	t6,a2,80006a22 <matrix_mul_const+0x132>
    800069a4:	00061f03          	lh	t5,0(a2)
    800069a8:	00261e83          	lh	t4,2(a2)
    800069ac:	00461e03          	lh	t3,4(a2)
    800069b0:	00661703          	lh	a4,6(a2)
    800069b4:	00861883          	lh	a7,8(a2)
    800069b8:	00a61803          	lh	a6,10(a2)
    800069bc:	00c61503          	lh	a0,12(a2)
    800069c0:	00e61783          	lh	a5,14(a2)
    800069c4:	02df02bb          	mulw	t0,t5,a3
    800069c8:	0641                	add	a2,a2,16
    800069ca:	02058593          	add	a1,a1,32
    800069ce:	02de833b          	mulw	t1,t4,a3
    800069d2:	fe55a023          	sw	t0,-32(a1)
    800069d6:	02de03bb          	mulw	t2,t3,a3
    800069da:	fe65a223          	sw	t1,-28(a1)
    800069de:	02d70f3b          	mulw	t5,a4,a3
    800069e2:	fe75a423          	sw	t2,-24(a1)
    800069e6:	02d88ebb          	mulw	t4,a7,a3
    800069ea:	ffe5a623          	sw	t5,-20(a1)
    800069ee:	02d80e3b          	mulw	t3,a6,a3
    800069f2:	ffd5a823          	sw	t4,-16(a1)
    800069f6:	02d5073b          	mulw	a4,a0,a3
    800069fa:	ffc5aa23          	sw	t3,-12(a1)
    800069fe:	02d788bb          	mulw	a7,a5,a3
    80006a02:	fee5ac23          	sw	a4,-8(a1)
    80006a06:	ff15ae23          	sw	a7,-4(a1)
    80006a0a:	f8cf9de3          	bne	t6,a2,800069a4 <matrix_mul_const+0xb4>
    80006a0e:	8082                	ret
    80006a10:	00061283          	lh	t0,0(a2)
    80006a14:	0591                	add	a1,a1,4
    80006a16:	0609                	add	a2,a2,2
    80006a18:	02d2833b          	mulw	t1,t0,a3
    80006a1c:	fe65ae23          	sw	t1,-4(a1)
    80006a20:	b705                	j	80006940 <matrix_mul_const+0x50>
    80006a22:	8082                	ret

0000000080006a24 <matrix_add_const>:
matrix_add_const():
    80006a24:	02a50e3b          	mulw	t3,a0,a0
    80006a28:	8572                	mv	a0,t3
    80006a2a:	180e0b63          	beqz	t3,80006bc0 <matrix_add_const+0x19c>
    80006a2e:	0015d713          	srl	a4,a1,0x1
    80006a32:	40e002bb          	negw	t0,a4
    80006a36:	1642                	sll	a2,a2,0x30
    80006a38:	fffe081b          	addw	a6,t3,-1
    80006a3c:	4695                	li	a3,5
    80006a3e:	03065393          	srl	t2,a2,0x30
    80006a42:	0032f313          	and	t1,t0,3
    80006a46:	1706fe63          	bgeu	a3,a6,80006bc2 <matrix_add_const+0x19e>
    80006a4a:	4f81                	li	t6,0
    80006a4c:	02030e63          	beqz	t1,80006a88 <matrix_add_const+0x64>
    80006a50:	0005de83          	lhu	t4,0(a1)
    80006a54:	0022ff13          	and	t5,t0,2
    80006a58:	4f85                	li	t6,1
    80006a5a:	007e87bb          	addw	a5,t4,t2
    80006a5e:	00f59023          	sh	a5,0(a1)
    80006a62:	020f0363          	beqz	t5,80006a88 <matrix_add_const+0x64>
    80006a66:	0025d283          	lhu	t0,2(a1)
    80006a6a:	470d                	li	a4,3
    80006a6c:	4f89                	li	t6,2
    80006a6e:	0072883b          	addw	a6,t0,t2
    80006a72:	01059123          	sh	a6,2(a1)
    80006a76:	00e31963          	bne	t1,a4,80006a88 <matrix_add_const+0x64>
    80006a7a:	0045d683          	lhu	a3,4(a1)
    80006a7e:	4f8d                	li	t6,3
    80006a80:	0076863b          	addw	a2,a3,t2
    80006a84:	00c59223          	sh	a2,4(a1)
    80006a88:	40650f3b          	subw	t5,a0,t1
    80006a8c:	01039893          	sll	a7,t2,0x10
    80006a90:	0113eeb3          	or	t4,t2,a7
    80006a94:	02039513          	sll	a0,t2,0x20
    80006a98:	0306                	sll	t1,t1,0x1
    80006a9a:	002f529b          	srlw	t0,t5,0x2
    80006a9e:	00aee6b3          	or	a3,t4,a0
    80006aa2:	03039813          	sll	a6,t2,0x30
    80006aa6:	006587b3          	add	a5,a1,t1
    80006aaa:	00329713          	sll	a4,t0,0x3
    80006aae:	0106e633          	or	a2,a3,a6
    80006ab2:	00f70eb3          	add	t4,a4,a5
    80006ab6:	00002897          	auipc	a7,0x2
    80006aba:	6388                	ld	a0,0(a5)
    80006abc:	74a8b283          	ld	t0,1866(a7) # 80009200 <mem_name+0x30>
    80006ac0:	00002317          	auipc	t1,0x2
    80006ac4:	74833683          	ld	a3,1864(t1) # 80009208 <mem_name+0x38>
    80006ac8:	005678b3          	and	a7,a2,t0
    80006acc:	00557833          	and	a6,a0,t0
    80006ad0:	00c54733          	xor	a4,a0,a2
    80006ad4:	00d772b3          	and	t0,a4,a3
    80006ad8:	01088533          	add	a0,a7,a6
    80006adc:	00554333          	xor	t1,a0,t0
    80006ae0:	0067b023          	sd	t1,0(a5)
    80006ae4:	07a1                	add	a5,a5,8
    80006ae6:	fdd798e3          	bne	a5,t4,80006ab6 <matrix_add_const+0x92>
    80006aea:	003f7613          	and	a2,t5,3
    80006aee:	ca69                	beqz	a2,80006bc0 <matrix_add_const+0x19c>
    80006af0:	ffcf7f13          	and	t5,t5,-4
    80006af4:	01ff08bb          	addw	a7,t5,t6
    80006af8:	02089f93          	sll	t6,a7,0x20
    80006afc:	01ffde93          	srl	t4,t6,0x1f
    80006b00:	01d58733          	add	a4,a1,t4
    80006b04:	00075803          	lhu	a6,0(a4)
    80006b08:	0018869b          	addw	a3,a7,1
    80006b0c:	0006851b          	sext.w	a0,a3
    80006b10:	007802bb          	addw	t0,a6,t2
    80006b14:	00571023          	sh	t0,0(a4)
    80006b18:	0bc57463          	bgeu	a0,t3,80006bc0 <matrix_add_const+0x19c>
    80006b1c:	02069313          	sll	t1,a3,0x20
    80006b20:	01f35793          	srl	a5,t1,0x1f
    80006b24:	00f58633          	add	a2,a1,a5
    80006b28:	00065f03          	lhu	t5,0(a2)
    80006b2c:	00288f9b          	addw	t6,a7,2
    80006b30:	000f8e9b          	sext.w	t4,t6
    80006b34:	007f073b          	addw	a4,t5,t2
    80006b38:	00e61023          	sh	a4,0(a2)
    80006b3c:	09cef263          	bgeu	t4,t3,80006bc0 <matrix_add_const+0x19c>
    80006b40:	020f9813          	sll	a6,t6,0x20
    80006b44:	01f85693          	srl	a3,a6,0x1f
    80006b48:	00d582b3          	add	t0,a1,a3
    80006b4c:	0002d303          	lhu	t1,0(t0)
    80006b50:	0038879b          	addw	a5,a7,3
    80006b54:	0007851b          	sext.w	a0,a5
    80006b58:	0073063b          	addw	a2,t1,t2
    80006b5c:	00c29023          	sh	a2,0(t0)
    80006b60:	07c57063          	bgeu	a0,t3,80006bc0 <matrix_add_const+0x19c>
    80006b64:	02079f13          	sll	t5,a5,0x20
    80006b68:	01ff5f93          	srl	t6,t5,0x1f
    80006b6c:	01f58eb3          	add	t4,a1,t6
    80006b70:	000ed703          	lhu	a4,0(t4)
    80006b74:	0048869b          	addw	a3,a7,4
    80006b78:	0006829b          	sext.w	t0,a3
    80006b7c:	0077083b          	addw	a6,a4,t2
    80006b80:	010e9023          	sh	a6,0(t4)
    80006b84:	03c2fe63          	bgeu	t0,t3,80006bc0 <matrix_add_const+0x19c>
    80006b88:	02069313          	sll	t1,a3,0x20
    80006b8c:	01f35793          	srl	a5,t1,0x1f
    80006b90:	00f58633          	add	a2,a1,a5
    80006b94:	00065503          	lhu	a0,0(a2)
    80006b98:	2895                	addw	a7,a7,5
    80006b9a:	00088f1b          	sext.w	t5,a7
    80006b9e:	00750fbb          	addw	t6,a0,t2
    80006ba2:	01f61023          	sh	t6,0(a2)
    80006ba6:	01cf7d63          	bgeu	t5,t3,80006bc0 <matrix_add_const+0x19c>
    80006baa:	02089e13          	sll	t3,a7,0x20
    80006bae:	01fe5e93          	srl	t4,t3,0x1f
    80006bb2:	95f6                	add	a1,a1,t4
    80006bb4:	0005d703          	lhu	a4,0(a1)
    80006bb8:	007703bb          	addw	t2,a4,t2
    80006bbc:	00759023          	sh	t2,0(a1)
    80006bc0:	8082                	ret
    80006bc2:	4881                	li	a7,0
    80006bc4:	bf15                	j	80006af8 <matrix_add_const+0xd4>

0000000080006bc6 <matrix_mul_vect>:
matrix_mul_vect():
    80006bc6:	14050263          	beqz	a0,80006d0a <matrix_mul_vect+0x144>
    80006bca:	02051713          	sll	a4,a0,0x20
    80006bce:	1101                	add	sp,sp,-32
    80006bd0:	01e75793          	srl	a5,a4,0x1e
    80006bd4:	ec22                	sd	s0,24(sp)
    80006bd6:	e826                	sd	s1,16(sp)
    80006bd8:	e44a                	sd	s2,8(sp)
    80006bda:	842a                	mv	s0,a0
    80006bdc:	84b6                	mv	s1,a3
    80006bde:	00f58933          	add	s2,a1,a5
    80006be2:	832a                	mv	t1,a0
    80006be4:	4e01                	li	t3,0
    80006be6:	41c302b3          	sub	t0,t1,t3
    80006bea:	0032f893          	and	a7,t0,3
    80006bee:	87a6                	mv	a5,s1
    80006bf0:	8772                	mv	a4,t3
    80006bf2:	4801                	li	a6,0
    80006bf4:	06088b63          	beqz	a7,80006c6a <matrix_mul_vect+0xa4>
    80006bf8:	4685                	li	a3,1
    80006bfa:	04d88563          	beq	a7,a3,80006c44 <matrix_mul_vect+0x7e>
    80006bfe:	4389                	li	t2,2
    80006c00:	02788263          	beq	a7,t2,80006c24 <matrix_mul_vect+0x5e>
    80006c04:	020e1513          	sll	a0,t3,0x20
    80006c08:	01f55813          	srl	a6,a0,0x1f
    80006c0c:	01060eb3          	add	t4,a2,a6
    80006c10:	000e9f03          	lh	t5,0(t4)
    80006c14:	00049f83          	lh	t6,0(s1)
    80006c18:	001e071b          	addw	a4,t3,1
    80006c1c:	00248793          	add	a5,s1,2
    80006c20:	03ff083b          	mulw	a6,t5,t6
    80006c24:	02071293          	sll	t0,a4,0x20
    80006c28:	01f2d893          	srl	a7,t0,0x1f
    80006c2c:	011603b3          	add	t2,a2,a7
    80006c30:	00079683          	lh	a3,0(a5)
    80006c34:	00039503          	lh	a0,0(t2)
    80006c38:	2705                	addw	a4,a4,1
    80006c3a:	0789                	add	a5,a5,2
    80006c3c:	02d50ebb          	mulw	t4,a0,a3
    80006c40:	010e883b          	addw	a6,t4,a6
    80006c44:	02071f13          	sll	t5,a4,0x20
    80006c48:	01ff5f93          	srl	t6,t5,0x1f
    80006c4c:	01f602b3          	add	t0,a2,t6
    80006c50:	00079883          	lh	a7,0(a5)
    80006c54:	00029383          	lh	t2,0(t0)
    80006c58:	2705                	addw	a4,a4,1
    80006c5a:	0789                	add	a5,a5,2
    80006c5c:	031386bb          	mulw	a3,t2,a7
    80006c60:	0106883b          	addw	a6,a3,a6
    80006c64:	8542                	mv	a0,a6
    80006c66:	08e30563          	beq	t1,a4,80006cf0 <matrix_mul_vect+0x12a>
    80006c6a:	00170e9b          	addw	t4,a4,1
    80006c6e:	02071f13          	sll	t5,a4,0x20
    80006c72:	001e829b          	addw	t0,t4,1
    80006c76:	01ff5f93          	srl	t6,t5,0x1f
    80006c7a:	020e9393          	sll	t2,t4,0x20
    80006c7e:	01f608b3          	add	a7,a2,t6
    80006c82:	01f3d693          	srl	a3,t2,0x1f
    80006c86:	0012871b          	addw	a4,t0,1
    80006c8a:	02029f13          	sll	t5,t0,0x20
    80006c8e:	00089503          	lh	a0,0(a7)
    80006c92:	00079383          	lh	t2,0(a5)
    80006c96:	00d60eb3          	add	t4,a2,a3
    80006c9a:	01ff5293          	srl	t0,t5,0x1f
    80006c9e:	02071893          	sll	a7,a4,0x20
    80006ca2:	000e9683          	lh	a3,0(t4)
    80006ca6:	00279f83          	lh	t6,2(a5)
    80006caa:	00560f33          	add	t5,a2,t0
    80006cae:	01f8d893          	srl	a7,a7,0x1f
    80006cb2:	00479e83          	lh	t4,4(a5)
    80006cb6:	000f1283          	lh	t0,0(t5)
    80006cba:	01160f33          	add	t5,a2,a7
    80006cbe:	027503bb          	mulw	t2,a0,t2
    80006cc2:	00679883          	lh	a7,6(a5)
    80006cc6:	000f1503          	lh	a0,0(t5)
    80006cca:	2705                	addw	a4,a4,1
    80006ccc:	07a1                	add	a5,a5,8
    80006cce:	03f68fbb          	mulw	t6,a3,t6
    80006cd2:	0103883b          	addw	a6,t2,a6
    80006cd6:	03d286bb          	mulw	a3,t0,t4
    80006cda:	010f8ebb          	addw	t4,t6,a6
    80006cde:	031502bb          	mulw	t0,a0,a7
    80006ce2:	01d68f3b          	addw	t5,a3,t4
    80006ce6:	01e2883b          	addw	a6,t0,t5
    80006cea:	8542                	mv	a0,a6
    80006cec:	f6e31fe3          	bne	t1,a4,80006c6a <matrix_mul_vect+0xa4>
    80006cf0:	c188                	sw	a0,0(a1)
    80006cf2:	0591                	add	a1,a1,4
    80006cf4:	01c40e3b          	addw	t3,s0,t3
    80006cf8:	0064033b          	addw	t1,s0,t1
    80006cfc:	eeb915e3          	bne	s2,a1,80006be6 <matrix_mul_vect+0x20>
    80006d00:	6462                	ld	s0,24(sp)
    80006d02:	64c2                	ld	s1,16(sp)
    80006d04:	6922                	ld	s2,8(sp)
    80006d06:	6105                	add	sp,sp,32
    80006d08:	8082                	ret
    80006d0a:	8082                	ret

0000000080006d0c <matrix_mul_matrix>:
matrix_mul_matrix():
    80006d0c:	1a050f63          	beqz	a0,80006eca <matrix_mul_matrix+0x1be>
    80006d10:	7179                	add	sp,sp,-48
    80006d12:	e84e                	sd	s3,16(sp)
    80006d14:	e056                	sd	s5,0(sp)
    80006d16:	f422                	sd	s0,40(sp)
    80006d18:	f026                	sd	s1,32(sp)
    80006d1a:	ec4a                	sd	s2,24(sp)
    80006d1c:	e452                	sd	s4,8(sp)
    80006d1e:	89ae                	mv	s3,a1
    80006d20:	8e2a                	mv	t3,a0
    80006d22:	4301                	li	t1,0
    80006d24:	4a81                	li	s5,0
    80006d26:	4881                	li	a7,0
    80006d28:	006887bb          	addw	a5,a7,t1
    80006d2c:	02079593          	sll	a1,a5,0x20
    80006d30:	406e0733          	sub	a4,t3,t1
    80006d34:	01e5d293          	srl	t0,a1,0x1e
    80006d38:	00377813          	and	a6,a4,3
    80006d3c:	00598933          	add	s2,s3,t0
    80006d40:	8746                	mv	a4,a7
    80006d42:	879a                	mv	a5,t1
    80006d44:	4581                	li	a1,0
    80006d46:	08080d63          	beqz	a6,80006de0 <matrix_mul_matrix+0xd4>
    80006d4a:	4e85                	li	t4,1
    80006d4c:	07d80163          	beq	a6,t4,80006dae <matrix_mul_matrix+0xa2>
    80006d50:	4389                	li	t2,2
    80006d52:	02780863          	beq	a6,t2,80006d82 <matrix_mul_matrix+0x76>
    80006d56:	02031413          	sll	s0,t1,0x20
    80006d5a:	02089a13          	sll	s4,a7,0x20
    80006d5e:	01f45493          	srl	s1,s0,0x1f
    80006d62:	01fa5f13          	srl	t5,s4,0x1f
    80006d66:	01e687b3          	add	a5,a3,t5
    80006d6a:	00960fb3          	add	t6,a2,s1
    80006d6e:	00079583          	lh	a1,0(a5)
    80006d72:	000f9283          	lh	t0,0(t6)
    80006d76:	0013079b          	addw	a5,t1,1
    80006d7a:	0115073b          	addw	a4,a0,a7
    80006d7e:	02b285bb          	mulw	a1,t0,a1
    80006d82:	02079813          	sll	a6,a5,0x20
    80006d86:	02071393          	sll	t2,a4,0x20
    80006d8a:	01f85e93          	srl	t4,a6,0x1f
    80006d8e:	01f3d413          	srl	s0,t2,0x1f
    80006d92:	01d604b3          	add	s1,a2,t4
    80006d96:	00868a33          	add	s4,a3,s0
    80006d9a:	00049f03          	lh	t5,0(s1)
    80006d9e:	000a1f83          	lh	t6,0(s4)
    80006da2:	2785                	addw	a5,a5,1
    80006da4:	9f29                	addw	a4,a4,a0
    80006da6:	03ff02bb          	mulw	t0,t5,t6
    80006daa:	00b285bb          	addw	a1,t0,a1
    80006dae:	02079813          	sll	a6,a5,0x20
    80006db2:	02071393          	sll	t2,a4,0x20
    80006db6:	01f85e93          	srl	t4,a6,0x1f
    80006dba:	01f3d413          	srl	s0,t2,0x1f
    80006dbe:	01d604b3          	add	s1,a2,t4
    80006dc2:	00868a33          	add	s4,a3,s0
    80006dc6:	00049f03          	lh	t5,0(s1)
    80006dca:	000a1f83          	lh	t6,0(s4)
    80006dce:	2785                	addw	a5,a5,1
    80006dd0:	9f29                	addw	a4,a4,a0
    80006dd2:	03ff02bb          	mulw	t0,t5,t6
    80006dd6:	00b285bb          	addw	a1,t0,a1
    80006dda:	882e                	mv	a6,a1
    80006ddc:	0afe0d63          	beq	t3,a5,80006e96 <matrix_mul_matrix+0x18a>
    80006de0:	0017841b          	addw	s0,a5,1
    80006de4:	00e504bb          	addw	s1,a0,a4
    80006de8:	02079e93          	sll	t4,a5,0x20
    80006dec:	02071a13          	sll	s4,a4,0x20
    80006df0:	02049793          	sll	a5,s1,0x20
    80006df4:	01fed393          	srl	t2,t4,0x1f
    80006df8:	02041f93          	sll	t6,s0,0x20
    80006dfc:	00140e9b          	addw	t4,s0,1
    80006e00:	01fa5f13          	srl	t5,s4,0x1f
    80006e04:	0095083b          	addw	a6,a0,s1
    80006e08:	01f7da13          	srl	s4,a5,0x1f
    80006e0c:	01ffd413          	srl	s0,t6,0x1f
    80006e10:	001e879b          	addw	a5,t4,1
    80006e14:	1e82                	sll	t4,t4,0x20
    80006e16:	01e682b3          	add	t0,a3,t5
    80006e1a:	0105073b          	addw	a4,a0,a6
    80006e1e:	01468f33          	add	t5,a3,s4
    80006e22:	93b2                	add	t2,t2,a2
    80006e24:	01feda13          	srl	s4,t4,0x1f
    80006e28:	00860fb3          	add	t6,a2,s0
    80006e2c:	1802                	sll	a6,a6,0x20
    80006e2e:	00039483          	lh	s1,0(t2)
    80006e32:	000f9403          	lh	s0,0(t6)
    80006e36:	00029383          	lh	t2,0(t0)
    80006e3a:	000f1f83          	lh	t6,0(t5)
    80006e3e:	01f85e93          	srl	t4,a6,0x1f
    80006e42:	014602b3          	add	t0,a2,s4
    80006e46:	02079f13          	sll	t5,a5,0x20
    80006e4a:	02071a13          	sll	s4,a4,0x20
    80006e4e:	01fa5813          	srl	a6,s4,0x1f
    80006e52:	9eb6                	add	t4,t4,a3
    80006e54:	01ff5f13          	srl	t5,t5,0x1f
    80006e58:	00029283          	lh	t0,0(t0)
    80006e5c:	000e9e83          	lh	t4,0(t4)
    80006e60:	9f32                	add	t5,t5,a2
    80006e62:	01068a33          	add	s4,a3,a6
    80006e66:	027484bb          	mulw	s1,s1,t2
    80006e6a:	000a1803          	lh	a6,0(s4)
    80006e6e:	000f1383          	lh	t2,0(t5)
    80006e72:	2785                	addw	a5,a5,1
    80006e74:	9f29                	addw	a4,a4,a0
    80006e76:	03f4043b          	mulw	s0,s0,t6
    80006e7a:	9da5                	addw	a1,a1,s1
    80006e7c:	03d28fbb          	mulw	t6,t0,t4
    80006e80:	00b402bb          	addw	t0,s0,a1
    80006e84:	03038ebb          	mulw	t4,t2,a6
    80006e88:	005f8f3b          	addw	t5,t6,t0
    80006e8c:	01ee85bb          	addw	a1,t4,t5
    80006e90:	882e                	mv	a6,a1
    80006e92:	f4fe17e3          	bne	t3,a5,80006de0 <matrix_mul_matrix+0xd4>
    80006e96:	01092023          	sw	a6,0(s2)
    80006e9a:	0018891b          	addw	s2,a7,1
    80006e9e:	01250463          	beq	a0,s2,80006ea6 <matrix_mul_matrix+0x19a>
    80006ea2:	88ca                	mv	a7,s2
    80006ea4:	b551                	j	80006d28 <matrix_mul_matrix+0x1c>
    80006ea6:	001a879b          	addw	a5,s5,1
    80006eaa:	0065033b          	addw	t1,a0,t1
    80006eae:	01c50e3b          	addw	t3,a0,t3
    80006eb2:	011a8463          	beq	s5,a7,80006eba <matrix_mul_matrix+0x1ae>
    80006eb6:	8abe                	mv	s5,a5
    80006eb8:	b5bd                	j	80006d26 <matrix_mul_matrix+0x1a>
    80006eba:	7422                	ld	s0,40(sp)
    80006ebc:	7482                	ld	s1,32(sp)
    80006ebe:	6962                	ld	s2,24(sp)
    80006ec0:	69c2                	ld	s3,16(sp)
    80006ec2:	6a22                	ld	s4,8(sp)
    80006ec4:	6a82                	ld	s5,0(sp)
    80006ec6:	6145                	add	sp,sp,48
    80006ec8:	8082                	ret
    80006eca:	8082                	ret

0000000080006ecc <matrix_mul_matrix_bitextract>:
matrix_mul_matrix_bitextract():
    80006ecc:	02a507bb          	mulw	a5,a0,a0
    80006ed0:	862e                	mv	a2,a1
    80006ed2:	0007871b          	sext.w	a4,a5
    80006ed6:	10070a63          	beqz	a4,80006fea <matrix_mul_matrix_bitextract+0x11e>
    80006eda:	02079593          	sll	a1,a5,0x20
    80006ede:	01f5d293          	srl	t0,a1,0x1f
    80006ee2:	ffe28313          	add	t1,t0,-2
    80006ee6:	00135393          	srl	t2,t1,0x1
    80006eea:	00138513          	add	a0,t2,1
    80006eee:	00757813          	and	a6,a0,7
    80006ef2:	85b2                	mv	a1,a2
    80006ef4:	00568f33          	add	t5,a3,t0
    80006ef8:	08080663          	beqz	a6,80006f84 <matrix_mul_matrix_bitextract+0xb8>
    80006efc:	4885                	li	a7,1
    80006efe:	07180963          	beq	a6,a7,80006f70 <matrix_mul_matrix_bitextract+0xa4>
    80006f02:	4e09                	li	t3,2
    80006f04:	05c80e63          	beq	a6,t3,80006f60 <matrix_mul_matrix_bitextract+0x94>
    80006f08:	4e8d                	li	t4,3
    80006f0a:	05d80363          	beq	a6,t4,80006f50 <matrix_mul_matrix_bitextract+0x84>
    80006f0e:	4f91                	li	t6,4
    80006f10:	03f80863          	beq	a6,t6,80006f40 <matrix_mul_matrix_bitextract+0x74>
    80006f14:	4795                	li	a5,5
    80006f16:	00f80d63          	beq	a6,a5,80006f30 <matrix_mul_matrix_bitextract+0x64>
    80006f1a:	4619                	li	a2,6
    80006f1c:	0cc81863          	bne	a6,a2,80006fec <matrix_mul_matrix_bitextract+0x120>
    80006f20:	0006d303          	lhu	t1,0(a3)
    80006f24:	0591                	add	a1,a1,4
    80006f26:	0689                	add	a3,a3,2
    80006f28:	00f37393          	and	t2,t1,15
    80006f2c:	fe75ae23          	sw	t2,-4(a1)
    80006f30:	0006d503          	lhu	a0,0(a3)
    80006f34:	0591                	add	a1,a1,4
    80006f36:	0689                	add	a3,a3,2
    80006f38:	00f57813          	and	a6,a0,15
    80006f3c:	ff05ae23          	sw	a6,-4(a1)
    80006f40:	0006d883          	lhu	a7,0(a3)
    80006f44:	0591                	add	a1,a1,4
    80006f46:	0689                	add	a3,a3,2
    80006f48:	00f8fe13          	and	t3,a7,15
    80006f4c:	ffc5ae23          	sw	t3,-4(a1)
    80006f50:	0006de83          	lhu	t4,0(a3)
    80006f54:	0591                	add	a1,a1,4
    80006f56:	0689                	add	a3,a3,2
    80006f58:	00feff93          	and	t6,t4,15
    80006f5c:	fff5ae23          	sw	t6,-4(a1)
    80006f60:	0006d783          	lhu	a5,0(a3)
    80006f64:	0591                	add	a1,a1,4
    80006f66:	0689                	add	a3,a3,2
    80006f68:	00f7f613          	and	a2,a5,15
    80006f6c:	fec5ae23          	sw	a2,-4(a1)
    80006f70:	0006d703          	lhu	a4,0(a3)
    80006f74:	0591                	add	a1,a1,4
    80006f76:	0689                	add	a3,a3,2
    80006f78:	00f77293          	and	t0,a4,15
    80006f7c:	fe55ae23          	sw	t0,-4(a1)
    80006f80:	06df0f63          	beq	t5,a3,80006ffe <matrix_mul_matrix_bitextract+0x132>
    80006f84:	0006d383          	lhu	t2,0(a3)
    80006f88:	0026de03          	lhu	t3,2(a3)
    80006f8c:	0046d303          	lhu	t1,4(a3)
    80006f90:	0066d883          	lhu	a7,6(a3)
    80006f94:	0086d803          	lhu	a6,8(a3)
    80006f98:	00a6d503          	lhu	a0,10(a3)
    80006f9c:	00c6df83          	lhu	t6,12(a3)
    80006fa0:	00e6d783          	lhu	a5,14(a3)
    80006fa4:	00f3fe93          	and	t4,t2,15
    80006fa8:	00fe7713          	and	a4,t3,15
    80006fac:	00f37293          	and	t0,t1,15
    80006fb0:	00f8f393          	and	t2,a7,15
    80006fb4:	00f87e13          	and	t3,a6,15
    80006fb8:	00f57313          	and	t1,a0,15
    80006fbc:	00fff613          	and	a2,t6,15
    80006fc0:	00f7f893          	and	a7,a5,15
    80006fc4:	01d5a023          	sw	t4,0(a1)
    80006fc8:	c1d8                	sw	a4,4(a1)
    80006fca:	0055a423          	sw	t0,8(a1)
    80006fce:	0075a623          	sw	t2,12(a1)
    80006fd2:	01c5a823          	sw	t3,16(a1)
    80006fd6:	0065aa23          	sw	t1,20(a1)
    80006fda:	cd90                	sw	a2,24(a1)
    80006fdc:	0115ae23          	sw	a7,28(a1)
    80006fe0:	06c1                	add	a3,a3,16
    80006fe2:	02058593          	add	a1,a1,32
    80006fe6:	f8df1fe3          	bne	t5,a3,80006f84 <matrix_mul_matrix_bitextract+0xb8>
    80006fea:	8082                	ret
    80006fec:	0006d703          	lhu	a4,0(a3)
    80006ff0:	0591                	add	a1,a1,4
    80006ff2:	0689                	add	a3,a3,2
    80006ff4:	00f77293          	and	t0,a4,15
    80006ff8:	fe55ae23          	sw	t0,-4(a1)
    80006ffc:	b715                	j	80006f20 <matrix_mul_matrix_bitextract+0x54>
    80006ffe:	8082                	ret

0000000080007000 <putchar>:
putchar():
    80007000:	6345                	lui	t1,0x11
    80007002:	3003031b          	addw	t1,t1,768 # 11300 <_tbss_end+0x11300>

0000000080007006 <uart_status_simple>:
    80007006:	00c31583          	lh	a1,12(t1)
    8000700a:	8989                	and	a1,a1,2
    8000700c:	fded                	bnez	a1,80007006 <uart_status_simple>
    8000700e:	00a30223          	sb	a0,4(t1)
    80007012:	4501                	li	a0,0
    80007014:	8082                	ret

0000000080007016 <sprintf_putch.0>:
sprintf_putch.0():
    80007016:	619c                	ld	a5,0(a1)
    80007018:	00a78023          	sb	a0,0(a5)
    8000701c:	619c                	ld	a5,0(a1)
    8000701e:	0785                	add	a5,a5,1
    80007020:	e19c                	sd	a5,0(a1)
    80007022:	8082                	ret

0000000080007024 <tohost_exit>:
tohost_exit():
    80007024:	00151793          	sll	a5,a0,0x1
    80007028:	0017e793          	or	a5,a5,1
    8000702c:	ffffa717          	auipc	a4,0xffffa
    80007030:	fcf73a23          	sd	a5,-44(a4) # 80001000 <tohost>
    80007034:	a001                	j	80007034 <tohost_exit+0x10>

0000000080007036 <exit>:
exit():
    80007036:	6345                	lui	t1,0x11
    80007038:	3003031b          	addw	t1,t1,768 # 11300 <_tbss_end+0x11300>
    8000703c:	00c31503          	lh	a0,12(t1)
    80007040:	8905                	and	a0,a0,1
    80007042:	d975                	beqz	a0,80007036 <exit>
    80007044:	b0302573          	csrr	a0,mhpmcounter3
    80007048:	b0402573          	csrr	a0,mhpmcounter4
    8000704c:	00020537          	lui	a0,0x20
    80007050:	c548                	sw	a0,12(a0)
    80007052:	a001                	j	80007052 <exit+0x1c>

0000000080007054 <setStats>:
setStats():
    80007054:	b0002773          	csrr	a4,mcycle
    80007058:	86818793          	add	a5,gp,-1944 # 80009250 <counters>
    8000705c:	c511                	beqz	a0,80007068 <setStats+0x14>
    8000705e:	e398                	sd	a4,0(a5)
    80007060:	b0202773          	csrr	a4,minstret
    80007064:	e798                	sd	a4,8(a5)
    80007066:	8082                	ret
    80007068:	6394                	ld	a3,0(a5)
    8000706a:	00002617          	auipc	a2,0x2
    8000706e:	0e660613          	add	a2,a2,230 # 80009150 <errpat+0xd88>
    80007072:	eb90                	sd	a2,16(a5)
    80007074:	8f15                	sub	a4,a4,a3
    80007076:	e398                	sd	a4,0(a5)
    80007078:	b0202773          	csrr	a4,minstret
    8000707c:	6794                	ld	a3,8(a5)
    8000707e:	00002617          	auipc	a2,0x2
    80007082:	0da60613          	add	a2,a2,218 # 80009158 <errpat+0xd90>
    80007086:	ef90                	sd	a2,24(a5)
    80007088:	8f15                	sub	a4,a4,a3
    8000708a:	e798                	sd	a4,8(a5)
    8000708c:	8082                	ret

000000008000708e <abort>:
abort():
    8000708e:	1141                	add	sp,sp,-16
    80007090:	e406                	sd	ra,8(sp)
    80007092:	fa5ff0ef          	jal	80007036 <exit>

0000000080007096 <printstr>:
printstr():
    80007096:	00054783          	lbu	a5,0(a0) # 20000 <_tbss_end+0x20000>
    8000709a:	7159                	add	sp,sp,-112
    8000709c:	03f10693          	add	a3,sp,63
    800070a0:	fc06f693          	and	a3,a3,-64
    800070a4:	c3b9                	beqz	a5,800070ea <printstr+0x54>
    800070a6:	87aa                	mv	a5,a0
    800070a8:	0017c703          	lbu	a4,1(a5)
    800070ac:	0785                	add	a5,a5,1
    800070ae:	ff6d                	bnez	a4,800070a8 <printstr+0x12>
    800070b0:	8f89                	sub	a5,a5,a0
    800070b2:	04000713          	li	a4,64
    800070b6:	e298                	sd	a4,0(a3)
    800070b8:	4705                	li	a4,1
    800070ba:	e698                	sd	a4,8(a3)
    800070bc:	ea88                	sd	a0,16(a3)
    800070be:	ee9c                	sd	a5,24(a3)
    800070c0:	0ff0000f          	fence
    800070c4:	ffffa717          	auipc	a4,0xffffa
    800070c8:	f7c70713          	add	a4,a4,-132 # 80001040 <fromhost>
    800070cc:	ffffa797          	auipc	a5,0xffffa
    800070d0:	f2d7ba23          	sd	a3,-204(a5) # 80001000 <tohost>
    800070d4:	631c                	ld	a5,0(a4)
    800070d6:	dffd                	beqz	a5,800070d4 <printstr+0x3e>
    800070d8:	ffffa797          	auipc	a5,0xffffa
    800070dc:	f607b423          	sd	zero,-152(a5) # 80001040 <fromhost>
    800070e0:	0ff0000f          	fence
    800070e4:	629c                	ld	a5,0(a3)
    800070e6:	6165                	add	sp,sp,112
    800070e8:	8082                	ret
    800070ea:	4781                	li	a5,0
    800070ec:	b7d9                	j	800070b2 <printstr+0x1c>

00000000800070ee <thread_entry>:
thread_entry():
    800070ee:	e101                	bnez	a0,800070ee <thread_entry>
    800070f0:	8082                	ret

00000000800070f2 <printhex>:
printhex():
    800070f2:	7179                	add	sp,sp,-48
    800070f4:	87aa                	mv	a5,a0
    800070f6:	f406                	sd	ra,40(sp)
    800070f8:	0028                	add	a0,sp,8
    800070fa:	01710713          	add	a4,sp,23
    800070fe:	4825                	li	a6,9
    80007100:	a011                	j	80007104 <printhex+0x12>
    80007102:	8736                	mv	a4,a3
    80007104:	00f7f613          	and	a2,a5,15
    80007108:	86b2                	mv	a3,a2
    8000710a:	05700593          	li	a1,87
    8000710e:	00c86463          	bltu	a6,a2,80007116 <printhex+0x24>
    80007112:	03000593          	li	a1,48
    80007116:	9ead                	addw	a3,a3,a1
    80007118:	00d70023          	sb	a3,0(a4)
    8000711c:	8391                	srl	a5,a5,0x4
    8000711e:	fff70693          	add	a3,a4,-1
    80007122:	fee510e3          	bne	a0,a4,80007102 <printhex+0x10>
    80007126:	00010c23          	sb	zero,24(sp)
    8000712a:	f6dff0ef          	jal	80007096 <printstr>
    8000712e:	70a2                	ld	ra,40(sp)
    80007130:	6145                	add	sp,sp,48
    80007132:	8082                	ret

0000000080007134 <pow_10>:
pow_10():
    80007134:	cd11                	beqz	a0,80007150 <pow_10+0x1c>
    80007136:	4681                	li	a3,0
    80007138:	4705                	li	a4,1
    8000713a:	0027179b          	sllw	a5,a4,0x2
    8000713e:	9fb9                	addw	a5,a5,a4
    80007140:	2685                	addw	a3,a3,1
    80007142:	0017971b          	sllw	a4,a5,0x1
    80007146:	fed51ae3          	bne	a0,a3,8000713a <pow_10+0x6>
    8000714a:	d0177553          	fcvt.s.wu	fa0,a4
    8000714e:	8082                	ret
    80007150:	00002797          	auipc	a5,0x2
    80007154:	0d07a507          	flw	fa0,208(a5) # 80009220 <mem_name+0x50>
    80007158:	8082                	ret

000000008000715a <reverse>:
reverse():
    8000715a:	fff5871b          	addw	a4,a1,-1
    8000715e:	85ba                	mv	a1,a4
    80007160:	02e05363          	blez	a4,80007186 <reverse+0x2c>
    80007164:	972a                	add	a4,a4,a0
    80007166:	4681                	li	a3,0
    80007168:	00074803          	lbu	a6,0(a4)
    8000716c:	00054603          	lbu	a2,0(a0)
    80007170:	2685                	addw	a3,a3,1
    80007172:	01050023          	sb	a6,0(a0)
    80007176:	00c70023          	sb	a2,0(a4)
    8000717a:	40d587bb          	subw	a5,a1,a3
    8000717e:	0505                	add	a0,a0,1
    80007180:	177d                	add	a4,a4,-1
    80007182:	fef6c3e3          	blt	a3,a5,80007168 <reverse+0xe>
    80007186:	8082                	ret

0000000080007188 <int_to_string>:
int_to_string():
    80007188:	4781                	li	a5,0
    8000718a:	c951                	beqz	a0,8000721e <int_to_string+0x96>
    8000718c:	4829                	li	a6,10
    8000718e:	030566bb          	remw	a3,a0,a6
    80007192:	02079713          	sll	a4,a5,0x20
    80007196:	9301                	srl	a4,a4,0x20
    80007198:	972e                	add	a4,a4,a1
    8000719a:	2785                	addw	a5,a5,1
    8000719c:	0305453b          	divw	a0,a0,a6
    800071a0:	0306869b          	addw	a3,a3,48
    800071a4:	00d70023          	sb	a3,0(a4)
    800071a8:	f17d                	bnez	a0,8000718e <int_to_string+0x6>
    800071aa:	02c7f663          	bgeu	a5,a2,800071d6 <int_to_string+0x4e>
    800071ae:	873e                	mv	a4,a5
    800071b0:	03000513          	li	a0,48
    800071b4:	02071693          	sll	a3,a4,0x20
    800071b8:	9281                	srl	a3,a3,0x20
    800071ba:	96ae                	add	a3,a3,a1
    800071bc:	00a68023          	sb	a0,0(a3)
    800071c0:	2705                	addw	a4,a4,1
    800071c2:	fec769e3          	bltu	a4,a2,800071b4 <int_to_string+0x2c>
    800071c6:	0017851b          	addw	a0,a5,1
    800071ca:	872a                	mv	a4,a0
    800071cc:	4681                	li	a3,0
    800071ce:	04a67463          	bgeu	a2,a0,80007216 <int_to_string+0x8e>
    800071d2:	00e687bb          	addw	a5,a3,a4
    800071d6:	02079313          	sll	t1,a5,0x20
    800071da:	02035313          	srl	t1,t1,0x20
    800071de:	fff7869b          	addw	a3,a5,-1
    800071e2:	0007851b          	sext.w	a0,a5
    800071e6:	932e                	add	t1,t1,a1
    800071e8:	02d05463          	blez	a3,80007210 <int_to_string+0x88>
    800071ec:	96ae                	add	a3,a3,a1
    800071ee:	4601                	li	a2,0
    800071f0:	37fd                	addw	a5,a5,-1
    800071f2:	0006c883          	lbu	a7,0(a3)
    800071f6:	0005c803          	lbu	a6,0(a1)
    800071fa:	2605                	addw	a2,a2,1
    800071fc:	01158023          	sb	a7,0(a1)
    80007200:	01068023          	sb	a6,0(a3)
    80007204:	40c7873b          	subw	a4,a5,a2
    80007208:	0585                	add	a1,a1,1
    8000720a:	16fd                	add	a3,a3,-1
    8000720c:	fee643e3          	blt	a2,a4,800071f2 <int_to_string+0x6a>
    80007210:	00030023          	sb	zero,0(t1)
    80007214:	8082                	ret
    80007216:	367d                	addw	a2,a2,-1
    80007218:	40f606bb          	subw	a3,a2,a5
    8000721c:	bf5d                	j	800071d2 <int_to_string+0x4a>
    8000721e:	832e                	mv	t1,a1
    80007220:	4501                	li	a0,0
    80007222:	f651                	bnez	a2,800071ae <int_to_string+0x26>
    80007224:	b7f5                	j	80007210 <int_to_string+0x88>

0000000080007226 <ftoa>:
ftoa():
    80007226:	711d                	add	sp,sp,-96
    80007228:	b422                	fsd	fs0,40(sp)
    8000722a:	42050453          	fcvt.d.s	fs0,fa0
    8000722e:	00002797          	auipc	a5,0x2
    80007232:	fe27b787          	fld	fa5,-30(a5) # 80009210 <mem_name+0x40>
    80007236:	fc4e                	sd	s3,56(sp)
    80007238:	02f47453          	fadd.d	fs0,fs0,fa5
    8000723c:	f00007d3          	fmv.w.x	fa5,zero
    80007240:	e8a2                	sd	s0,80(sp)
    80007242:	e4a6                	sd	s1,72(sp)
    80007244:	e0ca                	sd	s2,64(sp)
    80007246:	f852                	sd	s4,48(sp)
    80007248:	ec86                	sd	ra,88(sp)
    8000724a:	40147453          	fcvt.s.d	fs0,fs0
    8000724e:	e002                	sd	zero,0(sp)
    80007250:	e402                	sd	zero,8(sp)
    80007252:	c00419d3          	fcvt.w.s	s3,fs0,rtz
    80007256:	a0f41753          	flt.s	a4,fs0,fa5
    8000725a:	e802                	sd	zero,16(sp)
    8000725c:	cc02                	sw	zero,24(sp)
    8000725e:	00011e23          	sh	zero,28(sp)
    80007262:	8a2a                	mv	s4,a0
    80007264:	84ae                	mv	s1,a1
    80007266:	0009879b          	sext.w	a5,s3
    8000726a:	842a                	mv	s0,a0
    8000726c:	4901                	li	s2,0
    8000726e:	ef35                	bnez	a4,800072ea <ftoa+0xc4>
    80007270:	e7c9                	bnez	a5,800072fa <ftoa+0xd4>
    80007272:	03000793          	li	a5,48
    80007276:	00f40023          	sb	a5,0(s0)
    8000727a:	00190593          	add	a1,s2,1
    8000727e:	cca9                	beqz	s1,800072d8 <ftoa+0xb2>
    80007280:	d009f7d3          	fcvt.s.w	fa5,s3
    80007284:	f00006d3          	fmv.w.x	fa3,zero
    80007288:	00ba07b3          	add	a5,s4,a1
    8000728c:	08f47753          	fsub.s	fa4,fs0,fa5
    80007290:	02e00713          	li	a4,46
    80007294:	00e78023          	sb	a4,0(a5)
    80007298:	a0d717d3          	flt.s	a5,fa4,fa3
    8000729c:	e3d9                	bnez	a5,80007322 <ftoa+0xfc>
    8000729e:	4681                	li	a3,0
    800072a0:	4705                	li	a4,1
    800072a2:	0027179b          	sllw	a5,a4,0x2
    800072a6:	9fb9                	addw	a5,a5,a4
    800072a8:	2685                	addw	a3,a3,1
    800072aa:	0017971b          	sllw	a4,a5,0x1
    800072ae:	fed49ae3          	bne	s1,a3,800072a2 <ftoa+0x7c>
    800072b2:	d01777d3          	fcvt.s.wu	fa5,a4
    800072b6:	6446                	ld	s0,80(sp)
    800072b8:	0585                	add	a1,a1,1
    800072ba:	10e7f7d3          	fmul.s	fa5,fa5,fa4
    800072be:	60e6                	ld	ra,88(sp)
    800072c0:	6906                	ld	s2,64(sp)
    800072c2:	79e2                	ld	s3,56(sp)
    800072c4:	3422                	fld	fs0,40(sp)
    800072c6:	c0079553          	fcvt.w.s	a0,fa5,rtz
    800072ca:	8626                	mv	a2,s1
    800072cc:	95d2                	add	a1,a1,s4
    800072ce:	64a6                	ld	s1,72(sp)
    800072d0:	7a42                	ld	s4,48(sp)
    800072d2:	2501                	sext.w	a0,a0
    800072d4:	6125                	add	sp,sp,96
    800072d6:	bd4d                	j	80007188 <int_to_string>
    800072d8:	60e6                	ld	ra,88(sp)
    800072da:	6446                	ld	s0,80(sp)
    800072dc:	64a6                	ld	s1,72(sp)
    800072de:	6906                	ld	s2,64(sp)
    800072e0:	79e2                	ld	s3,56(sp)
    800072e2:	7a42                	ld	s4,48(sp)
    800072e4:	3422                	fld	fs0,40(sp)
    800072e6:	6125                	add	sp,sp,96
    800072e8:	8082                	ret
    800072ea:	02d00713          	li	a4,45
    800072ee:	00e50023          	sb	a4,0(a0)
    800072f2:	00150413          	add	s0,a0,1
    800072f6:	4905                	li	s2,1
    800072f8:	dfad                	beqz	a5,80007272 <ftoa+0x4c>
    800072fa:	41f9d51b          	sraw	a0,s3,0x1f
    800072fe:	8fa9                	xor	a5,a5,a0
    80007300:	40a7853b          	subw	a0,a5,a0
    80007304:	4601                	li	a2,0
    80007306:	858a                	mv	a1,sp
    80007308:	e81ff0ef          	jal	80007188 <int_to_string>
    8000730c:	878a                	mv	a5,sp
    8000730e:	0007c703          	lbu	a4,0(a5)
    80007312:	0405                	add	s0,s0,1
    80007314:	0785                	add	a5,a5,1
    80007316:	fee40fa3          	sb	a4,-1(s0)
    8000731a:	fb75                	bnez	a4,8000730e <ftoa+0xe8>
    8000731c:	00a905bb          	addw	a1,s2,a0
    80007320:	bfb9                	j	8000727e <ftoa+0x58>
    80007322:	0887f753          	fsub.s	fa4,fa5,fs0
    80007326:	bfa5                	j	8000729e <ftoa+0x78>

0000000080007328 <vprintfmt>:
vprintfmt():
    80007328:	7165                	add	sp,sp,-400
    8000732a:	e322                	sd	s0,384(sp)
    8000732c:	faca                	sd	s2,368(sp)
    8000732e:	f6ce                	sd	s3,360(sp)
    80007330:	f2d2                	sd	s4,352(sp)
    80007332:	eed6                	sd	s5,344(sp)
    80007334:	eada                	sd	s6,336(sp)
    80007336:	e6de                	sd	s7,328(sp)
    80007338:	e706                	sd	ra,392(sp)
    8000733a:	fea6                	sd	s1,376(sp)
    8000733c:	e2e2                	sd	s8,320(sp)
    8000733e:	fe66                	sd	s9,312(sp)
    80007340:	fa6a                	sd	s10,304(sp)
    80007342:	f66e                	sd	s11,296(sp)
    80007344:	89aa                	mv	s3,a0
    80007346:	892e                	mv	s2,a1
    80007348:	8432                	mv	s0,a2
    8000734a:	8ab6                	mv	s5,a3
    8000734c:	e002                	sd	zero,0(sp)
    8000734e:	e402                	sd	zero,8(sp)
    80007350:	e802                	sd	zero,16(sp)
    80007352:	cc02                	sw	zero,24(sp)
    80007354:	00011e23          	sh	zero,28(sp)
    80007358:	02500a13          	li	s4,37
    8000735c:	05500b93          	li	s7,85
    80007360:	00001b17          	auipc	s6,0x1
    80007364:	088b0b13          	add	s6,s6,136 # 800083e8 <errpat+0x20>
    80007368:	00044503          	lbu	a0,0(s0)
    8000736c:	01450a63          	beq	a0,s4,80007380 <vprintfmt+0x58>
    80007370:	cd1d                	beqz	a0,800073ae <vprintfmt+0x86>
    80007372:	85ca                	mv	a1,s2
    80007374:	0405                	add	s0,s0,1
    80007376:	9982                	jalr	s3
    80007378:	00044503          	lbu	a0,0(s0)
    8000737c:	ff451ae3          	bne	a0,s4,80007370 <vprintfmt+0x48>
    80007380:	00144683          	lbu	a3,1(s0)
    80007384:	00140493          	add	s1,s0,1
    80007388:	8726                	mv	a4,s1
    8000738a:	02000c93          	li	s9,32
    8000738e:	5c7d                	li	s8,-1
    80007390:	5dfd                	li	s11,-1
    80007392:	4601                	li	a2,0
    80007394:	fdd6879b          	addw	a5,a3,-35
    80007398:	0ff7f793          	zext.b	a5,a5
    8000739c:	00170413          	add	s0,a4,1
    800073a0:	04fbe263          	bltu	s7,a5,800073e4 <vprintfmt+0xbc>
    800073a4:	078a                	sll	a5,a5,0x2
    800073a6:	97da                	add	a5,a5,s6
    800073a8:	439c                	lw	a5,0(a5)
    800073aa:	97da                	add	a5,a5,s6
    800073ac:	8782                	jr	a5
    800073ae:	60ba                	ld	ra,392(sp)
    800073b0:	641a                	ld	s0,384(sp)
    800073b2:	74f6                	ld	s1,376(sp)
    800073b4:	7956                	ld	s2,368(sp)
    800073b6:	79b6                	ld	s3,360(sp)
    800073b8:	7a16                	ld	s4,352(sp)
    800073ba:	6af6                	ld	s5,344(sp)
    800073bc:	6b56                	ld	s6,336(sp)
    800073be:	6bb6                	ld	s7,328(sp)
    800073c0:	6c16                	ld	s8,320(sp)
    800073c2:	7cf2                	ld	s9,312(sp)
    800073c4:	7d52                	ld	s10,304(sp)
    800073c6:	7db2                	ld	s11,296(sp)
    800073c8:	6159                	add	sp,sp,400
    800073ca:	8082                	ret
    800073cc:	8cb6                	mv	s9,a3
    800073ce:	00174683          	lbu	a3,1(a4)
    800073d2:	8722                	mv	a4,s0
    800073d4:	00170413          	add	s0,a4,1
    800073d8:	fdd6879b          	addw	a5,a3,-35
    800073dc:	0ff7f793          	zext.b	a5,a5
    800073e0:	fcfbf2e3          	bgeu	s7,a5,800073a4 <vprintfmt+0x7c>
    800073e4:	85ca                	mv	a1,s2
    800073e6:	02500513          	li	a0,37
    800073ea:	9982                	jalr	s3
    800073ec:	8426                	mv	s0,s1
    800073ee:	bfad                	j	80007368 <vprintfmt+0x40>
    800073f0:	fd068c1b          	addw	s8,a3,-48
    800073f4:	00174683          	lbu	a3,1(a4)
    800073f8:	47a5                	li	a5,9
    800073fa:	fd06871b          	addw	a4,a3,-48
    800073fe:	0006859b          	sext.w	a1,a3
    80007402:	22e7ed63          	bltu	a5,a4,8000763c <vprintfmt+0x314>
    80007406:	8722                	mv	a4,s0
    80007408:	4825                	li	a6,9
    8000740a:	00174683          	lbu	a3,1(a4)
    8000740e:	002c179b          	sllw	a5,s8,0x2
    80007412:	018787bb          	addw	a5,a5,s8
    80007416:	0017979b          	sllw	a5,a5,0x1
    8000741a:	9fad                	addw	a5,a5,a1
    8000741c:	fd06851b          	addw	a0,a3,-48
    80007420:	0705                	add	a4,a4,1
    80007422:	fd078c1b          	addw	s8,a5,-48
    80007426:	0006859b          	sext.w	a1,a3
    8000742a:	fea870e3          	bgeu	a6,a0,8000740a <vprintfmt+0xe2>
    8000742e:	f60dd3e3          	bgez	s11,80007394 <vprintfmt+0x6c>
    80007432:	8de2                	mv	s11,s8
    80007434:	5c7d                	li	s8,-1
    80007436:	bfb9                	j	80007394 <vprintfmt+0x6c>
    80007438:	fffdc793          	not	a5,s11
    8000743c:	97fd                	sra	a5,a5,0x3f
    8000743e:	00fdf7b3          	and	a5,s11,a5
    80007442:	00174683          	lbu	a3,1(a4)
    80007446:	00078d9b          	sext.w	s11,a5
    8000744a:	8722                	mv	a4,s0
    8000744c:	b7a1                	j	80007394 <vprintfmt+0x6c>
    8000744e:	00174683          	lbu	a3,1(a4)
    80007452:	8722                	mv	a4,s0
    80007454:	b781                	j	80007394 <vprintfmt+0x6c>
    80007456:	85ca                	mv	a1,s2
    80007458:	02500513          	li	a0,37
    8000745c:	9982                	jalr	s3
    8000745e:	b729                	j	80007368 <vprintfmt+0x40>
    80007460:	000aac03          	lw	s8,0(s5)
    80007464:	00174683          	lbu	a3,1(a4)
    80007468:	0aa1                	add	s5,s5,8
    8000746a:	8722                	mv	a4,s0
    8000746c:	b7c9                	j	8000742e <vprintfmt+0x106>
    8000746e:	46c1                	li	a3,16
    80007470:	4785                	li	a5,1
    80007472:	008a8713          	add	a4,s5,8
    80007476:	0cc7c763          	blt	a5,a2,80007544 <vprintfmt+0x21c>
    8000747a:	e669                	bnez	a2,80007544 <vprintfmt+0x21c>
    8000747c:	000ae783          	lwu	a5,0(s5)
    80007480:	8aba                	mv	s5,a4
    80007482:	02d7f5b3          	remu	a1,a5,a3
    80007486:	000c849b          	sext.w	s1,s9
    8000748a:	1050                	add	a2,sp,36
    8000748c:	4705                	li	a4,1
    8000748e:	d02e                	sw	a1,32(sp)
    80007490:	12d7e363          	bltu	a5,a3,800075b6 <vprintfmt+0x28e>
    80007494:	02d7d7b3          	divu	a5,a5,a3
    80007498:	0611                	add	a2,a2,4
    8000749a:	8c3a                	mv	s8,a4
    8000749c:	2705                	addw	a4,a4,1
    8000749e:	02d7f5b3          	remu	a1,a5,a3
    800074a2:	feb62e23          	sw	a1,-4(a2)
    800074a6:	fed7f7e3          	bgeu	a5,a3,80007494 <vprintfmt+0x16c>
    800074aa:	fffd8c9b          	addw	s9,s11,-1
    800074ae:	fff70d1b          	addw	s10,a4,-1
    800074b2:	01b75863          	bge	a4,s11,800074c2 <vprintfmt+0x19a>
    800074b6:	3cfd                	addw	s9,s9,-1
    800074b8:	85ca                	mv	a1,s2
    800074ba:	8526                	mv	a0,s1
    800074bc:	9982                	jalr	s3
    800074be:	ffac9ce3          	bne	s9,s10,800074b6 <vprintfmt+0x18e>
    800074c2:	0c0a                	sll	s8,s8,0x2
    800074c4:	101c                	add	a5,sp,32
    800074c6:	018784b3          	add	s1,a5,s8
    800074ca:	01c10c93          	add	s9,sp,28
    800074ce:	4c25                	li	s8,9
    800074d0:	409c                	lw	a5,0(s1)
    800074d2:	05700513          	li	a0,87
    800074d6:	00fc6463          	bltu	s8,a5,800074de <vprintfmt+0x1b6>
    800074da:	03000513          	li	a0,48
    800074de:	14f1                	add	s1,s1,-4
    800074e0:	85ca                	mv	a1,s2
    800074e2:	9d3d                	addw	a0,a0,a5
    800074e4:	9982                	jalr	s3
    800074e6:	fe9c95e3          	bne	s9,s1,800074d0 <vprintfmt+0x1a8>
    800074ea:	bdbd                	j	80007368 <vprintfmt+0x40>
    800074ec:	000ab507          	fld	fa0,0(s5)
    800074f0:	850a                	mv	a0,sp
    800074f2:	4599                	li	a1,6
    800074f4:	40157553          	fcvt.s.d	fa0,fa0
    800074f8:	0aa1                	add	s5,s5,8
    800074fa:	d2dff0ef          	jal	80007226 <ftoa>
    800074fe:	00014503          	lbu	a0,0(sp)
    80007502:	e60503e3          	beqz	a0,80007368 <vprintfmt+0x40>
    80007506:	00110493          	add	s1,sp,1
    8000750a:	85ca                	mv	a1,s2
    8000750c:	0485                	add	s1,s1,1
    8000750e:	9982                	jalr	s3
    80007510:	fff4c503          	lbu	a0,-1(s1)
    80007514:	f97d                	bnez	a0,8000750a <vprintfmt+0x1e2>
    80007516:	bd89                	j	80007368 <vprintfmt+0x40>
    80007518:	00174683          	lbu	a3,1(a4)
    8000751c:	2605                	addw	a2,a2,1
    8000751e:	8722                	mv	a4,s0
    80007520:	bd95                	j	80007394 <vprintfmt+0x6c>
    80007522:	000aa503          	lw	a0,0(s5)
    80007526:	85ca                	mv	a1,s2
    80007528:	0aa1                	add	s5,s5,8
    8000752a:	9982                	jalr	s3
    8000752c:	bd35                	j	80007368 <vprintfmt+0x40>
    8000752e:	03000513          	li	a0,48
    80007532:	85ca                	mv	a1,s2
    80007534:	9982                	jalr	s3
    80007536:	85ca                	mv	a1,s2
    80007538:	07800513          	li	a0,120
    8000753c:	9982                	jalr	s3
    8000753e:	46c1                	li	a3,16
    80007540:	008a8713          	add	a4,s5,8
    80007544:	000ab783          	ld	a5,0(s5)
    80007548:	8aba                	mv	s5,a4
    8000754a:	bf25                	j	80007482 <vprintfmt+0x15a>
    8000754c:	000abd03          	ld	s10,0(s5)
    80007550:	0aa1                	add	s5,s5,8
    80007552:	060d0463          	beqz	s10,800075ba <vprintfmt+0x292>
    80007556:	0bb05f63          	blez	s11,80007614 <vprintfmt+0x2ec>
    8000755a:	02d00793          	li	a5,45
    8000755e:	08fc9063          	bne	s9,a5,800075de <vprintfmt+0x2b6>
    80007562:	000d4503          	lbu	a0,0(s10)
    80007566:	c105                	beqz	a0,80007586 <vprintfmt+0x25e>
    80007568:	54fd                	li	s1,-1
    8000756a:	000c4563          	bltz	s8,80007574 <vprintfmt+0x24c>
    8000756e:	3c7d                	addw	s8,s8,-1
    80007570:	009c0963          	beq	s8,s1,80007582 <vprintfmt+0x25a>
    80007574:	85ca                	mv	a1,s2
    80007576:	0d05                	add	s10,s10,1
    80007578:	9982                	jalr	s3
    8000757a:	000d4503          	lbu	a0,0(s10)
    8000757e:	3dfd                	addw	s11,s11,-1
    80007580:	f56d                	bnez	a0,8000756a <vprintfmt+0x242>
    80007582:	dfb053e3          	blez	s11,80007368 <vprintfmt+0x40>
    80007586:	3dfd                	addw	s11,s11,-1
    80007588:	85ca                	mv	a1,s2
    8000758a:	02000513          	li	a0,32
    8000758e:	9982                	jalr	s3
    80007590:	fe0d9be3          	bnez	s11,80007586 <vprintfmt+0x25e>
    80007594:	bbd1                	j	80007368 <vprintfmt+0x40>
    80007596:	4785                	li	a5,1
    80007598:	008a8c13          	add	s8,s5,8
    8000759c:	00c7c363          	blt	a5,a2,800075a2 <vprintfmt+0x27a>
    800075a0:	ca49                	beqz	a2,80007632 <vprintfmt+0x30a>
    800075a2:	000ab483          	ld	s1,0(s5)
    800075a6:	0604cd63          	bltz	s1,80007620 <vprintfmt+0x2f8>
    800075aa:	87a6                	mv	a5,s1
    800075ac:	8ae2                	mv	s5,s8
    800075ae:	46a9                	li	a3,10
    800075b0:	bdc9                	j	80007482 <vprintfmt+0x15a>
    800075b2:	46a9                	li	a3,10
    800075b4:	bd75                	j	80007470 <vprintfmt+0x148>
    800075b6:	4c01                	li	s8,0
    800075b8:	bdcd                	j	800074aa <vprintfmt+0x182>
    800075ba:	00002d17          	auipc	s10,0x2
    800075be:	bc6d0d13          	add	s10,s10,-1082 # 80009180 <errpat+0xdb8>
    800075c2:	02800513          	li	a0,40
    800075c6:	fbb051e3          	blez	s11,80007568 <vprintfmt+0x240>
    800075ca:	02d00793          	li	a5,45
    800075ce:	00002d17          	auipc	s10,0x2
    800075d2:	bb2d0d13          	add	s10,s10,-1102 # 80009180 <errpat+0xdb8>
    800075d6:	02800513          	li	a0,40
    800075da:	f8fc87e3          	beq	s9,a5,80007568 <vprintfmt+0x240>
    800075de:	000d861b          	sext.w	a2,s11
    800075e2:	87ea                	mv	a5,s10
    800075e4:	018d06b3          	add	a3,s10,s8
    800075e8:	000c1663          	bnez	s8,800075f4 <vprintfmt+0x2cc>
    800075ec:	a829                	j	80007606 <vprintfmt+0x2de>
    800075ee:	0785                	add	a5,a5,1
    800075f0:	00d78563          	beq	a5,a3,800075fa <vprintfmt+0x2d2>
    800075f4:	0007c703          	lbu	a4,0(a5)
    800075f8:	fb7d                	bnez	a4,800075ee <vprintfmt+0x2c6>
    800075fa:	41a787b3          	sub	a5,a5,s10
    800075fe:	40f60dbb          	subw	s11,a2,a5
    80007602:	01b05963          	blez	s11,80007614 <vprintfmt+0x2ec>
    80007606:	2c81                	sext.w	s9,s9
    80007608:	3dfd                	addw	s11,s11,-1
    8000760a:	85ca                	mv	a1,s2
    8000760c:	8566                	mv	a0,s9
    8000760e:	9982                	jalr	s3
    80007610:	fe0d9ce3          	bnez	s11,80007608 <vprintfmt+0x2e0>
    80007614:	000d4503          	lbu	a0,0(s10)
    80007618:	d40508e3          	beqz	a0,80007368 <vprintfmt+0x40>
    8000761c:	54fd                	li	s1,-1
    8000761e:	b7b1                	j	8000756a <vprintfmt+0x242>
    80007620:	85ca                	mv	a1,s2
    80007622:	02d00513          	li	a0,45
    80007626:	9982                	jalr	s3
    80007628:	8ae2                	mv	s5,s8
    8000762a:	409007b3          	neg	a5,s1
    8000762e:	46a9                	li	a3,10
    80007630:	bd89                	j	80007482 <vprintfmt+0x15a>
    80007632:	000aa483          	lw	s1,0(s5)
    80007636:	bf85                	j	800075a6 <vprintfmt+0x27e>
    80007638:	46a1                	li	a3,8
    8000763a:	bd1d                	j	80007470 <vprintfmt+0x148>
    8000763c:	8722                	mv	a4,s0
    8000763e:	bbc5                	j	8000742e <vprintfmt+0x106>

0000000080007640 <printf>:
printf():
    80007640:	711d                	add	sp,sp,-96
    80007642:	02810313          	add	t1,sp,40
    80007646:	8e2a                	mv	t3,a0
    80007648:	f42e                	sd	a1,40(sp)
    8000764a:	f832                	sd	a2,48(sp)
    8000764c:	fc36                	sd	a3,56(sp)
    8000764e:	00000517          	auipc	a0,0x0
    80007652:	9b250513          	add	a0,a0,-1614 # 80007000 <putchar>
    80007656:	869a                	mv	a3,t1
    80007658:	8672                	mv	a2,t3
    8000765a:	4581                	li	a1,0
    8000765c:	ec06                	sd	ra,24(sp)
    8000765e:	e0ba                	sd	a4,64(sp)
    80007660:	e4be                	sd	a5,72(sp)
    80007662:	e8c2                	sd	a6,80(sp)
    80007664:	ecc6                	sd	a7,88(sp)
    80007666:	e41a                	sd	t1,8(sp)
    80007668:	cc1ff0ef          	jal	80007328 <vprintfmt>
    8000766c:	60e2                	ld	ra,24(sp)
    8000766e:	4501                	li	a0,0
    80007670:	6125                	add	sp,sp,96
    80007672:	8082                	ret

0000000080007674 <handle_trap>:
handle_trap():
    80007674:	1141                	add	sp,sp,-16
    80007676:	862e                	mv	a2,a1
    80007678:	85aa                	mv	a1,a0
    8000767a:	00002517          	auipc	a0,0x2
    8000767e:	b0e50513          	add	a0,a0,-1266 # 80009188 <errpat+0xdc0>
    80007682:	e406                	sd	ra,8(sp)
    80007684:	fbdff0ef          	jal	80007640 <printf>
    80007688:	9afff0ef          	jal	80007036 <exit>

000000008000768c <_init>:
_init():
    8000768c:	1101                	add	sp,sp,-32
    8000768e:	4581                	li	a1,0
    80007690:	4501                	li	a0,0
    80007692:	e822                	sd	s0,16(sp)
    80007694:	e426                	sd	s1,8(sp)
    80007696:	ec06                	sd	ra,24(sp)
    80007698:	86818493          	add	s1,gp,-1944 # 80009250 <counters>
    8000769c:	1e6000ef          	jal	80007882 <main>
    800076a0:	6090                	ld	a2,0(s1)
    800076a2:	842a                	mv	s0,a0
    800076a4:	e611                	bnez	a2,800076b0 <_init+0x24>
    800076a6:	6490                	ld	a2,8(s1)
    800076a8:	ee01                	bnez	a2,800076c0 <_init+0x34>
    800076aa:	8522                	mv	a0,s0
    800076ac:	98bff0ef          	jal	80007036 <exit>
    800076b0:	688c                	ld	a1,16(s1)
    800076b2:	00002517          	auipc	a0,0x2
    800076b6:	b0e50513          	add	a0,a0,-1266 # 800091c0 <errpat+0xdf8>
    800076ba:	f87ff0ef          	jal	80007640 <printf>
    800076be:	b7e5                	j	800076a6 <_init+0x1a>
    800076c0:	6c8c                	ld	a1,24(s1)
    800076c2:	00002517          	auipc	a0,0x2
    800076c6:	afe50513          	add	a0,a0,-1282 # 800091c0 <errpat+0xdf8>
    800076ca:	f77ff0ef          	jal	80007640 <printf>
    800076ce:	bff1                	j	800076aa <_init+0x1e>

00000000800076d0 <sprintf>:
sprintf():
    800076d0:	711d                	add	sp,sp,-96
    800076d2:	03010313          	add	t1,sp,48
    800076d6:	f022                	sd	s0,32(sp)
    800076d8:	e42a                	sd	a0,8(sp)
    800076da:	f832                	sd	a2,48(sp)
    800076dc:	fc36                	sd	a3,56(sp)
    800076de:	842a                	mv	s0,a0
    800076e0:	862e                	mv	a2,a1
    800076e2:	00000517          	auipc	a0,0x0
    800076e6:	93450513          	add	a0,a0,-1740 # 80007016 <sprintf_putch.0>
    800076ea:	002c                	add	a1,sp,8
    800076ec:	869a                	mv	a3,t1
    800076ee:	f406                	sd	ra,40(sp)
    800076f0:	e4be                	sd	a5,72(sp)
    800076f2:	e0ba                	sd	a4,64(sp)
    800076f4:	e8c2                	sd	a6,80(sp)
    800076f6:	ecc6                	sd	a7,88(sp)
    800076f8:	ec1a                	sd	t1,24(sp)
    800076fa:	c2fff0ef          	jal	80007328 <vprintfmt>
    800076fe:	67a2                	ld	a5,8(sp)
    80007700:	00078023          	sb	zero,0(a5)
    80007704:	6522                	ld	a0,8(sp)
    80007706:	70a2                	ld	ra,40(sp)
    80007708:	9d01                	subw	a0,a0,s0
    8000770a:	7402                	ld	s0,32(sp)
    8000770c:	6125                	add	sp,sp,96
    8000770e:	8082                	ret

0000000080007710 <memcpy>:
memcpy():
    80007710:	00b567b3          	or	a5,a0,a1
    80007714:	8fd1                	or	a5,a5,a2
    80007716:	8b9d                	and	a5,a5,7
    80007718:	00c506b3          	add	a3,a0,a2
    8000771c:	cf91                	beqz	a5,80007738 <memcpy+0x28>
    8000771e:	962e                	add	a2,a2,a1
    80007720:	87aa                	mv	a5,a0
    80007722:	02d57663          	bgeu	a0,a3,8000774e <memcpy+0x3e>
    80007726:	0005c703          	lbu	a4,0(a1)
    8000772a:	0585                	add	a1,a1,1
    8000772c:	0785                	add	a5,a5,1
    8000772e:	fee78fa3          	sb	a4,-1(a5)
    80007732:	fec59ae3          	bne	a1,a2,80007726 <memcpy+0x16>
    80007736:	8082                	ret
    80007738:	fed57fe3          	bgeu	a0,a3,80007736 <memcpy+0x26>
    8000773c:	87aa                	mv	a5,a0
    8000773e:	6198                	ld	a4,0(a1)
    80007740:	07a1                	add	a5,a5,8
    80007742:	05a1                	add	a1,a1,8
    80007744:	fee7bc23          	sd	a4,-8(a5)
    80007748:	fed7ebe3          	bltu	a5,a3,8000773e <memcpy+0x2e>
    8000774c:	8082                	ret
    8000774e:	8082                	ret

0000000080007750 <memset>:
memset():
    80007750:	1141                	add	sp,sp,-16
    80007752:	00c567b3          	or	a5,a0,a2
    80007756:	e022                	sd	s0,0(sp)
    80007758:	e406                	sd	ra,8(sp)
    8000775a:	8b9d                	and	a5,a5,7
    8000775c:	842a                	mv	s0,a0
    8000775e:	00c50733          	add	a4,a0,a2
    80007762:	cf81                	beqz	a5,8000777a <memset+0x2a>
    80007764:	00e57663          	bgeu	a0,a4,80007770 <memset+0x20>
    80007768:	0ff5f593          	zext.b	a1,a1
    8000776c:	fe5ff0ef          	jal	80007750 <memset>
    80007770:	60a2                	ld	ra,8(sp)
    80007772:	8522                	mv	a0,s0
    80007774:	6402                	ld	s0,0(sp)
    80007776:	0141                	add	sp,sp,16
    80007778:	8082                	ret
    8000777a:	0ff5f593          	zext.b	a1,a1
    8000777e:	00002797          	auipc	a5,0x2
    80007782:	a9a7b783          	ld	a5,-1382(a5) # 80009218 <mem_name+0x48>
    80007786:	02f585b3          	mul	a1,a1,a5
    8000778a:	fee573e3          	bgeu	a0,a4,80007770 <memset+0x20>
    8000778e:	87aa                	mv	a5,a0
    80007790:	07a1                	add	a5,a5,8
    80007792:	feb7bc23          	sd	a1,-8(a5)
    80007796:	fee7ede3          	bltu	a5,a4,80007790 <memset+0x40>
    8000779a:	60a2                	ld	ra,8(sp)
    8000779c:	8522                	mv	a0,s0
    8000779e:	6402                	ld	s0,0(sp)
    800077a0:	0141                	add	sp,sp,16
    800077a2:	8082                	ret

00000000800077a4 <strlen>:
strlen():
    800077a4:	00054783          	lbu	a5,0(a0)
    800077a8:	cb89                	beqz	a5,800077ba <strlen+0x16>
    800077aa:	87aa                	mv	a5,a0
    800077ac:	0017c703          	lbu	a4,1(a5)
    800077b0:	0785                	add	a5,a5,1
    800077b2:	ff6d                	bnez	a4,800077ac <strlen+0x8>
    800077b4:	40a78533          	sub	a0,a5,a0
    800077b8:	8082                	ret
    800077ba:	4501                	li	a0,0
    800077bc:	8082                	ret

00000000800077be <strnlen>:
strnlen():
    800077be:	00b506b3          	add	a3,a0,a1
    800077c2:	87aa                	mv	a5,a0
    800077c4:	e589                	bnez	a1,800077ce <strnlen+0x10>
    800077c6:	a829                	j	800077e0 <strnlen+0x22>
    800077c8:	0785                	add	a5,a5,1
    800077ca:	00f68863          	beq	a3,a5,800077da <strnlen+0x1c>
    800077ce:	0007c703          	lbu	a4,0(a5)
    800077d2:	fb7d                	bnez	a4,800077c8 <strnlen+0xa>
    800077d4:	40a78533          	sub	a0,a5,a0
    800077d8:	8082                	ret
    800077da:	40a68533          	sub	a0,a3,a0
    800077de:	8082                	ret
    800077e0:	4501                	li	a0,0
    800077e2:	8082                	ret

00000000800077e4 <strcmp>:
strcmp():
    800077e4:	0005c783          	lbu	a5,0(a1)
    800077e8:	00054703          	lbu	a4,0(a0)
    800077ec:	0585                	add	a1,a1,1
    800077ee:	0505                	add	a0,a0,1
    800077f0:	00f71663          	bne	a4,a5,800077fc <strcmp+0x18>
    800077f4:	fbe5                	bnez	a5,800077e4 <strcmp>
    800077f6:	4501                	li	a0,0
    800077f8:	9d1d                	subw	a0,a0,a5
    800077fa:	8082                	ret
    800077fc:	0007051b          	sext.w	a0,a4
    80007800:	bfe5                	j	800077f8 <strcmp+0x14>

0000000080007802 <strcpy>:
strcpy():
    80007802:	87aa                	mv	a5,a0
    80007804:	0005c703          	lbu	a4,0(a1)
    80007808:	0785                	add	a5,a5,1
    8000780a:	0585                	add	a1,a1,1
    8000780c:	fee78fa3          	sb	a4,-1(a5)
    80007810:	fb75                	bnez	a4,80007804 <strcpy+0x2>
    80007812:	8082                	ret

0000000080007814 <atol>:
atol():
    80007814:	00054703          	lbu	a4,0(a0)
    80007818:	02000693          	li	a3,32
    8000781c:	87aa                	mv	a5,a0
    8000781e:	00d71763          	bne	a4,a3,8000782c <atol+0x18>
    80007822:	0017c703          	lbu	a4,1(a5)
    80007826:	0785                	add	a5,a5,1
    80007828:	fed70de3          	beq	a4,a3,80007822 <atol+0xe>
    8000782c:	02d00693          	li	a3,45
    80007830:	04d70263          	beq	a4,a3,80007874 <atol+0x60>
    80007834:	02b00693          	li	a3,43
    80007838:	02d70763          	beq	a4,a3,80007866 <atol+0x52>
    8000783c:	0007c683          	lbu	a3,0(a5)
    80007840:	4581                	li	a1,0
    80007842:	c69d                	beqz	a3,80007870 <atol+0x5c>
    80007844:	4501                	li	a0,0
    80007846:	0785                	add	a5,a5,1
    80007848:	00251713          	sll	a4,a0,0x2
    8000784c:	fd06861b          	addw	a2,a3,-48
    80007850:	0007c683          	lbu	a3,0(a5)
    80007854:	972a                	add	a4,a4,a0
    80007856:	0706                	sll	a4,a4,0x1
    80007858:	00e60533          	add	a0,a2,a4
    8000785c:	f6ed                	bnez	a3,80007846 <atol+0x32>
    8000785e:	c991                	beqz	a1,80007872 <atol+0x5e>
    80007860:	40a00533          	neg	a0,a0
    80007864:	8082                	ret
    80007866:	0017c683          	lbu	a3,1(a5)
    8000786a:	4581                	li	a1,0
    8000786c:	0785                	add	a5,a5,1
    8000786e:	faf9                	bnez	a3,80007844 <atol+0x30>
    80007870:	4501                	li	a0,0
    80007872:	8082                	ret
    80007874:	0017c683          	lbu	a3,1(a5)
    80007878:	4585                	li	a1,1
    8000787a:	0785                	add	a5,a5,1
    8000787c:	f6e1                	bnez	a3,80007844 <atol+0x30>
    8000787e:	4501                	li	a0,0
    80007880:	bfcd                	j	80007872 <atol+0x5e>

Disassembly of section .text.startup:

0000000080007882 <main>:
main():
    80007882:	716d                	add	sp,sp,-272
    80007884:	e606                	sd	ra,264(sp)
    80007886:	e222                	sd	s0,256(sp)
    80007888:	fda6                	sd	s1,248(sp)
    8000788a:	f9ca                	sd	s2,240(sp)
    8000788c:	f5ce                	sd	s3,232(sp)
    8000788e:	f1d2                	sd	s4,224(sp)
    80007890:	edd6                	sd	s5,216(sp)
    80007892:	e9da                	sd	s6,208(sp)
    80007894:	e5de                	sd	s7,200(sp)
    80007896:	e1e2                	sd	s8,192(sp)
    80007898:	fd66                	sd	s9,184(sp)
    8000789a:	f96a                	sd	s10,176(sp)
    8000789c:	f56e                	sd	s11,168(sp)
    8000789e:	ad22                	fsd	fs0,152(sp)
    800078a0:	81010113          	add	sp,sp,-2032
    800078a4:	77fd                	lui	a5,0xfffff
    800078a6:	da02                	sw	zero,52(sp)
    800078a8:	4299                	li	t0,6
    800078aa:	32329073          	csrw	mhpmevent3,t0
    800078ae:	4295                	li	t0,5
    800078b0:	32429073          	csrw	mhpmevent4,t0
    800078b4:	6705                	lui	a4,0x1
    800078b6:	7b878613          	add	a2,a5,1976 # fffffffffffff7b8 <__global_pointer$+0xffffffff7fff5dd0>
    800078ba:	7b478593          	add	a1,a5,1972
    800078be:	85070093          	add	ra,a4,-1968 # 850 <_tbss_end+0x850>
    800078c2:	85070313          	add	t1,a4,-1968
    800078c6:	1814                	add	a3,sp,48
    800078c8:	00c082b3          	add	t0,ra,a2
    800078cc:	00b303b3          	add	t2,t1,a1
    800078d0:	00d28633          	add	a2,t0,a3
    800078d4:	00d385b3          	add	a1,t2,a3
    800078d8:	0aa10513          	add	a0,sp,170
    800078dc:	b71fb0ef          	jal	8000344c <portable_init>
    800078e0:	4505                	li	a0,1
    800078e2:	f66f90ef          	jal	80001048 <get_seed_32>
    800078e6:	842a                	mv	s0,a0
    800078e8:	4509                	li	a0,2
    800078ea:	04811023          	sh	s0,64(sp)
    800078ee:	f5af90ef          	jal	80001048 <get_seed_32>
    800078f2:	84aa                	mv	s1,a0
    800078f4:	450d                	li	a0,3
    800078f6:	04911123          	sh	s1,66(sp)
    800078fa:	f4ef90ef          	jal	80001048 <get_seed_32>
    800078fe:	882a                	mv	a6,a0
    80007900:	4511                	li	a0,4
    80007902:	05011223          	sh	a6,68(sp)
    80007906:	f42f90ef          	jal	80001048 <get_seed_32>
    8000790a:	88aa                	mv	a7,a0
    8000790c:	4515                	li	a0,5
    8000790e:	d6c6                	sw	a7,108(sp)
    80007910:	f38f90ef          	jal	80001048 <get_seed_32>
    80007914:	2501                	sext.w	a0,a0
    80007916:	e111                	bnez	a0,8000791a <main+0x98>
    80007918:	451d                	li	a0,7
    8000791a:	6985                	lui	s3,0x1
    8000791c:	797d                	lui	s2,0xfffff
    8000791e:	85098a13          	add	s4,s3,-1968 # 850 <_tbss_end+0x850>
    80007922:	012a0ab3          	add	s5,s4,s2
    80007926:	03010b13          	add	s6,sp,48
    8000792a:	016a8bb3          	add	s7,s5,s6
    8000792e:	e45e                	sd	s7,8(sp)
    80007930:	7c0bbc03          	ld	s8,1984(s7)
    80007934:	6ca2                	ld	s9,8(sp)
    80007936:	010c1d13          	sll	s10,s8,0x10
    8000793a:	7eaca823          	sw	a0,2032(s9)
    8000793e:	000d1863          	bnez	s10,8000794e <main+0xcc>
    80007942:	06600d93          	li	s11,102
    80007946:	7c0ca023          	sw	zero,1984(s9)
    8000794a:	7dbc9223          	sh	s11,1988(s9)
    8000794e:	6e85                	lui	t4,0x1
    80007950:	7e7d                	lui	t3,0xfffff
    80007952:	850e8f13          	add	t5,t4,-1968 # 850 <_tbss_end+0x850>
    80007956:	01cf0fb3          	add	t6,t5,t3
    8000795a:	181c                	add	a5,sp,48
    8000795c:	00ff8633          	add	a2,t6,a5
    80007960:	7c063583          	ld	a1,1984(a2)
    80007964:	e432                	sd	a2,8(sp)
    80007966:	4085                	li	ra,1
    80007968:	01059713          	sll	a4,a1,0x10
    8000796c:	01075293          	srl	t0,a4,0x10
    80007970:	00129d63          	bne	t0,ra,8000798a <main+0x108>
    80007974:	6722                	ld	a4,8(sp)
    80007976:	341536b7          	lui	a3,0x34153
    8000797a:	41568313          	add	t1,a3,1045 # 34153415 <_tbss_end+0x34153415>
    8000797e:	06600393          	li	t2,102
    80007982:	7c672023          	sw	t1,1984(a4)
    80007986:	7c771223          	sh	t2,1988(a4)
    8000798a:	6405                	lui	s0,0x1
    8000798c:	74fd                	lui	s1,0xfffff
    8000798e:	85040813          	add	a6,s0,-1968 # 850 <_tbss_end+0x850>
    80007992:	009808b3          	add	a7,a6,s1
    80007996:	03010913          	add	s2,sp,48
    8000799a:	012889b3          	add	s3,a7,s2
    8000799e:	e44e                	sd	s3,8(sp)
    800079a0:	6ba2                	ld	s7,8(sp)
    800079a2:	00257a13          	and	s4,a0,2
    800079a6:	0b010c13          	add	s8,sp,176
    800079aa:	00157a93          	and	s5,a0,1
    800079ae:	01403b33          	snez	s6,s4
    800079b2:	7d8bb423          	sd	s8,1992(s7)
    800079b6:	0a011423          	sh	zero,168(sp)
    800079ba:	00457c93          	and	s9,a0,4
    800079be:	016a8db3          	add	s11,s5,s6
    800079c2:	400c9e63          	bnez	s9,80007dde <main+0x55c>
    800079c6:	7d000513          	li	a0,2000
    800079ca:	03b55e3b          	divuw	t3,a0,s11
    800079ce:	7efd                	lui	t4,0xfffff
    800079d0:	85040f13          	add	t5,s0,-1968
    800079d4:	01df0fb3          	add	t6,t5,t4
    800079d8:	181c                	add	a5,sp,48
    800079da:	00ff8633          	add	a2,t6,a5
    800079de:	7fc62423          	sw	t3,2024(a2)
    800079e2:	000e009b          	sext.w	ra,t3
    800079e6:	140a91e3          	bnez	s5,80008328 <main+0xaa6>
    800079ea:	020a1de3          	bnez	s4,80008224 <main+0x9a2>
    800079ee:	6a85                	lui	s5,0x1
    800079f0:	7a7d                	lui	s4,0xfffff
    800079f2:	850a8c93          	add	s9,s5,-1968 # 850 <_tbss_end+0x850>
    800079f6:	014c8d33          	add	s10,s9,s4
    800079fa:	03010e93          	add	t4,sp,48
    800079fe:	01dd0f33          	add	t5,s10,t4
    80007a02:	7f0f2603          	lw	a2,2032(t5)
    80007a06:	e47a                	sd	t5,8(sp)
    80007a08:	00167413          	and	s0,a2,1
    80007a0c:	c005                	beqz	s0,80007a2c <main+0x1aa>
    80007a0e:	6fa2                	ld	t6,8(sp)
    80007a10:	7c0f9603          	lh	a2,1984(t6)
    80007a14:	7d0fb583          	ld	a1,2000(t6)
    80007a18:	7e8fa503          	lw	a0,2024(t6)
    80007a1c:	d2efb0ef          	jal	80002f4a <core_list_init>
    80007a20:	67a2                	ld	a5,8(sp)
    80007a22:	65a2                	ld	a1,8(sp)
    80007a24:	7f07a603          	lw	a2,2032(a5)
    80007a28:	7ea5bc23          	sd	a0,2040(a1)
    80007a2c:	00267293          	and	t0,a2,2
    80007a30:	32029863          	bnez	t0,80007d60 <main+0x4de>
    80007a34:	00467693          	and	a3,a2,4
    80007a38:	c685                	beqz	a3,80007a60 <main+0x1de>
    80007a3a:	6a05                	lui	s4,0x1
    80007a3c:	7e7d                	lui	t3,0xfffff
    80007a3e:	850a0a93          	add	s5,s4,-1968 # 850 <_tbss_end+0x850>
    80007a42:	01ca8cb3          	add	s9,s5,t3
    80007a46:	03010d13          	add	s10,sp,48
    80007a4a:	01ac8eb3          	add	t4,s9,s10
    80007a4e:	7e0eb603          	ld	a2,2016(t4) # fffffffffffff7e0 <__global_pointer$+0xffffffff7fff5df8>
    80007a52:	7c0e9583          	lh	a1,1984(t4)
    80007a56:	7e8ea503          	lw	a0,2024(t4)
    80007a5a:	e476                	sd	t4,8(sp)
    80007a5c:	901fa0ef          	jal	8000235c <core_init_state>
    80007a60:	5436                	lw	s0,108(sp)
    80007a62:	7f7d                	lui	t5,0xfffff
    80007a64:	e879                	bnez	s0,80007b3a <main+0x2b8>
    80007a66:	6605                	lui	a2,0x1
    80007a68:	7c0f0793          	add	a5,t5,1984 # fffffffffffff7c0 <__global_pointer$+0xffffffff7fff5dd8>
    80007a6c:	85060593          	add	a1,a2,-1968 # 850 <_tbss_end+0x850>
    80007a70:	4f85                	li	t6,1
    80007a72:	00f582b3          	add	t0,a1,a5
    80007a76:	1814                	add	a3,sp,48
    80007a78:	d6fe                	sw	t6,108(sp)
    80007a7a:	00d28db3          	add	s11,t0,a3
    80007a7e:	5336                	lw	t1,108(sp)
    80007a80:	4b01                	li	s6,0
    80007a82:	0023139b          	sllw	t2,t1,0x2
    80007a86:	0063873b          	addw	a4,t2,t1
    80007a8a:	0017149b          	sllw	s1,a4,0x1
    80007a8e:	d6a6                	sw	s1,108(sp)
    80007a90:	989fb0ef          	jal	80003418 <start_time>
    80007a94:	5936                	lw	s2,108(sp)
    80007a96:	f102                	sd	zero,160(sp)
    80007a98:	02090c63          	beqz	s2,80007ad0 <main+0x24e>
    80007a9c:	4585                	li	a1,1
    80007a9e:	856e                	mv	a0,s11
    80007aa0:	eedfa0ef          	jal	8000298c <core_bench_list>
    80007aa4:	0a015583          	lhu	a1,160(sp)
    80007aa8:	f1af90ef          	jal	800011c2 <crcu16>
    80007aac:	88aa                	mv	a7,a0
    80007aae:	55fd                	li	a1,-1
    80007ab0:	856e                	mv	a0,s11
    80007ab2:	0b111023          	sh	a7,160(sp)
    80007ab6:	ed7fa0ef          	jal	8000298c <core_bench_list>
    80007aba:	0a015583          	lhu	a1,160(sp)
    80007abe:	f04f90ef          	jal	800011c2 <crcu16>
    80007ac2:	0aa11023          	sh	a0,160(sp)
    80007ac6:	280b0663          	beqz	s6,80007d52 <main+0x4d0>
    80007aca:	2b05                	addw	s6,s6,1
    80007acc:	fd6918e3          	bne	s2,s6,80007a9c <main+0x21a>
    80007ad0:	953fb0ef          	jal	80003422 <stop_time>
    80007ad4:	959fb0ef          	jal	8000342c <get_time>
    80007ad8:	963fb0ef          	jal	8000343a <time_in_secs>
    80007adc:	00001997          	auipc	s3,0x1
    80007ae0:	7149b707          	fld	fa4,1812(s3) # 800091f0 <mem_name+0x20>
    80007ae4:	a2e51b53          	flt.d	s6,fa0,fa4
    80007ae8:	f80b1be3          	bnez	s6,80007a7e <main+0x1fc>
    80007aec:	6c05                	lui	s8,0x1
    80007aee:	c2151d53          	fcvt.wu.d	s10,fa0,rtz
    80007af2:	7bfd                	lui	s7,0xfffff
    80007af4:	850c0513          	add	a0,s8,-1968 # 850 <_tbss_end+0x850>
    80007af8:	01750e33          	add	t3,a0,s7
    80007afc:	03010a13          	add	s4,sp,48
    80007b00:	014e0ab3          	add	s5,t3,s4
    80007b04:	e456                	sd	s5,8(sp)
    80007b06:	000d0c9b          	sext.w	s9,s10
    80007b0a:	660c8b63          	beqz	s9,80008180 <main+0x8fe>
    80007b0e:	4ea9                	li	t4,10
    80007b10:	03aedf3b          	divuw	t5,t4,s10
    80007b14:	6f85                	lui	t6,0x1
    80007b16:	747d                	lui	s0,0xfffff
    80007b18:	850f8793          	add	a5,t6,-1968 # 850 <_tbss_end+0x850>
    80007b1c:	00878633          	add	a2,a5,s0
    80007b20:	180c                	add	a1,sp,48
    80007b22:	00b602b3          	add	t0,a2,a1
    80007b26:	7ec2a683          	lw	a3,2028(t0)
    80007b2a:	63a2                	ld	t2,8(sp)
    80007b2c:	e816                	sd	t0,16(sp)
    80007b2e:	001f0d9b          	addw	s11,t5,1
    80007b32:	02dd833b          	mulw	t1,s11,a3
    80007b36:	7e63a623          	sw	t1,2028(t2)
    80007b3a:	8dffb0ef          	jal	80003418 <start_time>
    80007b3e:	777d                	lui	a4,0xfffff
    80007b40:	6885                	lui	a7,0x1
    80007b42:	54b6                	lw	s1,108(sp)
    80007b44:	7c070913          	add	s2,a4,1984 # fffffffffffff7c0 <__global_pointer$+0xffffffff7fff5dd8>
    80007b48:	85088813          	add	a6,a7,-1968 # 850 <_tbss_end+0x850>
    80007b4c:	012809b3          	add	s3,a6,s2
    80007b50:	03010b13          	add	s6,sp,48
    80007b54:	f102                	sd	zero,160(sp)
    80007b56:	4401                	li	s0,0
    80007b58:	01698bb3          	add	s7,s3,s6
    80007b5c:	c89d                	beqz	s1,80007b92 <main+0x310>
    80007b5e:	4585                	li	a1,1
    80007b60:	855e                	mv	a0,s7
    80007b62:	e2bfa0ef          	jal	8000298c <core_bench_list>
    80007b66:	0a015583          	lhu	a1,160(sp)
    80007b6a:	e58f90ef          	jal	800011c2 <crcu16>
    80007b6e:	8c2a                	mv	s8,a0
    80007b70:	55fd                	li	a1,-1
    80007b72:	855e                	mv	a0,s7
    80007b74:	0b811023          	sh	s8,160(sp)
    80007b78:	e15fa0ef          	jal	8000298c <core_bench_list>
    80007b7c:	0a015583          	lhu	a1,160(sp)
    80007b80:	e42f90ef          	jal	800011c2 <crcu16>
    80007b84:	0aa11023          	sh	a0,160(sp)
    80007b88:	22040163          	beqz	s0,80007daa <main+0x528>
    80007b8c:	2405                	addw	s0,s0,1 # fffffffffffff001 <__global_pointer$+0xffffffff7fff5619>
    80007b8e:	fc8498e3          	bne	s1,s0,80007b5e <main+0x2dc>
    80007b92:	891fb0ef          	jal	80003422 <stop_time>
    80007b96:	897fb0ef          	jal	8000342c <get_time>
    80007b9a:	6a05                	lui	s4,0x1
    80007b9c:	7e7d                	lui	t3,0xfffff
    80007b9e:	850a0a93          	add	s5,s4,-1968 # 850 <_tbss_end+0x850>
    80007ba2:	01ca8cb3          	add	s9,s5,t3
    80007ba6:	03010d13          	add	s10,sp,48
    80007baa:	01ac8eb3          	add	t4,s9,s10
    80007bae:	8c2a                	mv	s8,a0
    80007bb0:	7c0e9503          	lh	a0,1984(t4)
    80007bb4:	4581                	li	a1,0
    80007bb6:	e476                	sd	t4,8(sp)
    80007bb8:	d15f90ef          	jal	800018cc <crc16>
    80007bbc:	6f22                	ld	t5,8(sp)
    80007bbe:	85aa                	mv	a1,a0
    80007bc0:	7c2f1503          	lh	a0,1986(t5)
    80007bc4:	d09f90ef          	jal	800018cc <crc16>
    80007bc8:	6fa2                	ld	t6,8(sp)
    80007bca:	85aa                	mv	a1,a0
    80007bcc:	7c4f9503          	lh	a0,1988(t6)
    80007bd0:	cfdf90ef          	jal	800018cc <crc16>
    80007bd4:	67a2                	ld	a5,8(sp)
    80007bd6:	85aa                	mv	a1,a0
    80007bd8:	7e879503          	lh	a0,2024(a5)
    80007bdc:	cf1f90ef          	jal	800018cc <crc16>
    80007be0:	6621                	lui	a2,0x8
    80007be2:	00050b1b          	sext.w	s6,a0
    80007be6:	b0560593          	add	a1,a2,-1275 # 7b05 <_tbss_end+0x7b05>
    80007bea:	68bb0763          	beq	s6,a1,80008278 <main+0x9f6>
    80007bee:	5565e463          	bltu	a1,s6,80008136 <main+0x8b4>
    80007bf2:	6789                	lui	a5,0x2
    80007bf4:	8f278293          	add	t0,a5,-1806 # 18f2 <_tbss_end+0x18f2>
    80007bf8:	6c5b0b63          	beq	s6,t0,800082ce <main+0xa4c>
    80007bfc:	6415                	lui	s0,0x5
    80007bfe:	eaf40913          	add	s2,s0,-337 # 4eaf <_tbss_end+0x4eaf>
    80007c02:	6f2b1f63          	bne	s6,s2,80008300 <main+0xa7e>
    80007c06:	00001817          	auipc	a6,0x1
    80007c0a:	a7a80513          	add	a0,a6,-1414 # 80008680 <errpat+0x2b8>
    80007c0e:	a33ff0ef          	jal	80007640 <printf>
    80007c12:	6bb9                	lui	s7,0xe
    80007c14:	651d                	lui	a0,0x7
    80007c16:	60840993          	add	s3,s0,1544
    80007c1a:	5a4b8e13          	add	t3,s7,1444 # e5a4 <_tbss_end+0xe5a4>
    80007c1e:	a7950a13          	add	s4,a0,-1415 # 6a79 <_tbss_end+0x6a79>
    80007c22:	4a89                	li	s5,2
    80007c24:	f04e                	sd	s3,32(sp)
    80007c26:	ec72                	sd	t3,24(sp)
    80007c28:	88ce                	mv	a7,s3
    80007c2a:	e852                	sd	s4,16(sp)
    80007c2c:	f456                	sd	s5,40(sp)
    80007c2e:	83c1ac83          	lw	s9,-1988(gp) # 80009224 <default_num_contexts>
    80007c32:	200c8363          	beqz	s9,80007e38 <main+0x5b6>
    80007c36:	6e85                	lui	t4,0x1
    80007c38:	7d7d                	lui	s10,0xfffff
    80007c3a:	850e8f13          	add	t5,t4,-1968 # 850 <_tbss_end+0x850>
    80007c3e:	01af0fb3          	add	t6,t5,s10
    80007c42:	1810                	add	a2,sp,48
    80007c44:	00cf85b3          	add	a1,t6,a2
    80007c48:	4cc2                	lw	s9,16(sp)
    80007c4a:	4d62                	lw	s10,24(sp)
    80007c4c:	4b81                	li	s7,0
    80007c4e:	4481                	li	s1,0
    80007c50:	4401                	li	s0,0
    80007c52:	e42e                	sd	a1,8(sp)
    80007c54:	6a85                	lui	s5,0x1
    80007c56:	00088d9b          	sext.w	s11,a7
    80007c5a:	a089                	j	80007c9c <main+0x41a>
    80007c5c:	67a2                	ld	a5,8(sp)
    80007c5e:	40890433          	sub	s0,s2,s0
    80007c62:	00441913          	sll	s2,s0,0x4
    80007c66:	012782b3          	add	t0,a5,s2
    80007c6a:	005a86b3          	add	a3,s5,t0
    80007c6e:	8286de83          	lhu	t4,-2008(a3)
    80007c72:	2485                	addw	s1,s1,1 # fffffffffffff001 <__global_pointer$+0xffffffff7fff5619>
    80007c74:	83c1af03          	lw	t5,-1988(gp) # 80009224 <default_num_contexts>
    80007c78:	01db8bbb          	addw	s7,s7,t4
    80007c7c:	03049f93          	sll	t6,s1,0x30
    80007c80:	030b9613          	sll	a2,s7,0x30
    80007c84:	030fd493          	srl	s1,t6,0x30
    80007c88:	010b959b          	sllw	a1,s7,0x10
    80007c8c:	03065913          	srl	s2,a2,0x30
    80007c90:	4105db9b          	sraw	s7,a1,0x10
    80007c94:	0004841b          	sext.w	s0,s1
    80007c98:	1be4f163          	bgeu	s1,t5,80007e3a <main+0x5b8>
    80007c9c:	66a2                	ld	a3,8(sp)
    80007c9e:	00341913          	sll	s2,s0,0x3
    80007ca2:	408907b3          	sub	a5,s2,s0
    80007ca6:	00479293          	sll	t0,a5,0x4
    80007caa:	005689b3          	add	s3,a3,t0
    80007cae:	7f09af83          	lw	t6,2032(s3)
    80007cb2:	013a8a33          	add	s4,s5,s3
    80007cb6:	820a1423          	sh	zero,-2008(s4)
    80007cba:	001ff313          	and	t1,t6,1
    80007cbe:	02030663          	beqz	t1,80007cea <main+0x468>
    80007cc2:	822a5603          	lhu	a2,-2014(s4)
    80007cc6:	03960263          	beq	a2,s9,80007cea <main+0x468>
    80007cca:	66c2                	ld	a3,16(sp)
    80007ccc:	00001397          	auipc	t2,0x1
    80007cd0:	85a2                	mv	a1,s0
    80007cd2:	a4c38513          	add	a0,t2,-1460 # 80008718 <errpat+0x350>
    80007cd6:	96bff0ef          	jal	80007640 <printf>
    80007cda:	828a5883          	lhu	a7,-2008(s4)
    80007cde:	7f09af83          	lw	t6,2032(s3)
    80007ce2:	0018871b          	addw	a4,a7,1
    80007ce6:	82ea1423          	sh	a4,-2008(s4)
    80007cea:	002ff813          	and	a6,t6,2
    80007cee:	02080f63          	beqz	a6,80007d2c <main+0x4aa>
    80007cf2:	60a2                	ld	ra,8(sp)
    80007cf4:	40890533          	sub	a0,s2,s0
    80007cf8:	00451e13          	sll	t3,a0,0x4
    80007cfc:	01c08a33          	add	s4,ra,t3
    80007d00:	014a89b3          	add	s3,s5,s4
    80007d04:	8249d603          	lhu	a2,-2012(s3)
    80007d08:	03b60263          	beq	a2,s11,80007d2c <main+0x4aa>
    80007d0c:	7682                	ld	a3,32(sp)
    80007d0e:	00001e97          	auipc	t4,0x1
    80007d12:	85a2                	mv	a1,s0
    80007d14:	a3ae8513          	add	a0,t4,-1478 # 80008748 <errpat+0x380>
    80007d18:	929ff0ef          	jal	80007640 <printf>
    80007d1c:	8289df03          	lhu	t5,-2008(s3)
    80007d20:	7f0a2f83          	lw	t6,2032(s4)
    80007d24:	001f061b          	addw	a2,t5,1
    80007d28:	82c99423          	sh	a2,-2008(s3)
    80007d2c:	004ff593          	and	a1,t6,4
    80007d30:	d595                	beqz	a1,80007c5c <main+0x3da>
    80007d32:	68a2                	ld	a7,8(sp)
    80007d34:	40890333          	sub	t1,s2,s0
    80007d38:	00431393          	sll	t2,t1,0x4
    80007d3c:	00788733          	add	a4,a7,t2
    80007d40:	00ea8a33          	add	s4,s5,a4
    80007d44:	826a5603          	lhu	a2,-2010(s4)
    80007d48:	07a61863          	bne	a2,s10,80007db8 <main+0x536>
    80007d4c:	828a5e83          	lhu	t4,-2008(s4)
    80007d50:	b70d                	j	80007c72 <main+0x3f0>
    80007d52:	0aa11123          	sh	a0,162(sp)
    80007d56:	4085                	li	ra,1
    80007d58:	d6190ce3          	beq	s2,ra,80007ad0 <main+0x24e>
    80007d5c:	4b05                	li	s6,1
    80007d5e:	bb3d                	j	80007a9c <main+0x21a>
    80007d60:	6385                	lui	t2,0x1
    80007d62:	737d                	lui	t1,0xfffff
    80007d64:	85038713          	add	a4,t2,-1968 # 850 <_tbss_end+0x850>
    80007d68:	006704b3          	add	s1,a4,t1
    80007d6c:	03010893          	add	a7,sp,48
    80007d70:	01148db3          	add	s11,s1,a7
    80007d74:	e46e                	sd	s11,8(sp)
    80007d76:	6922                	ld	s2,8(sp)
    80007d78:	7c2d9083          	lh	ra,1986(s11)
    80007d7c:	7c0d9803          	lh	a6,1984(s11)
    80007d80:	7d893583          	ld	a1,2008(s2) # fffffffffffff7d8 <__global_pointer$+0xffffffff7fff5df0>
    80007d84:	0100999b          	sllw	s3,ra,0x10
    80007d88:	7e892503          	lw	a0,2024(s2)
    80007d8c:	0109eb33          	or	s6,s3,a6
    80007d90:	0114                	add	a3,sp,128
    80007d92:	000b061b          	sext.w	a2,s6
    80007d96:	ff0fe0ef          	jal	80006586 <core_init_matrix>
    80007d9a:	6ba2                	ld	s7,8(sp)
    80007d9c:	7f0bac03          	lw	s8,2032(s7)
    80007da0:	004c7513          	and	a0,s8,4
    80007da4:	c8051be3          	bnez	a0,80007a3a <main+0x1b8>
    80007da8:	b965                	j	80007a60 <main+0x1de>
    80007daa:	0aa11123          	sh	a0,162(sp)
    80007dae:	4085                	li	ra,1
    80007db0:	de1481e3          	beq	s1,ra,80007b92 <main+0x310>
    80007db4:	4405                	li	s0,1
    80007db6:	b365                	j	80007b5e <main+0x2dc>
    80007db8:	66e2                	ld	a3,24(sp)
    80007dba:	00001817          	auipc	a6,0x1
    80007dbe:	85a2                	mv	a1,s0
    80007dc0:	9c680513          	add	a0,a6,-1594 # 80008780 <errpat+0x3b8>
    80007dc4:	87dff0ef          	jal	80007640 <printf>
    80007dc8:	828a5503          	lhu	a0,-2008(s4)
    80007dcc:	00150e1b          	addw	t3,a0,1
    80007dd0:	030e1993          	sll	s3,t3,0x30
    80007dd4:	0309de93          	srl	t4,s3,0x30
    80007dd8:	83da1423          	sh	t4,-2008(s4)
    80007ddc:	bd59                	j	80007c72 <main+0x3f0>
    80007dde:	001d889b          	addw	a7,s11,1
    80007de2:	7d000813          	li	a6,2000
    80007de6:	0318593b          	divuw	s2,a6,a7
    80007dea:	6b05                	lui	s6,0x1
    80007dec:	79fd                	lui	s3,0xfffff
    80007dee:	850b0b93          	add	s7,s6,-1968 # 850 <_tbss_end+0x850>
    80007df2:	013b8c33          	add	s8,s7,s3
    80007df6:	1808                	add	a0,sp,48
    80007df8:	00ac0e33          	add	t3,s8,a0
    80007dfc:	e472                	sd	t3,8(sp)
    80007dfe:	7f2e2423          	sw	s2,2024(t3) # fffffffffffff7e8 <__global_pointer$+0xffffffff7fff5e00>
    80007e02:	0009009b          	sext.w	ra,s2
    80007e06:	420a9d63          	bnez	s5,80008240 <main+0x9be>
    80007e0a:	500a1163          	bnez	s4,8000830c <main+0xa8a>
    80007e0e:	021d8db3          	mul	s11,s11,ra
    80007e12:	6805                	lui	a6,0x1
    80007e14:	70fd                	lui	ra,0xfffff
    80007e16:	85080913          	add	s2,a6,-1968 # 850 <_tbss_end+0x850>
    80007e1a:	001909b3          	add	s3,s2,ra
    80007e1e:	03010b13          	add	s6,sp,48
    80007e22:	01698bb3          	add	s7,s3,s6
    80007e26:	e45e                	sd	s7,8(sp)
    80007e28:	6e22                	ld	t3,8(sp)
    80007e2a:	0b010c13          	add	s8,sp,176
    80007e2e:	01bc0533          	add	a0,s8,s11
    80007e32:	7eae3023          	sd	a0,2016(t3)
    80007e36:	be65                	j	800079ee <main+0x16c>
    80007e38:	4901                	li	s2,0
    80007e3a:	ce9f90ef          	jal	80001b22 <check_data_types>
    80007e3e:	6785                	lui	a5,0x1
    80007e40:	85078293          	add	t0,a5,-1968 # 850 <_tbss_end+0x850>
    80007e44:	7d7d                	lui	s10,0xfffff
    80007e46:	01a286b3          	add	a3,t0,s10
    80007e4a:	03010313          	add	t1,sp,48
    80007e4e:	006683b3          	add	t2,a3,t1
    80007e52:	7e83e583          	lwu	a1,2024(t2)
    80007e56:	00001897          	auipc	a7,0x1
    80007e5a:	0125093b          	addw	s2,a0,s2
    80007e5e:	03091713          	sll	a4,s2,0x30
    80007e62:	95a88513          	add	a0,a7,-1702 # 800087b0 <errpat+0x3e8>
    80007e66:	e41e                	sd	t2,8(sp)
    80007e68:	03075a13          	srl	s4,a4,0x30
    80007e6c:	fd4ff0ef          	jal	80007640 <printf>
    80007e70:	00001817          	auipc	a6,0x1
    80007e74:	95880513          	add	a0,a6,-1704 # 800087c8 <errpat+0x400>
    80007e78:	85e2                	mv	a1,s8
    80007e7a:	fc6ff0ef          	jal	80007640 <printf>
    80007e7e:	8562                	mv	a0,s8
    80007e80:	dbafb0ef          	jal	8000343a <time_in_secs>
    80007e84:	e20505d3          	fmv.x.d	a1,fa0
    80007e88:	00001517          	auipc	a0,0x1
    80007e8c:	95850513          	add	a0,a0,-1704 # 800087e0 <errpat+0x418>
    80007e90:	fb0ff0ef          	jal	80007640 <printf>
    80007e94:	8562                	mv	a0,s8
    80007e96:	da4fb0ef          	jal	8000343a <time_in_secs>
    80007e9a:	f2000053          	fmv.d.x	ft0,zero
    80007e9e:	a2a01e53          	flt.d	t3,ft0,fa0
    80007ea2:	020e0863          	beqz	t3,80007ed2 <main+0x650>
    80007ea6:	6ea2                	ld	t4,8(sp)
    80007ea8:	83c1af03          	lw	t5,-1988(gp) # 80009224 <default_num_contexts>
    80007eac:	7ecea083          	lw	ra,2028(t4)
    80007eb0:	8562                	mv	a0,s8
    80007eb2:	00001497          	auipc	s1,0x1
    80007eb6:	021f0fbb          	mulw	t6,t5,ra
    80007eba:	d21f8453          	fcvt.d.wu	fs0,t6
    80007ebe:	d7cfb0ef          	jal	8000343a <time_in_secs>
    80007ec2:	94648513          	add	a0,s1,-1722 # 800087f8 <errpat+0x430>
    80007ec6:	1aa470d3          	fdiv.d	ft1,fs0,fa0
    80007eca:	e20085d3          	fmv.x.d	a1,ft1
    80007ece:	f72ff0ef          	jal	80007640 <printf>
    80007ed2:	8562                	mv	a0,s8
    80007ed4:	d66fb0ef          	jal	8000343a <time_in_secs>
    80007ed8:	00001617          	auipc	a2,0x1
    80007edc:	32063107          	fld	ft2,800(a2) # 800091f8 <mem_name+0x28>
    80007ee0:	a22515d3          	flt.d	a1,fa0,ft2
    80007ee4:	2a059063          	bnez	a1,80008184 <main+0x902>
    80007ee8:	010a1b9b          	sllw	s7,s4,0x10
    80007eec:	410bdd1b          	sraw	s10,s7,0x10
    80007ef0:	6285                	lui	t0,0x1
    80007ef2:	77fd                	lui	a5,0xfffff
    80007ef4:	85028693          	add	a3,t0,-1968 # 850 <_tbss_end+0x850>
    80007ef8:	00f68333          	add	t1,a3,a5
    80007efc:	03010393          	add	t2,sp,48
    80007f00:	007308b3          	add	a7,t1,t2
    80007f04:	e446                	sd	a7,8(sp)
    80007f06:	6a22                	ld	s4,8(sp)
    80007f08:	83c1e703          	lwu	a4,-1988(gp) # 80009224 <default_num_contexts>
    80007f0c:	7eca6803          	lwu	a6,2028(s4)
    80007f10:	00001517          	auipc	a0,0x1
    80007f14:	94050513          	add	a0,a0,-1728 # 80008850 <errpat+0x488>
    80007f18:	030705b3          	mul	a1,a4,a6
    80007f1c:	00001997          	auipc	s3,0x1
    80007f20:	00001497          	auipc	s1,0x1
    80007f24:	f1cff0ef          	jal	80007640 <printf>
    80007f28:	00001e17          	auipc	t3,0x1
    80007f2c:	940e0593          	add	a1,t3,-1728 # 80008868 <errpat+0x4a0>
    80007f30:	96c98513          	add	a0,s3,-1684 # 80008888 <errpat+0x4c0>
    80007f34:	f0cff0ef          	jal	80007640 <printf>
    80007f38:	00001e97          	auipc	t4,0x1
    80007f3c:	00001f17          	auipc	t5,0x1
    80007f40:	968e8593          	add	a1,t4,-1688 # 800088a0 <errpat+0x4d8>
    80007f44:	024f0513          	add	a0,t5,36 # 80008f60 <errpat+0xb98>
    80007f48:	ef8ff0ef          	jal	80007640 <printf>
    80007f4c:	00001f97          	auipc	t6,0x1
    80007f50:	02cf8593          	add	a1,t6,44 # 80008f78 <errpat+0xbb0>
    80007f54:	06048513          	add	a0,s1,96 # 80008f80 <errpat+0xbb8>
    80007f58:	ee8ff0ef          	jal	80007640 <printf>
    80007f5c:	85da                	mv	a1,s6
    80007f5e:	00001b17          	auipc	s6,0x1
    80007f62:	03ab0513          	add	a0,s6,58 # 80008f98 <errpat+0xbd0>
    80007f66:	edaff0ef          	jal	80007640 <printf>
    80007f6a:	6622                	ld	a2,8(sp)
    80007f6c:	7f062583          	lw	a1,2032(a2)
    80007f70:	0015fb93          	and	s7,a1,1
    80007f74:	040b8763          	beqz	s7,80007fc2 <main+0x740>
    80007f78:	83c1aa83          	lw	s5,-1988(gp) # 80009224 <default_num_contexts>
    80007f7c:	040a8363          	beqz	s5,80007fc2 <main+0x740>
    80007f80:	4401                	li	s0,0
    80007f82:	4581                	li	a1,0
    80007f84:	6c85                	lui	s9,0x1
    80007f86:	00359d93          	sll	s11,a1,0x3
    80007f8a:	66a2                	ld	a3,8(sp)
    80007f8c:	40bd87b3          	sub	a5,s11,a1
    80007f90:	00479293          	sll	t0,a5,0x4
    80007f94:	00568333          	add	t1,a3,t0
    80007f98:	006c83b3          	add	t2,s9,t1
    80007f9c:	8223d603          	lhu	a2,-2014(t2)
    80007fa0:	00001897          	auipc	a7,0x1
    80007fa4:	01888513          	add	a0,a7,24 # 80008fb8 <errpat+0xbf0>
    80007fa8:	e98ff0ef          	jal	80007640 <printf>
    80007fac:	2405                	addw	s0,s0,1
    80007fae:	83c1aa03          	lw	s4,-1988(gp) # 80009224 <default_num_contexts>
    80007fb2:	03041713          	sll	a4,s0,0x30
    80007fb6:	03075413          	srl	s0,a4,0x30
    80007fba:	0004059b          	sext.w	a1,s0
    80007fbe:	fd4464e3          	bltu	s0,s4,80007f86 <main+0x704>
    80007fc2:	6505                	lui	a0,0x1
    80007fc4:	787d                	lui	a6,0xfffff
    80007fc6:	85050e13          	add	t3,a0,-1968 # 850 <_tbss_end+0x850>
    80007fca:	010e09b3          	add	s3,t3,a6
    80007fce:	03010e93          	add	t4,sp,48
    80007fd2:	01d98f33          	add	t5,s3,t4
    80007fd6:	7f0f2f83          	lw	t6,2032(t5)
    80007fda:	e47a                	sd	t5,8(sp)
    80007fdc:	002ff493          	and	s1,t6,2
    80007fe0:	c4b9                	beqz	s1,8000802e <main+0x7ac>
    80007fe2:	83c1a603          	lw	a2,-1988(gp) # 80009224 <default_num_contexts>
    80007fe6:	30060863          	beqz	a2,800082f6 <main+0xa74>
    80007fea:	4a01                	li	s4,0
    80007fec:	4581                	li	a1,0
    80007fee:	6b85                	lui	s7,0x1
    80007ff0:	00359093          	sll	ra,a1,0x3
    80007ff4:	6da2                	ld	s11,8(sp)
    80007ff6:	40b08ab3          	sub	s5,ra,a1
    80007ffa:	004a9c93          	sll	s9,s5,0x4
    80007ffe:	019d87b3          	add	a5,s11,s9
    80008002:	00fb82b3          	add	t0,s7,a5
    80008006:	8242d603          	lhu	a2,-2012(t0)
    8000800a:	00001697          	auipc	a3,0x1
    8000800e:	fce68513          	add	a0,a3,-50 # 80008fd8 <errpat+0xc10>
    80008012:	e2eff0ef          	jal	80007640 <printf>
    80008016:	001a089b          	addw	a7,s4,1
    8000801a:	83c1a383          	lw	t2,-1988(gp) # 80009224 <default_num_contexts>
    8000801e:	03089913          	sll	s2,a7,0x30
    80008022:	03095a13          	srl	s4,s2,0x30
    80008026:	000a059b          	sext.w	a1,s4
    8000802a:	fc7a63e3          	bltu	s4,t2,80007ff0 <main+0x76e>
    8000802e:	6705                	lui	a4,0x1
    80008030:	747d                	lui	s0,0xfffff
    80008032:	85070813          	add	a6,a4,-1968 # 850 <_tbss_end+0x850>
    80008036:	00880533          	add	a0,a6,s0
    8000803a:	03010e13          	add	t3,sp,48
    8000803e:	01c509b3          	add	s3,a0,t3
    80008042:	7f09ae83          	lw	t4,2032(s3)
    80008046:	e44e                	sd	s3,8(sp)
    80008048:	004ef493          	and	s1,t4,4
    8000804c:	83c1af83          	lw	t6,-1988(gp) # 80009224 <default_num_contexts>
    80008050:	c4a9                	beqz	s1,8000809a <main+0x818>
    80008052:	4401                	li	s0,0
    80008054:	4581                	li	a1,0
    80008056:	6b05                	lui	s6,0x1
    80008058:	080f8e63          	beqz	t6,800080f4 <main+0x872>
    8000805c:	00359613          	sll	a2,a1,0x3
    80008060:	6aa2                	ld	s5,8(sp)
    80008062:	40b60bb3          	sub	s7,a2,a1
    80008066:	004b9093          	sll	ra,s7,0x4
    8000806a:	001a8cb3          	add	s9,s5,ra
    8000806e:	019b0db3          	add	s11,s6,s9
    80008072:	826dd603          	lhu	a2,-2010(s11)
    80008076:	00001797          	auipc	a5,0x1
    8000807a:	f8278513          	add	a0,a5,-126 # 80008ff8 <errpat+0xc30>
    8000807e:	dc2ff0ef          	jal	80007640 <printf>
    80008082:	0014069b          	addw	a3,s0,1 # fffffffffffff001 <__global_pointer$+0xffffffff7fff5619>
    80008086:	83c1a283          	lw	t0,-1988(gp) # 80009224 <default_num_contexts>
    8000808a:	03069313          	sll	t1,a3,0x30
    8000808e:	03035413          	srl	s0,t1,0x30
    80008092:	0004059b          	sext.w	a1,s0
    80008096:	fc5463e3          	bltu	s0,t0,8000805c <main+0x7da>
    8000809a:	6a05                	lui	s4,0x1
    8000809c:	83c1a883          	lw	a7,-1988(gp) # 80009224 <default_num_contexts>
    800080a0:	797d                	lui	s2,0xfffff
    800080a2:	850a0713          	add	a4,s4,-1968 # 850 <_tbss_end+0x850>
    800080a6:	01270833          	add	a6,a4,s2
    800080aa:	1808                	add	a0,sp,48
    800080ac:	4401                	li	s0,0
    800080ae:	4581                	li	a1,0
    800080b0:	00a809b3          	add	s3,a6,a0
    800080b4:	6485                	lui	s1,0x1
    800080b6:	02088f63          	beqz	a7,800080f4 <main+0x872>
    800080ba:	00359e13          	sll	t3,a1,0x3
    800080be:	40be0eb3          	sub	t4,t3,a1
    800080c2:	004e9f13          	sll	t5,t4,0x4
    800080c6:	01e98fb3          	add	t6,s3,t5
    800080ca:	01f48b33          	add	s6,s1,t6
    800080ce:	820b5603          	lhu	a2,-2016(s6) # 820 <_tbss_end+0x820>
    800080d2:	00001b97          	auipc	s7,0x1
    800080d6:	f46b8513          	add	a0,s7,-186 # 80009018 <errpat+0xc50>
    800080da:	d66ff0ef          	jal	80007640 <printf>
    800080de:	2405                	addw	s0,s0,1
    800080e0:	83c1aa83          	lw	s5,-1988(gp) # 80009224 <default_num_contexts>
    800080e4:	03041c93          	sll	s9,s0,0x30
    800080e8:	030cd413          	srl	s0,s9,0x30
    800080ec:	0004059b          	sext.w	a1,s0
    800080f0:	fd5465e3          	bltu	s0,s5,800080ba <main+0x838>
    800080f4:	0a0d0563          	beqz	s10,8000819e <main+0x91c>
    800080f8:	07a04d63          	bgtz	s10,80008172 <main+0x8f0>
    800080fc:	00001c17          	auipc	s8,0x1
    80008100:	fbcc0513          	add	a0,s8,-68 # 800090b8 <errpat+0xcf0>
    80008104:	d3cff0ef          	jal	80007640 <printf>
    80008108:	0aa10513          	add	a0,sp,170
    8000810c:	b48fb0ef          	jal	80003454 <portable_fini>
    80008110:	7f010113          	add	sp,sp,2032
    80008114:	60b2                	ld	ra,264(sp)
    80008116:	6412                	ld	s0,256(sp)
    80008118:	74ee                	ld	s1,248(sp)
    8000811a:	794e                	ld	s2,240(sp)
    8000811c:	79ae                	ld	s3,232(sp)
    8000811e:	7a0e                	ld	s4,224(sp)
    80008120:	6aee                	ld	s5,216(sp)
    80008122:	6b4e                	ld	s6,208(sp)
    80008124:	6bae                	ld	s7,200(sp)
    80008126:	6c0e                	ld	s8,192(sp)
    80008128:	7cea                	ld	s9,184(sp)
    8000812a:	7d4a                	ld	s10,176(sp)
    8000812c:	7daa                	ld	s11,168(sp)
    8000812e:	246a                	fld	fs0,152(sp)
    80008130:	4501                	li	a0,0
    80008132:	6151                	add	sp,sp,272
    80008134:	8082                	ret
    80008136:	6425                	lui	s0,0x9
    80008138:	a0240893          	add	a7,s0,-1534 # 8a02 <_tbss_end+0x8a02>
    8000813c:	171b0463          	beq	s6,a7,800082a4 <main+0xa22>
    80008140:	60bd                	lui	ra,0xf
    80008142:	9f508c93          	add	s9,ra,-1547 # e9f5 <_tbss_end+0xe9f5>
    80008146:	1b9b1d63          	bne	s6,s9,80008300 <main+0xa7e>
    8000814a:	00000d17          	auipc	s10,0x0
    8000814e:	56ed0513          	add	a0,s10,1390 # 800086b8 <errpat+0x2f0>
    80008152:	ceeff0ef          	jal	80007640 <printf>
    80008156:	6e89                	lui	t4,0x2
    80008158:	6f39                	lui	t5,0xe
    8000815a:	fd7e8893          	add	a7,t4,-41 # 1fd7 <_tbss_end+0x1fd7>
    8000815e:	e3a40f93          	add	t6,s0,-454
    80008162:	714f0613          	add	a2,t5,1812 # e714 <_tbss_end+0xe714>
    80008166:	458d                	li	a1,3
    80008168:	f046                	sd	a7,32(sp)
    8000816a:	ec7e                	sd	t6,24(sp)
    8000816c:	e832                	sd	a2,16(sp)
    8000816e:	f42e                	sd	a1,40(sp)
    80008170:	bc7d                	j	80007c2e <main+0x3ac>
    80008172:	00001d17          	auipc	s10,0x1
    80008176:	faed0513          	add	a0,s10,-82 # 80009120 <errpat+0xd58>
    8000817a:	cc6ff0ef          	jal	80007640 <printf>
    8000817e:	b769                	j	80008108 <main+0x886>
    80008180:	4d05                	li	s10,1
    80008182:	b271                	j	80007b0e <main+0x28c>
    80008184:	00000a97          	auipc	s5,0x0
    80008188:	001a0c9b          	addw	s9,s4,1
    8000818c:	68ca8513          	add	a0,s5,1676 # 80008810 <errpat+0x448>
    80008190:	010c9d9b          	sllw	s11,s9,0x10
    80008194:	cacff0ef          	jal	80007640 <printf>
    80008198:	410ddd1b          	sraw	s10,s11,0x10
    8000819c:	bb91                	j	80007ef0 <main+0x66e>
    8000819e:	00001097          	auipc	ra,0x1
    800081a2:	e9a08513          	add	a0,ra,-358 # 80009038 <errpat+0xc70>
    800081a6:	c9aff0ef          	jal	80007640 <printf>
    800081aa:	77a2                	ld	a5,40(sp)
    800081ac:	4d8d                	li	s11,3
    800081ae:	f5b79de3          	bne	a5,s11,80008108 <main+0x886>
    800081b2:	6285                	lui	t0,0x1
    800081b4:	85028693          	add	a3,t0,-1968 # 850 <_tbss_end+0x850>
    800081b8:	75fd                	lui	a1,0xfffff
    800081ba:	00b68333          	add	t1,a3,a1
    800081be:	03010393          	add	t2,sp,48
    800081c2:	007308b3          	add	a7,t1,t2
    800081c6:	7ec8aa03          	lw	s4,2028(a7)
    800081ca:	83c1a703          	lw	a4,-1988(gp) # 80009224 <default_num_contexts>
    800081ce:	8562                	mv	a0,s8
    800081d0:	e446                	sd	a7,8(sp)
    800081d2:	0347083b          	mulw	a6,a4,s4
    800081d6:	00000997          	auipc	s3,0x0
    800081da:	00000497          	auipc	s1,0x0
    800081de:	d2180453          	fcvt.d.wu	fs0,a6
    800081e2:	a58fb0ef          	jal	8000343a <time_in_secs>
    800081e6:	00001517          	auipc	a0,0x1
    800081ea:	1aa471d3          	fdiv.d	ft3,fs0,fa0
    800081ee:	6ca98693          	add	a3,s3,1738 # 800088a0 <errpat+0x4d8>
    800081f2:	68e48613          	add	a2,s1,1678 # 80008868 <errpat+0x4a0>
    800081f6:	ea250513          	add	a0,a0,-350 # 80009088 <errpat+0xcc0>
    800081fa:	e20185d3          	fmv.x.d	a1,ft3
    800081fe:	c42ff0ef          	jal	80007640 <printf>
    80008202:	00001e17          	auipc	t3,0x1
    80008206:	00001e97          	auipc	t4,0x1
    8000820a:	d76e0593          	add	a1,t3,-650 # 80008f78 <errpat+0xbb0>
    8000820e:	ea2e8513          	add	a0,t4,-350 # 800090a8 <errpat+0xce0>
    80008212:	c2eff0ef          	jal	80007640 <printf>
    80008216:	00001f17          	auipc	t5,0x1
    8000821a:	e9af0513          	add	a0,t5,-358 # 800090b0 <errpat+0xce8>
    8000821e:	c22ff0ef          	jal	80007640 <printf>
    80008222:	b5dd                	j	80008108 <main+0x886>
    80008224:	03ca85bb          	mulw	a1,s5,t3
    80008228:	0b010313          	add	t1,sp,176
    8000822c:	02059293          	sll	t0,a1,0x20
    80008230:	0202d693          	srl	a3,t0,0x20
    80008234:	00d303b3          	add	t2,t1,a3
    80008238:	7c763c23          	sd	t2,2008(a2)
    8000823c:	fb2ff06f          	j	800079ee <main+0x16c>
    80008240:	0b010f93          	add	t6,sp,176
    80008244:	7dfe3823          	sd	t6,2000(t3)
    80008248:	bc0a03e3          	beqz	s4,80007e0e <main+0x58c>
    8000824c:	021a87b3          	mul	a5,s5,ra
    80008250:	6585                	lui	a1,0x1
    80008252:	767d                	lui	a2,0xfffff
    80008254:	85058293          	add	t0,a1,-1968 # 850 <_tbss_end+0x850>
    80008258:	00c286b3          	add	a3,t0,a2
    8000825c:	03010313          	add	t1,sp,48
    80008260:	006683b3          	add	t2,a3,t1
    80008264:	e41e                	sd	t2,8(sp)
    80008266:	68a2                	ld	a7,8(sp)
    80008268:	1918                	add	a4,sp,176
    8000826a:	00f704b3          	add	s1,a4,a5
    8000826e:	7c98bc23          	sd	s1,2008(a7)
    80008272:	f60c8e63          	beqz	s9,800079ee <main+0x16c>
    80008276:	be61                	j	80007e0e <main+0x58c>
    80008278:	00000297          	auipc	t0,0x0
    8000827c:	3d828513          	add	a0,t0,984 # 80008650 <errpat+0x288>
    80008280:	bc0ff0ef          	jal	80007640 <printf>
    80008284:	6685                	lui	a3,0x1
    80008286:	6d91                	lui	s11,0x4
    80008288:	638d                	lui	t2,0x3
    8000828a:	19968313          	add	t1,a3,409 # 1199 <_tbss_end+0x1199>
    8000828e:	9bfd8713          	add	a4,s11,-1601 # 39bf <_tbss_end+0x39bf>
    80008292:	34038493          	add	s1,t2,832 # 3340 <_tbss_end+0x3340>
    80008296:	4905                	li	s2,1
    80008298:	f01a                	sd	t1,32(sp)
    8000829a:	ec3a                	sd	a4,24(sp)
    8000829c:	889a                	mv	a7,t1
    8000829e:	e826                	sd	s1,16(sp)
    800082a0:	f44a                	sd	s2,40(sp)
    800082a2:	b271                	j	80007c2e <main+0x3ac>
    800082a4:	00000817          	auipc	a6,0x0
    800082a8:	37c80513          	add	a0,a6,892 # 80008620 <errpat+0x258>
    800082ac:	b94ff0ef          	jal	80007640 <printf>
    800082b0:	69b1                	lui	s3,0xc
    800082b2:	6b99                	lui	s7,0x6
    800082b4:	6e35                	lui	t3,0xd
    800082b6:	e5298513          	add	a0,s3,-430 # be52 <_tbss_end+0xbe52>
    800082ba:	e47b8a13          	add	s4,s7,-441 # 5e47 <_tbss_end+0x5e47>
    800082be:	4b0e0a93          	add	s5,t3,1200 # d4b0 <_tbss_end+0xd4b0>
    800082c2:	f02a                	sd	a0,32(sp)
    800082c4:	ec52                	sd	s4,24(sp)
    800082c6:	88aa                	mv	a7,a0
    800082c8:	e856                	sd	s5,16(sp)
    800082ca:	f402                	sd	zero,40(sp)
    800082cc:	b28d                	j	80007c2e <main+0x3ac>
    800082ce:	00000697          	auipc	a3,0x0
    800082d2:	41a68513          	add	a0,a3,1050 # 800086e8 <errpat+0x320>
    800082d6:	b6aff0ef          	jal	80007640 <printf>
    800082da:	6da5                	lui	s11,0x9
    800082dc:	6339                	lui	t1,0xe
    800082de:	d84d8393          	add	t2,s11,-636 # 8d84 <_tbss_end+0x8d84>
    800082e2:	74700893          	li	a7,1863
    800082e6:	3c130713          	add	a4,t1,961 # e3c1 <_tbss_end+0xe3c1>
    800082ea:	4491                	li	s1,4
    800082ec:	ec1e                	sd	t2,24(sp)
    800082ee:	f046                	sd	a7,32(sp)
    800082f0:	e83a                	sd	a4,16(sp)
    800082f2:	f426                	sd	s1,40(sp)
    800082f4:	ba2d                	j	80007c2e <main+0x3ac>
    800082f6:	004ff593          	and	a1,t6,4
    800082fa:	da0580e3          	beqz	a1,8000809a <main+0x818>
    800082fe:	bbdd                	j	800080f4 <main+0x872>
    80008300:	6ac1                	lui	s5,0x10
    80008302:	5cfd                	li	s9,-1
    80008304:	fffa8913          	add	s2,s5,-1 # ffff <_tbss_end+0xffff>
    80008308:	f466                	sd	s9,40(sp)
    8000830a:	be05                	j	80007e3a <main+0x5b8>
    8000830c:	032a8a3b          	mulw	s4,s5,s2
    80008310:	6f22                	ld	t5,8(sp)
    80008312:	0b010d13          	add	s10,sp,176
    80008316:	020a1a93          	sll	s5,s4,0x20
    8000831a:	020adc93          	srl	s9,s5,0x20
    8000831e:	019d0eb3          	add	t4,s10,s9
    80008322:	7ddf3c23          	sd	t4,2008(t5)
    80008326:	b4e5                	j	80007e0e <main+0x58c>
    80008328:	6722                	ld	a4,8(sp)
    8000832a:	1904                	add	s1,sp,176
    8000832c:	7c973823          	sd	s1,2000(a4)
    80008330:	ea0a0f63          	beqz	s4,800079ee <main+0x16c>
    80008334:	bf21                	j	8000824c <main+0x9ca>
    80008336:	1141                	add	sp,sp,-16
    80008338:	00001517          	auipc	a0,0x1
    8000833c:	e3050513          	add	a0,a0,-464 # 80009168 <errpat+0xda0>
    80008340:	e406                	sd	ra,8(sp)
    80008342:	d55fe0ef          	jal	80007096 <printstr>
    80008346:	60a2                	ld	ra,8(sp)
    80008348:	557d                	li	a0,-1
    8000834a:	0141                	add	sp,sp,16
    8000834c:	8082                	ret

Disassembly of section .rodata:

0000000080008350 <intpat-0x18>:
    80008350:	8d4a                	mv	s10,s2
    80008352:	ffff                	.insn	2, 0xffff
    80008354:	8d22                	mv	s10,s0
    80008356:	ffff                	.insn	2, 0xffff
    80008358:	8d2c                	.insn	2, 0x8d2c
    8000835a:	ffff                	.insn	2, 0xffff
    8000835c:	8d36                	mv	s10,a3
    8000835e:	ffff                	.insn	2, 0xffff
    80008360:	8d40                	.insn	2, 0x8d40
    80008362:	ffff                	.insn	2, 0xffff
    80008364:	8d18                	.insn	2, 0x8d18
    80008366:	ffff                	.insn	2, 0xffff

0000000080008368 <intpat>:
    80008368:	8600                	.insn	2, 0x8600
    8000836a:	8000                	.insn	2, 0x8000
    8000836c:	0000                	unimp
    8000836e:	0000                	unimp
    80008370:	8608                	.insn	2, 0x8608
    80008372:	8000                	.insn	2, 0x8000
    80008374:	0000                	unimp
    80008376:	0000                	unimp
    80008378:	8610                	.insn	2, 0x8610
    8000837a:	8000                	.insn	2, 0x8000
    8000837c:	0000                	unimp
    8000837e:	0000                	unimp
    80008380:	8618                	.insn	2, 0x8618
    80008382:	8000                	.insn	2, 0x8000
    80008384:	0000                	unimp
	...

0000000080008388 <floatpat>:
    80008388:	85c0                	.insn	2, 0x85c0
    8000838a:	8000                	.insn	2, 0x8000
    8000838c:	0000                	unimp
    8000838e:	0000                	unimp
    80008390:	85d0                	.insn	2, 0x85d0
    80008392:	8000                	.insn	2, 0x8000
    80008394:	0000                	unimp
    80008396:	0000                	unimp
    80008398:	85e0                	.insn	2, 0x85e0
    8000839a:	8000                	.insn	2, 0x8000
    8000839c:	0000                	unimp
    8000839e:	0000                	unimp
    800083a0:	85f0                	.insn	2, 0x85f0
    800083a2:	8000                	.insn	2, 0x8000
    800083a4:	0000                	unimp
	...

00000000800083a8 <scipat>:
    800083a8:	8580                	.insn	2, 0x8580
    800083aa:	8000                	.insn	2, 0x8000
    800083ac:	0000                	unimp
    800083ae:	0000                	unimp
    800083b0:	8590                	.insn	2, 0x8590
    800083b2:	8000                	.insn	2, 0x8000
    800083b4:	0000                	unimp
    800083b6:	0000                	unimp
    800083b8:	85a0                	.insn	2, 0x85a0
    800083ba:	8000                	.insn	2, 0x8000
    800083bc:	0000                	unimp
    800083be:	0000                	unimp
    800083c0:	85b0                	.insn	2, 0x85b0
    800083c2:	8000                	.insn	2, 0x8000
    800083c4:	0000                	unimp
	...

00000000800083c8 <errpat>:
    800083c8:	8540                	.insn	2, 0x8540
    800083ca:	8000                	.insn	2, 0x8000
    800083cc:	0000                	unimp
    800083ce:	0000                	unimp
    800083d0:	8550                	.insn	2, 0x8550
    800083d2:	8000                	.insn	2, 0x8000
    800083d4:	0000                	unimp
    800083d6:	0000                	unimp
    800083d8:	8560                	.insn	2, 0x8560
    800083da:	8000                	.insn	2, 0x8000
    800083dc:	0000                	unimp
    800083de:	0000                	unimp
    800083e0:	8570                	.insn	2, 0x8570
    800083e2:	8000                	.insn	2, 0x8000
    800083e4:	0000                	unimp
    800083e6:	0000                	unimp
    800083e8:	f066                	sd	s9,32(sp)
    800083ea:	ffff                	.insn	2, 0xffff
    800083ec:	effc                	sd	a5,216(a5)
    800083ee:	ffff                	.insn	2, 0xffff
    800083f0:	f06e                	sd	s11,32(sp)
    800083f2:	ffff                	.insn	2, 0xffff
    800083f4:	effc                	sd	a5,216(a5)
    800083f6:	ffff                	.insn	2, 0xffff
    800083f8:	effc                	sd	a5,216(a5)
    800083fa:	ffff                	.insn	2, 0xffff
    800083fc:	effc                	sd	a5,216(a5)
    800083fe:	ffff                	.insn	2, 0xffff
    80008400:	effc                	sd	a5,216(a5)
    80008402:	ffff                	.insn	2, 0xffff
    80008404:	f078                	sd	a4,224(s0)
    80008406:	ffff                	.insn	2, 0xffff
    80008408:	effc                	sd	a5,216(a5)
    8000840a:	ffff                	.insn	2, 0xffff
    8000840c:	effc                	sd	a5,216(a5)
    8000840e:	ffff                	.insn	2, 0xffff
    80008410:	efe4                	sd	s1,216(a5)
    80008412:	ffff                	.insn	2, 0xffff
    80008414:	f050                	sd	a2,160(s0)
    80008416:	ffff                	.insn	2, 0xffff
    80008418:	effc                	sd	a5,216(a5)
    8000841a:	ffff                	.insn	2, 0xffff
    8000841c:	efe4                	sd	s1,216(a5)
    8000841e:	ffff                	.insn	2, 0xffff
    80008420:	f008                	sd	a0,32(s0)
    80008422:	ffff                	.insn	2, 0xffff
    80008424:	f008                	sd	a0,32(s0)
    80008426:	ffff                	.insn	2, 0xffff
    80008428:	f008                	sd	a0,32(s0)
    8000842a:	ffff                	.insn	2, 0xffff
    8000842c:	f008                	sd	a0,32(s0)
    8000842e:	ffff                	.insn	2, 0xffff
    80008430:	f008                	sd	a0,32(s0)
    80008432:	ffff                	.insn	2, 0xffff
    80008434:	f008                	sd	a0,32(s0)
    80008436:	ffff                	.insn	2, 0xffff
    80008438:	f008                	sd	a0,32(s0)
    8000843a:	ffff                	.insn	2, 0xffff
    8000843c:	f008                	sd	a0,32(s0)
    8000843e:	ffff                	.insn	2, 0xffff
    80008440:	f008                	sd	a0,32(s0)
    80008442:	ffff                	.insn	2, 0xffff
    80008444:	effc                	sd	a5,216(a5)
    80008446:	ffff                	.insn	2, 0xffff
    80008448:	effc                	sd	a5,216(a5)
    8000844a:	ffff                	.insn	2, 0xffff
    8000844c:	effc                	sd	a5,216(a5)
    8000844e:	ffff                	.insn	2, 0xffff
    80008450:	effc                	sd	a5,216(a5)
    80008452:	ffff                	.insn	2, 0xffff
    80008454:	effc                	sd	a5,216(a5)
    80008456:	ffff                	.insn	2, 0xffff
    80008458:	effc                	sd	a5,216(a5)
    8000845a:	ffff                	.insn	2, 0xffff
    8000845c:	effc                	sd	a5,216(a5)
    8000845e:	ffff                	.insn	2, 0xffff
    80008460:	effc                	sd	a5,216(a5)
    80008462:	ffff                	.insn	2, 0xffff
    80008464:	effc                	sd	a5,216(a5)
    80008466:	ffff                	.insn	2, 0xffff
    80008468:	effc                	sd	a5,216(a5)
    8000846a:	ffff                	.insn	2, 0xffff
    8000846c:	effc                	sd	a5,216(a5)
    8000846e:	ffff                	.insn	2, 0xffff
    80008470:	effc                	sd	a5,216(a5)
    80008472:	ffff                	.insn	2, 0xffff
    80008474:	effc                	sd	a5,216(a5)
    80008476:	ffff                	.insn	2, 0xffff
    80008478:	effc                	sd	a5,216(a5)
    8000847a:	ffff                	.insn	2, 0xffff
    8000847c:	effc                	sd	a5,216(a5)
    8000847e:	ffff                	.insn	2, 0xffff
    80008480:	effc                	sd	a5,216(a5)
    80008482:	ffff                	.insn	2, 0xffff
    80008484:	effc                	sd	a5,216(a5)
    80008486:	ffff                	.insn	2, 0xffff
    80008488:	effc                	sd	a5,216(a5)
    8000848a:	ffff                	.insn	2, 0xffff
    8000848c:	effc                	sd	a5,216(a5)
    8000848e:	ffff                	.insn	2, 0xffff
    80008490:	effc                	sd	a5,216(a5)
    80008492:	ffff                	.insn	2, 0xffff
    80008494:	effc                	sd	a5,216(a5)
    80008496:	ffff                	.insn	2, 0xffff
    80008498:	effc                	sd	a5,216(a5)
    8000849a:	ffff                	.insn	2, 0xffff
    8000849c:	effc                	sd	a5,216(a5)
    8000849e:	ffff                	.insn	2, 0xffff
    800084a0:	effc                	sd	a5,216(a5)
    800084a2:	ffff                	.insn	2, 0xffff
    800084a4:	effc                	sd	a5,216(a5)
    800084a6:	ffff                	.insn	2, 0xffff
    800084a8:	effc                	sd	a5,216(a5)
    800084aa:	ffff                	.insn	2, 0xffff
    800084ac:	effc                	sd	a5,216(a5)
    800084ae:	ffff                	.insn	2, 0xffff
    800084b0:	effc                	sd	a5,216(a5)
    800084b2:	ffff                	.insn	2, 0xffff
    800084b4:	effc                	sd	a5,216(a5)
    800084b6:	ffff                	.insn	2, 0xffff
    800084b8:	effc                	sd	a5,216(a5)
    800084ba:	ffff                	.insn	2, 0xffff
    800084bc:	effc                	sd	a5,216(a5)
    800084be:	ffff                	.insn	2, 0xffff
    800084c0:	effc                	sd	a5,216(a5)
    800084c2:	ffff                	.insn	2, 0xffff
    800084c4:	effc                	sd	a5,216(a5)
    800084c6:	ffff                	.insn	2, 0xffff
    800084c8:	effc                	sd	a5,216(a5)
    800084ca:	ffff                	.insn	2, 0xffff
    800084cc:	effc                	sd	a5,216(a5)
    800084ce:	ffff                	.insn	2, 0xffff
    800084d0:	effc                	sd	a5,216(a5)
    800084d2:	ffff                	.insn	2, 0xffff
    800084d4:	effc                	sd	a5,216(a5)
    800084d6:	ffff                	.insn	2, 0xffff
    800084d8:	effc                	sd	a5,216(a5)
    800084da:	ffff                	.insn	2, 0xffff
    800084dc:	effc                	sd	a5,216(a5)
    800084de:	ffff                	.insn	2, 0xffff
    800084e0:	effc                	sd	a5,216(a5)
    800084e2:	ffff                	.insn	2, 0xffff
    800084e4:	effc                	sd	a5,216(a5)
    800084e6:	ffff                	.insn	2, 0xffff
    800084e8:	f13a                	sd	a4,160(sp)
    800084ea:	ffff                	.insn	2, 0xffff
    800084ec:	f1ae                	sd	a1,224(sp)
    800084ee:	ffff                	.insn	2, 0xffff
    800084f0:	effc                	sd	a5,216(a5)
    800084f2:	ffff                	.insn	2, 0xffff
    800084f4:	f104                	sd	s1,32(a0)
    800084f6:	ffff                	.insn	2, 0xffff
    800084f8:	effc                	sd	a5,216(a5)
    800084fa:	ffff                	.insn	2, 0xffff
    800084fc:	effc                	sd	a5,216(a5)
    800084fe:	ffff                	.insn	2, 0xffff
    80008500:	effc                	sd	a5,216(a5)
    80008502:	ffff                	.insn	2, 0xffff
    80008504:	effc                	sd	a5,216(a5)
    80008506:	ffff                	.insn	2, 0xffff
    80008508:	effc                	sd	a5,216(a5)
    8000850a:	ffff                	.insn	2, 0xffff
    8000850c:	f130                	sd	a2,96(a0)
    8000850e:	ffff                	.insn	2, 0xffff
    80008510:	effc                	sd	a5,216(a5)
    80008512:	ffff                	.insn	2, 0xffff
    80008514:	effc                	sd	a5,216(a5)
    80008516:	ffff                	.insn	2, 0xffff
    80008518:	f250                	sd	a2,160(a2)
    8000851a:	ffff                	.insn	2, 0xffff
    8000851c:	f146                	sd	a7,160(sp)
    8000851e:	ffff                	.insn	2, 0xffff
    80008520:	effc                	sd	a5,216(a5)
    80008522:	ffff                	.insn	2, 0xffff
    80008524:	effc                	sd	a5,216(a5)
    80008526:	ffff                	.insn	2, 0xffff
    80008528:	f164                	sd	s1,224(a0)
    8000852a:	ffff                	.insn	2, 0xffff
    8000852c:	effc                	sd	a5,216(a5)
    8000852e:	ffff                	.insn	2, 0xffff
    80008530:	f1ca                	sd	s2,224(sp)
    80008532:	ffff                	.insn	2, 0xffff
    80008534:	effc                	sd	a5,216(a5)
    80008536:	ffff                	.insn	2, 0xffff
    80008538:	effc                	sd	a5,216(a5)
    8000853a:	ffff                	.insn	2, 0xffff
    8000853c:	f086                	sd	ra,96(sp)
    8000853e:	ffff                	.insn	2, 0xffff

Disassembly of section .rodata.str1.8:

0000000080008540 <.rodata.str1.8>:
    80008540:	3054                	fld	fa3,160(s0)
    80008542:	332e                	fld	ft6,232(sp)
    80008544:	2d65                	addw	s10,s10,25
    80008546:	4631                	li	a2,12
	...
    80008550:	542d                	li	s0,-21
    80008552:	542e                	lw	s0,232(sp)
    80008554:	71542b2b          	.insn	4, 0x71542b2b
	...
    80008560:	5431                	li	s0,-20
    80008562:	65342e33          	.insn	4, 0x65342e33
    80008566:	7a34                	ld	a3,112(a2)
	...
    80008570:	302e3433          	.insn	4, 0x302e3433
    80008574:	2d65                	addw	s10,s10,25
    80008576:	5e54                	lw	a3,60(a2)
	...
    80008580:	2e35                	addw	t3,t3,13
    80008582:	3035                	.insn	2, 0x3035
    80008584:	6530                	ld	a2,72(a0)
    80008586:	0000332b          	.insn	4, 0x332b
    8000858a:	0000                	unimp
    8000858c:	0000                	unimp
    8000858e:	0000                	unimp
    80008590:	2e2d                	addw	t3,t3,11
    80008592:	3231                	addw	tp,tp,-20 # ffffffffffffffec <__global_pointer$+0xffffffff7fff6604>
    80008594:	322d6533          	.insn	4, 0x322d6533
	...
    800085a0:	382d                	addw	a6,a6,-21
    800085a2:	382b6537          	lui	a0,0x382b6
    800085a6:	00003233          	snez	tp,zero
    800085aa:	0000                	unimp
    800085ac:	0000                	unimp
    800085ae:	0000                	unimp
    800085b0:	362e302b          	.insn	4, 0x362e302b
    800085b4:	2d65                	addw	s10,s10,25
    800085b6:	3231                	addw	tp,tp,-20 # ffffffffffffffec <__global_pointer$+0xffffffff7fff6604>
	...
    800085c0:	352e3533          	.insn	4, 0x352e3533
    800085c4:	3434                	fld	fa3,104(s0)
    800085c6:	3030                	fld	fa2,96(s0)
	...
    800085d0:	312e                	fld	ft2,232(sp)
    800085d2:	3332                	fld	ft6,296(sp)
    800085d4:	3534                	fld	fa3,104(a0)
    800085d6:	3030                	fld	fa2,96(s0)
	...
    800085e0:	312d                	addw	sp,sp,-21
    800085e2:	3031                	.insn	2, 0x3031
    800085e4:	372e                	fld	fa4,232(sp)
    800085e6:	3030                	fld	fa2,96(s0)
	...
    800085f0:	362e302b          	.insn	4, 0x362e302b
    800085f4:	3434                	fld	fa3,104(s0)
    800085f6:	3030                	fld	fa2,96(s0)
	...
    80008600:	3035                	.insn	2, 0x3035
    80008602:	3231                	addw	tp,tp,-20 # ffffffffffffffec <__global_pointer$+0xffffffff7fff6604>
    80008604:	0000                	unimp
    80008606:	0000                	unimp
    80008608:	3231                	addw	tp,tp,-20 # ffffffffffffffec <__global_pointer$+0xffffffff7fff6604>
    8000860a:	00003433          	snez	s0,zero
    8000860e:	0000                	unimp
    80008610:	382d                	addw	a6,a6,-21
    80008612:	00003437          	lui	s0,0x3
    80008616:	0000                	unimp
    80008618:	3232312b          	.insn	4, 0x3232312b
    8000861c:	0000                	unimp
    8000861e:	0000                	unimp
    80008620:	6b36                	ld	s6,328(sp)
    80008622:	7020                	ld	s0,96(s0)
    80008624:	7265                	lui	tp,0xffff9
    80008626:	6f66                	ld	t5,88(sp)
    80008628:	6d72                	ld	s10,280(sp)
    8000862a:	6e61                	lui	t3,0x18
    8000862c:	72206563          	bltu	zero,sp,80008d56 <errpat+0x98e>
    80008630:	6e75                	lui	t3,0x1d
    80008632:	7020                	ld	s0,96(s0)
    80008634:	7261                	lui	tp,0xffff8
    80008636:	6d61                	lui	s10,0x18
    80008638:	7465                	lui	s0,0xffff9
    8000863a:	7265                	lui	tp,0xffff9
    8000863c:	6f662073          	csrs	0x6f6,a2
    80008640:	2072                	fld	ft0,280(sp)
    80008642:	65726f63          	bltu	tp,s7,80008ca0 <errpat+0x8d8>
    80008646:	616d                	add	sp,sp,240
    80008648:	6b72                	ld	s6,280(sp)
    8000864a:	0a2e                	sll	s4,s4,0xb
    8000864c:	0000                	unimp
    8000864e:	0000                	unimp
    80008650:	6b36                	ld	s6,328(sp)
    80008652:	7620                	ld	s0,104(a2)
    80008654:	6c61                	lui	s8,0x18
    80008656:	6469                	lui	s0,0x1a
    80008658:	7461                	lui	s0,0xffff8
    8000865a:	6f69                	lui	t5,0x1a
    8000865c:	206e                	fld	ft0,216(sp)
    8000865e:	7572                	ld	a0,312(sp)
    80008660:	206e                	fld	ft0,216(sp)
    80008662:	6170                	ld	a2,192(a0)
    80008664:	6172                	ld	sp,280(sp)
    80008666:	656d                	lui	a0,0x1b
    80008668:	6574                	ld	a3,200(a0)
    8000866a:	7372                	ld	t1,312(sp)
    8000866c:	6620                	ld	s0,72(a2)
    8000866e:	6320726f          	jal	tp,8000fca0 <__global_pointer$+0x62b8>
    80008672:	6d65726f          	jal	tp,8005fd48 <__global_pointer$+0x56360>
    80008676:	7261                	lui	tp,0xffff8
    80008678:	000a2e6b          	.insn	4, 0x000a2e6b
    8000867c:	0000                	unimp
    8000867e:	0000                	unimp
    80008680:	7250                	ld	a2,160(a2)
    80008682:	6c69666f          	jal	a2,8009ed48 <__global_pointer$+0x95360>
    80008686:	2065                	.insn	2, 0x2065
    80008688:	656e6567          	.insn	4, 0x656e6567
    8000868c:	6172                	ld	sp,280(sp)
    8000868e:	6974                	ld	a3,208(a0)
    80008690:	72206e6f          	jal	t3,8000edb2 <__global_pointer$+0x53ca>
    80008694:	6e75                	lui	t3,0x1d
    80008696:	7020                	ld	s0,96(s0)
    80008698:	7261                	lui	tp,0xffff8
    8000869a:	6d61                	lui	s10,0x18
    8000869c:	7465                	lui	s0,0xffff9
    8000869e:	7265                	lui	tp,0xffff9
    800086a0:	6f662073          	csrs	0x6f6,a2
    800086a4:	2072                	fld	ft0,280(sp)
    800086a6:	65726f63          	bltu	tp,s7,80008d04 <errpat+0x93c>
    800086aa:	616d                	add	sp,sp,240
    800086ac:	6b72                	ld	s6,280(sp)
    800086ae:	0a2e                	sll	s4,s4,0xb
	...
    800086b8:	4b32                	lw	s6,12(sp)
    800086ba:	7020                	ld	s0,96(s0)
    800086bc:	7265                	lui	tp,0xffff9
    800086be:	6f66                	ld	t5,88(sp)
    800086c0:	6d72                	ld	s10,280(sp)
    800086c2:	6e61                	lui	t3,0x18
    800086c4:	72206563          	bltu	zero,sp,80008dee <errpat+0xa26>
    800086c8:	6e75                	lui	t3,0x1d
    800086ca:	7020                	ld	s0,96(s0)
    800086cc:	7261                	lui	tp,0xffff8
    800086ce:	6d61                	lui	s10,0x18
    800086d0:	7465                	lui	s0,0xffff9
    800086d2:	7265                	lui	tp,0xffff9
    800086d4:	6f662073          	csrs	0x6f6,a2
    800086d8:	2072                	fld	ft0,280(sp)
    800086da:	65726f63          	bltu	tp,s7,80008d38 <errpat+0x970>
    800086de:	616d                	add	sp,sp,240
    800086e0:	6b72                	ld	s6,280(sp)
    800086e2:	0a2e                	sll	s4,s4,0xb
    800086e4:	0000                	unimp
    800086e6:	0000                	unimp
    800086e8:	4b32                	lw	s6,12(sp)
    800086ea:	7620                	ld	s0,104(a2)
    800086ec:	6c61                	lui	s8,0x18
    800086ee:	6469                	lui	s0,0x1a
    800086f0:	7461                	lui	s0,0xffff8
    800086f2:	6f69                	lui	t5,0x1a
    800086f4:	206e                	fld	ft0,216(sp)
    800086f6:	7572                	ld	a0,312(sp)
    800086f8:	206e                	fld	ft0,216(sp)
    800086fa:	6170                	ld	a2,192(a0)
    800086fc:	6172                	ld	sp,280(sp)
    800086fe:	656d                	lui	a0,0x1b
    80008700:	6574                	ld	a3,200(a0)
    80008702:	7372                	ld	t1,312(sp)
    80008704:	6620                	ld	s0,72(a2)
    80008706:	6320726f          	jal	tp,8000fd38 <__global_pointer$+0x6350>
    8000870a:	6d65726f          	jal	tp,8005fde0 <__global_pointer$+0x563f8>
    8000870e:	7261                	lui	tp,0xffff8
    80008710:	000a2e6b          	.insn	4, 0x000a2e6b
    80008714:	0000                	unimp
    80008716:	0000                	unimp
    80008718:	5d75255b          	.insn	4, 0x5d75255b
    8000871c:	5245                	li	tp,-15
    8000871e:	4f52                	lw	t5,20(sp)
    80008720:	2152                	fld	ft2,272(sp)
    80008722:	6c20                	ld	s0,88(s0)
    80008724:	7369                	lui	t1,0xffffa
    80008726:	2074                	fld	fa3,192(s0)
    80008728:	20637263          	bgeu	t1,t1,8000892c <errpat+0x564>
    8000872c:	7830                	ld	a2,112(s0)
    8000872e:	3025                	.insn	2, 0x3025
    80008730:	7834                	ld	a3,112(s0)
    80008732:	2d20                	fld	fs0,88(a0)
    80008734:	7320                	ld	s0,96(a4)
    80008736:	6f68                	ld	a0,216(a4)
    80008738:	6c75                	lui	s8,0x1d
    8000873a:	2064                	fld	fs1,192(s0)
    8000873c:	6562                	ld	a0,24(sp)
    8000873e:	3020                	fld	fs0,96(s0)
    80008740:	2578                	fld	fa4,200(a0)
    80008742:	3430                	fld	fa2,104(s0)
    80008744:	0a78                	add	a4,sp,284
    80008746:	0000                	unimp
    80008748:	5d75255b          	.insn	4, 0x5d75255b
    8000874c:	5245                	li	tp,-15
    8000874e:	4f52                	lw	t5,20(sp)
    80008750:	2152                	fld	ft2,272(sp)
    80008752:	6d20                	ld	s0,88(a0)
    80008754:	7461                	lui	s0,0xffff8
    80008756:	6972                	ld	s2,280(sp)
    80008758:	2078                	fld	fa4,192(s0)
    8000875a:	20637263          	bgeu	t1,t1,8000895e <errpat+0x596>
    8000875e:	7830                	ld	a2,112(s0)
    80008760:	3025                	.insn	2, 0x3025
    80008762:	7834                	ld	a3,112(s0)
    80008764:	2d20                	fld	fs0,88(a0)
    80008766:	7320                	ld	s0,96(a4)
    80008768:	6f68                	ld	a0,216(a4)
    8000876a:	6c75                	lui	s8,0x1d
    8000876c:	2064                	fld	fs1,192(s0)
    8000876e:	6562                	ld	a0,24(sp)
    80008770:	3020                	fld	fs0,96(s0)
    80008772:	2578                	fld	fa4,200(a0)
    80008774:	3430                	fld	fa2,104(s0)
    80008776:	0a78                	add	a4,sp,284
	...
    80008780:	5d75255b          	.insn	4, 0x5d75255b
    80008784:	5245                	li	tp,-15
    80008786:	4f52                	lw	t5,20(sp)
    80008788:	2152                	fld	ft2,272(sp)
    8000878a:	7320                	ld	s0,96(a4)
    8000878c:	6174                	ld	a3,192(a0)
    8000878e:	6574                	ld	a3,200(a0)
    80008790:	6320                	ld	s0,64(a4)
    80008792:	6372                	ld	t1,280(sp)
    80008794:	3020                	fld	fs0,96(s0)
    80008796:	2578                	fld	fa4,200(a0)
    80008798:	3430                	fld	fa2,104(s0)
    8000879a:	2078                	fld	fa4,192(s0)
    8000879c:	202d                	.insn	2, 0x202d
    8000879e:	756f6873          	csrrs	a6,0x756,30
    800087a2:	646c                	ld	a1,200(s0)
    800087a4:	6220                	ld	s0,64(a2)
    800087a6:	2065                	.insn	2, 0x2065
    800087a8:	7830                	ld	a2,112(s0)
    800087aa:	3025                	.insn	2, 0x3025
    800087ac:	7834                	ld	a3,112(s0)
    800087ae:	000a                	c.slli	zero,0x2
    800087b0:	65726f43          	.insn	4, 0x65726f43
    800087b4:	614d                	add	sp,sp,176
    800087b6:	6b72                	ld	s6,280(sp)
    800087b8:	5320                	lw	s0,96(a4)
    800087ba:	7a69                	lui	s4,0xffffa
    800087bc:	2065                	.insn	2, 0x2065
    800087be:	2020                	fld	fs0,64(s0)
    800087c0:	3a20                	fld	fs0,112(a2)
    800087c2:	2520                	fld	fs0,72(a0)
    800087c4:	756c                	ld	a1,232(a0)
    800087c6:	000a                	c.slli	zero,0x2
    800087c8:	6f54                	ld	a3,152(a4)
    800087ca:	6174                	ld	a3,192(a0)
    800087cc:	206c                	fld	fa1,192(s0)
    800087ce:	6974                	ld	a3,208(a0)
    800087d0:	20736b63          	bltu	t1,t2,800089e6 <errpat+0x61e>
    800087d4:	2020                	fld	fs0,64(s0)
    800087d6:	2020                	fld	fs0,64(s0)
    800087d8:	3a20                	fld	fs0,112(a2)
    800087da:	2520                	fld	fs0,72(a0)
    800087dc:	756c                	ld	a1,232(a0)
    800087de:	000a                	c.slli	zero,0x2
    800087e0:	6f54                	ld	a3,152(a4)
    800087e2:	6174                	ld	a3,192(a0)
    800087e4:	206c                	fld	fa1,192(s0)
    800087e6:	6974                	ld	a3,208(a0)
    800087e8:	656d                	lui	a0,0x1b
    800087ea:	2820                	fld	fs0,80(s0)
    800087ec:	73636573          	csrrs	a0,mhpmevent22h,6
    800087f0:	3a29                	addw	s4,s4,-22 # ffffffffffff9fea <__global_pointer$+0xffffffff7fff0602>
    800087f2:	2520                	fld	fs0,72(a0)
    800087f4:	0a66                	sll	s4,s4,0x19
    800087f6:	0000                	unimp
    800087f8:	7449                	lui	s0,0xffff2
    800087fa:	7265                	lui	tp,0xffff9
    800087fc:	7461                	lui	s0,0xffff8
    800087fe:	6f69                	lui	t5,0x1a
    80008800:	736e                	ld	t1,248(sp)
    80008802:	6365532f          	.insn	4, 0x6365532f
    80008806:	2020                	fld	fs0,64(s0)
    80008808:	3a20                	fld	fs0,112(a2)
    8000880a:	2520                	fld	fs0,72(a0)
    8000880c:	0a66                	sll	s4,s4,0x19
    8000880e:	0000                	unimp
    80008810:	5245                	li	tp,-15
    80008812:	4f52                	lw	t5,20(sp)
    80008814:	2152                	fld	ft2,272(sp)
    80008816:	4d20                	lw	s0,88(a0)
    80008818:	7375                	lui	t1,0xffffd
    8000881a:	2074                	fld	fa3,192(s0)
    8000881c:	7865                	lui	a6,0xffff9
    8000881e:	6365                	lui	t1,0x19
    80008820:	7475                	lui	s0,0xffffd
    80008822:	2065                	.insn	2, 0x2065
    80008824:	6f66                	ld	t5,88(sp)
    80008826:	2072                	fld	ft0,280(sp)
    80008828:	7461                	lui	s0,0xffff8
    8000882a:	6c20                	ld	s0,88(s0)
    8000882c:	6165                	add	sp,sp,112
    8000882e:	31207473          	csrrc	s0,0x312,0
    80008832:	2030                	fld	fa2,64(s0)
    80008834:	73636573          	csrrs	a0,mhpmevent22h,6
    80008838:	6620                	ld	s0,72(a2)
    8000883a:	6120726f          	jal	tp,8000fe4c <__global_pointer$+0x6464>
    8000883e:	7620                	ld	s0,104(a2)
    80008840:	6c61                	lui	s8,0x18
    80008842:	6469                	lui	s0,0x1a
    80008844:	7220                	ld	s0,96(a2)
    80008846:	7365                	lui	t1,0xffff9
    80008848:	6c75                	lui	s8,0x1d
    8000884a:	2174                	fld	fa3,192(a0)
    8000884c:	000a                	c.slli	zero,0x2
    8000884e:	0000                	unimp
    80008850:	7449                	lui	s0,0xffff2
    80008852:	7265                	lui	tp,0xffff9
    80008854:	7461                	lui	s0,0xffff8
    80008856:	6f69                	lui	t5,0x1a
    80008858:	736e                	ld	t1,248(sp)
    8000885a:	2020                	fld	fs0,64(s0)
    8000885c:	2020                	fld	fs0,64(s0)
    8000885e:	2020                	fld	fs0,64(s0)
    80008860:	3a20                	fld	fs0,112(a2)
    80008862:	2520                	fld	fs0,72(a0)
    80008864:	756c                	ld	a1,232(a0)
    80008866:	000a                	c.slli	zero,0x2
    80008868:	6972                	ld	s2,280(sp)
    8000886a:	36766373          	csrrs	t1,0x367,12
    8000886e:	2d34                	fld	fa3,88(a0)
    80008870:	6e75                	lui	t3,0x1d
    80008872:	776f6e6b          	.insn	4, 0x776f6e6b
    80008876:	2d6e                	fld	fs10,216(sp)
    80008878:	6c65                	lui	s8,0x19
    8000887a:	2d66                	fld	fs10,88(sp)
    8000887c:	3231                	addw	tp,tp,-20 # ffffffffffff8fec <__global_pointer$+0xffffffff7ffef604>
    8000887e:	322e                	fld	ft4,232(sp)
    80008880:	302e                	fld	ft0,232(sp)
    80008882:	0000                	unimp
    80008884:	0000                	unimp
    80008886:	0000                	unimp
    80008888:	706d6f43          	fmadd.s	ft10,fs10,ft6,fa4,unknown
    8000888c:	6c69                	lui	s8,0x1a
    8000888e:	7265                	lui	tp,0xffff9
    80008890:	7620                	ld	s0,104(a2)
    80008892:	7265                	lui	tp,0xffff9
    80008894:	6e6f6973          	csrrs	s2,0x6e6,30
    80008898:	3a20                	fld	fs0,112(a2)
    8000889a:	2520                	fld	fs0,72(a0)
    8000889c:	00000a73          	.insn	4, 0x0a73
    800088a0:	572d                	li	a4,-21
    800088a2:	2c6c                	fld	fa1,216(s0)
    800088a4:	4d2d                	li	s10,11
    800088a6:	7061                	c.lui	zero,0xffff8
    800088a8:	6f3d                	lui	t5,0xf
    800088aa:	7475                	lui	s0,0xffffd
    800088ac:	7570                	ld	a2,232(a0)
    800088ae:	2f74                	fld	fa3,216(a4)
    800088b0:	65726f63          	bltu	tp,s7,80008f0e <errpat+0xb46>
    800088b4:	616d                	add	sp,sp,240
    800088b6:	6b72                	ld	s6,280(sp)
    800088b8:	78652f73          	csrrs	t5,0x786,a0
    800088bc:	6365                	lui	t1,0x19
    800088be:	616d                	add	sp,sp,240
    800088c0:	2e70                	fld	fa2,216(a2)
    800088c2:	616d                	add	sp,sp,240
    800088c4:	2070                	fld	fa2,192(s0)
    800088c6:	662d                	lui	a2,0xb
    800088c8:	38756e67          	.insn	4, 0x38756e67
    800088cc:	2d39                	addw	s10,s10,14 # 1800e <_tbss_end+0x1800e>
    800088ce:	6e69                	lui	t3,0x1a
    800088d0:	696c                	ld	a1,208(a0)
    800088d2:	656e                	ld	a0,216(sp)
    800088d4:	2d20                	fld	fs0,88(a0)
    800088d6:	636d                	lui	t1,0x1b
    800088d8:	6f6d                	lui	t5,0x1b
    800088da:	6564                	ld	s1,200(a0)
    800088dc:	3d6c                	fld	fa1,248(a0)
    800088de:	656d                	lui	a0,0x1b
    800088e0:	6164                	ld	s1,192(a0)
    800088e2:	796e                	ld	s2,248(sp)
    800088e4:	2d20                	fld	fs0,88(a0)
    800088e6:	4344                	lw	s1,4(a4)
    800088e8:	5355                	li	t1,-11
    800088ea:	4f54                	lw	a3,28(a4)
    800088ec:	204d                	.insn	2, 0x204d
    800088ee:	442d                	li	s0,11
    800088f0:	4550                	lw	a2,12(a0)
    800088f2:	4652                	lw	a2,20(sp)
    800088f4:	414d524f          	fnmadd.s	ft4,fs10,fs4,fs0,unknown
    800088f8:	434e                	lw	t1,208(sp)
    800088fa:	5f45                	li	t5,-15
    800088fc:	5552                	lw	a0,52(sp)
    800088fe:	3d4e                	fld	fs10,240(sp)
    80008900:	2031                	.insn	2, 0x2031
    80008902:	442d                	li	s0,11
    80008904:	414d                	li	sp,19
    80008906:	4e49                	li	t3,18
    80008908:	485f 5341 4e5f      	.insn	6, 0x4e5f5341485f
    8000890e:	4752414f          	.insn	4, 0x4752414f
    80008912:	20313d43          	fmadd.s	fs10,ft2,ft3,ft4,rup
    80008916:	442d                	li	s0,11
    80008918:	4148                	lw	a0,4(a0)
    8000891a:	54535f53          	.insn	4, 0x54535f53
    8000891e:	4944                	lw	s1,20(a0)
    80008920:	442d204f          	.insn	4, 0x442d204f
    80008924:	4148                	lw	a0,4(a0)
    80008926:	52505f53          	.insn	4, 0x52505f53
    8000892a:	4e49                	li	t3,18
    8000892c:	4654                	lw	a3,12(a2)
    8000892e:	2d20                	fld	fs0,88(a0)
    80008930:	4844                	lw	s1,20(s0)
    80008932:	5341                	li	t1,-16
    80008934:	545f 4d49 5f45      	.insn	6, 0x5f454d49545f
    8000893a:	2048                	fld	fa0,128(s0)
    8000893c:	442d                	li	s0,11
    8000893e:	5355                	li	t1,-11
    80008940:	5f45                	li	t5,-15
    80008942:	434f4c43          	fmadd.d	fs8,ft10,fs4,fs0,rmm
    80008946:	442d204b          	.insn	4, 0x442d204b
    8000894a:	4148                	lw	a0,4(a0)
    8000894c:	4c465f53          	.insn	4, 0x4c465f53
    80008950:	2054414f          	fnmadd.s	ft2,fs0,ft5,ft4,rmm
    80008954:	442d                	li	s0,11
    80008956:	5449                	li	s0,-14
    80008958:	5245                	li	tp,-15
    8000895a:	5441                	li	s0,-16
    8000895c:	4f49                	li	t5,18
    8000895e:	534e                	lw	t1,240(sp)
    80008960:	343d                	addw	s0,s0,-17 # ffffffffffffcfef <__global_pointer$+0xffffffff7fff3607>
    80008962:	2030                	fld	fa2,64(s0)
    80008964:	4f2d                	li	t5,11
    80008966:	6166                	ld	sp,88(sp)
    80008968:	2d207473          	csrrc	s0,0x2d2,0
    8000896c:	6f6e                	ld	t5,216(sp)
    8000896e:	72617473          	csrrc	s0,mhpmevent6h,2
    80008972:	6674                	ld	a3,200(a2)
    80008974:	6c69                	lui	s8,0x1a
    80008976:	7365                	lui	t1,0xffff9
    80008978:	2d20                	fld	fs0,88(a0)
    8000897a:	6f6e                	ld	t5,216(sp)
    8000897c:	6c647473          	csrrc	s0,0x6c6,8
    80008980:	6269                	lui	tp,0x1a
    80008982:	2d20                	fld	fs0,88(a0)
    80008984:	6e66                	ld	t3,88(sp)
    80008986:	75622d6f          	jal	s10,8002b0dc <__global_pointer$+0x216f4>
    8000898a:	6c69                	lui	s8,0x1a
    8000898c:	6974                	ld	a3,208(a0)
    8000898e:	2d6e                	fld	fs10,216(sp)
    80008990:	7270                	ld	a2,224(a2)
    80008992:	6e69                	lui	t3,0x1a
    80008994:	6674                	ld	a3,200(a2)
    80008996:	2d20                	fld	fs0,88(a0)
    80008998:	616d                	add	sp,sp,240
    8000899a:	6962                	ld	s2,24(sp)
    8000899c:	6c3d                	lui	s8,0xf
    8000899e:	3670                	fld	fa2,232(a2)
    800089a0:	6434                	ld	a3,72(s0)
    800089a2:	2d20                	fld	fs0,88(a0)
    800089a4:	616d                	add	sp,sp,240
    800089a6:	6372                	ld	t1,280(sp)
    800089a8:	3d68                	fld	fa0,248(a0)
    800089aa:	7672                	ld	a2,312(sp)
    800089ac:	3436                	fld	fs0,360(sp)
    800089ae:	6d69                	lui	s10,0x1a
    800089b0:	6661                	lui	a2,0x18
    800089b2:	6364                	ld	s1,192(a4)
    800089b4:	2d20                	fld	fs0,88(a0)
    800089b6:	6e66                	ld	t3,88(sp)
    800089b8:	74732d6f          	jal	s10,8003b8fe <__global_pointer$+0x31f16>
    800089bc:	6361                	lui	t1,0x18
    800089be:	72702d6b          	.insn	4, 0x72702d6b
    800089c2:	6365746f          	jal	s0,8005fff8 <__global_pointer$+0x56610>
    800089c6:	6f74                	ld	a3,216(a4)
    800089c8:	2072                	fld	ft0,280(sp)
    800089ca:	6d2d                	lui	s10,0xb
    800089cc:	6c616d73          	csrrs	s10,0x6c6,2
    800089d0:	2d6c                	fld	fa1,216(a0)
    800089d2:	6164                	ld	s1,192(a0)
    800089d4:	6174                	ld	a3,192(a0)
    800089d6:	6c2d                	lui	s8,0xb
    800089d8:	6d69                	lui	s10,0x1a
    800089da:	7469                	lui	s0,0xffffa
    800089dc:	383d                	addw	a6,a6,-17 # ffffffffffff8fef <__global_pointer$+0xffffffff7ffef607>
    800089de:	2d20                	fld	fs0,88(a0)
    800089e0:	6966                	ld	s2,88(sp)
    800089e2:	6c6e                	ld	s8,216(sp)
    800089e4:	6e69                	lui	t3,0x1a
    800089e6:	2d65                	addw	s10,s10,25 # 1a019 <_tbss_end+0x1a019>
    800089e8:	7461                	lui	s0,0xffff8
    800089ea:	63696d6f          	jal	s10,8009f020 <__global_pointer$+0x95638>
    800089ee:	6d2d2073          	csrs	0x6d2,s10
    800089f2:	726f6873          	csrrs	a6,mhpmevent6h,30
    800089f6:	6574                	ld	a3,200(a0)
    800089f8:	2d6e                	fld	fs10,216(sp)
    800089fa:	656d                	lui	a0,0x1b
    800089fc:	726d                	lui	tp,0xffffb
    800089fe:	6665                	lui	a2,0x19
    80008a00:	6d2d2073          	csrs	0x6d2,s10
    80008a04:	69727473          	csrrc	s0,0x697,4
    80008a08:	612d7463          	bgeu	s10,s2,80009010 <errpat+0xc48>
    80008a0c:	696c                	ld	a1,208(a0)
    80008a0e:	2d206e67          	.insn	4, 0x2d206e67
    80008a12:	656d                	lui	a0,0x1b
    80008a14:	7078                	ld	a4,224(s0)
    80008a16:	696c                	ld	a1,208(a0)
    80008a18:	2d746963          	bltu	s0,s7,80008cea <errpat+0x922>
    80008a1c:	6572                	ld	a0,280(sp)
    80008a1e:	6f6c                	ld	a1,216(a4)
    80008a20:	2d207363          	bgeu	zero,s2,80008ce6 <errpat+0x91e>
    80008a24:	702d                	c.lui	zero,0xfffeb
    80008a26:	7261                	lui	tp,0xffff8
    80008a28:	6d61                	lui	s10,0x18
    80008a2a:	6d3d                	lui	s10,0xf
    80008a2c:	7861                	lui	a6,0xffff8
    80008a2e:	692d                	lui	s2,0xb
    80008a30:	6c6e                	ld	s8,216(sp)
    80008a32:	6e69                	lui	t3,0x1a
    80008a34:	2d65                	addw	s10,s10,25 # f019 <_tbss_end+0xf019>
    80008a36:	7566                	ld	a0,120(sp)
    80008a38:	636e                	ld	t1,216(sp)
    80008a3a:	6974                	ld	a3,208(a0)
    80008a3c:	2d736e6f          	jal	t3,8003f512 <__global_pointer$+0x35b2a>
    80008a40:	6c6c6163          	bltu	s8,t1,80009102 <errpat+0xd3a>
    80008a44:	6465                	lui	s0,0x19
    80008a46:	6f2d                	lui	t5,0xb
    80008a48:	636e                	ld	t1,216(sp)
    80008a4a:	2d65                	addw	s10,s10,25
    80008a4c:	6e69                	lui	t3,0x1a
    80008a4e:	3d736e73          	csrrs	t3,0x3d7,6
    80008a52:	3034                	fld	fa3,96(s0)
    80008a54:	3030                	fld	fa2,96(s0)
    80008a56:	2d20                	fld	fs0,88(a0)
    80008a58:	702d                	c.lui	zero,0xfffeb
    80008a5a:	7261                	lui	tp,0xffff8
    80008a5c:	6d61                	lui	s10,0x18
    80008a5e:	6d3d                	lui	s10,0xf
    80008a60:	7861                	lui	a6,0xffff8
    80008a62:	692d                	lui	s2,0xb
    80008a64:	6c6e                	ld	s8,216(sp)
    80008a66:	6e69                	lui	t3,0x1a
    80008a68:	2d65                	addw	s10,s10,25 # f019 <_tbss_end+0xf019>
    80008a6a:	7566                	ld	a0,120(sp)
    80008a6c:	636e                	ld	t1,216(sp)
    80008a6e:	6974                	ld	a3,208(a0)
    80008a70:	2d736e6f          	jal	t3,8003f546 <__global_pointer$+0x35b5e>
    80008a74:	6c6c6163          	bltu	s8,t1,80009136 <errpat+0xd6e>
    80008a78:	6465                	lui	s0,0x19
    80008a7a:	6f2d                	lui	t5,0xb
    80008a7c:	636e                	ld	t1,216(sp)
    80008a7e:	2d65                	addw	s10,s10,25
    80008a80:	6f6c                	ld	a1,216(a4)
    80008a82:	642d706f          	j	800e00c4 <__global_pointer$+0xd66dc>
    80008a86:	7065                	c.lui	zero,0xffff9
    80008a88:	6874                	ld	a3,208(s0)
    80008a8a:	323d                	addw	tp,tp,-17 # ffffffffffff7fef <__global_pointer$+0xffffffff7ffee607>
    80008a8c:	2030                	fld	fa2,64(s0)
    80008a8e:	2d2d                	addw	s10,s10,11
    80008a90:	6170                	ld	a2,192(a0)
    80008a92:	6172                	ld	sp,280(sp)
    80008a94:	3d6d                	addw	s10,s10,-5
    80008a96:	616d                	add	sp,sp,240
    80008a98:	2d78                	fld	fa4,216(a0)
    80008a9a:	6e69                	lui	t3,0x1a
    80008a9c:	696c                	ld	a1,208(a0)
    80008a9e:	656e                	ld	a0,216(sp)
    80008aa0:	692d                	lui	s2,0xb
    80008aa2:	736e                	ld	t1,248(sp)
    80008aa4:	736e                	ld	t1,248(sp)
    80008aa6:	612d                	add	sp,sp,224
    80008aa8:	7475                	lui	s0,0xffffd
    80008aaa:	30313d6f          	jal	s10,8001c5ac <__global_pointer$+0x12bc4>
    80008aae:	3030                	fld	fa2,96(s0)
    80008ab0:	2d20                	fld	fs0,88(a0)
    80008ab2:	702d                	c.lui	zero,0xfffeb
    80008ab4:	7261                	lui	tp,0xffff8
    80008ab6:	6d61                	lui	s10,0x18
    80008ab8:	6d3d                	lui	s10,0xf
    80008aba:	7861                	lui	a6,0xffff8
    80008abc:	692d                	lui	s2,0xb
    80008abe:	6c6e                	ld	s8,216(sp)
    80008ac0:	6e69                	lui	t3,0x1a
    80008ac2:	2d65                	addw	s10,s10,25 # f019 <_tbss_end+0xf019>
    80008ac4:	6e69                	lui	t3,0x1a
    80008ac6:	2d736e73          	csrrs	t3,0x2d7,6
    80008aca:	6572                	ld	a0,280(sp)
    80008acc:	73727563          	bgeu	tp,s7,800091f6 <mem_name+0x26>
    80008ad0:	7669                	lui	a2,0xffffa
    80008ad2:	2d65                	addw	s10,s10,25
    80008ad4:	7561                	lui	a0,0xffff8
    80008ad6:	6f74                	ld	a3,216(a4)
    80008ad8:	313d                	addw	sp,sp,-17
    80008ada:	3534                	fld	fa3,104(a0)
    80008adc:	2030                	fld	fa2,64(s0)
    80008ade:	2d2d                	addw	s10,s10,11
    80008ae0:	6170                	ld	a2,192(a0)
    80008ae2:	6172                	ld	sp,280(sp)
    80008ae4:	3d6d                	addw	s10,s10,-5
    80008ae6:	616d                	add	sp,sp,240
    80008ae8:	2d78                	fld	fa4,216(a0)
    80008aea:	6e69                	lui	t3,0x1a
    80008aec:	696c                	ld	a1,208(a0)
    80008aee:	656e                	ld	a0,216(sp)
    80008af0:	692d                	lui	s2,0xb
    80008af2:	736e                	ld	t1,248(sp)
    80008af4:	736e                	ld	t1,248(sp)
    80008af6:	722d                	lui	tp,0xfffeb
    80008af8:	6365                	lui	t1,0x19
    80008afa:	7275                	lui	tp,0xffffd
    80008afc:	65766973          	csrrs	s2,hviprio2h,12
    80008b00:	313d                	addw	sp,sp,-17
    80008b02:	3534                	fld	fa3,104(a0)
    80008b04:	2030                	fld	fa2,64(s0)
    80008b06:	2d2d                	addw	s10,s10,11
    80008b08:	6170                	ld	a2,192(a0)
    80008b0a:	6172                	ld	sp,280(sp)
    80008b0c:	3d6d                	addw	s10,s10,-5
    80008b0e:	616d                	add	sp,sp,240
    80008b10:	2d78                	fld	fa4,216(a0)
    80008b12:	6e69                	lui	t3,0x1a
    80008b14:	696c                	ld	a1,208(a0)
    80008b16:	656e                	ld	a0,216(sp)
    80008b18:	692d                	lui	s2,0xb
    80008b1a:	736e                	ld	t1,248(sp)
    80008b1c:	736e                	ld	t1,248(sp)
    80008b1e:	732d                	lui	t1,0xfffeb
    80008b20:	6e69                	lui	t3,0x1a
    80008b22:	3d656c67          	.insn	4, 0x3d656c67
    80008b26:	20303037          	lui	zero,0x20303
    80008b2a:	2d2d                	addw	s10,s10,11
    80008b2c:	6170                	ld	a2,192(a0)
    80008b2e:	6172                	ld	sp,280(sp)
    80008b30:	3d6d                	addw	s10,s10,-5
    80008b32:	616d                	add	sp,sp,240
    80008b34:	2d78                	fld	fa4,216(a0)
    80008b36:	6e69                	lui	t3,0x1a
    80008b38:	696c                	ld	a1,208(a0)
    80008b3a:	656e                	ld	a0,216(sp)
    80008b3c:	692d                	lui	s2,0xb
    80008b3e:	736e                	ld	t1,248(sp)
    80008b40:	736e                	ld	t1,248(sp)
    80008b42:	732d                	lui	t1,0xfffeb
    80008b44:	7a69                	lui	s4,0xffffa
    80008b46:	3d65                	addw	s10,s10,-7
    80008b48:	3132                	fld	ft2,296(sp)
    80008b4a:	3734                	fld	fa3,104(a4)
    80008b4c:	3834                	fld	fa3,112(s0)
    80008b4e:	30303533          	.insn	4, 0x30303533
    80008b52:	2d20                	fld	fs0,88(a0)
    80008b54:	702d                	c.lui	zero,0xfffeb
    80008b56:	7261                	lui	tp,0xffff8
    80008b58:	6d61                	lui	s10,0x18
    80008b5a:	6d3d                	lui	s10,0xf
    80008b5c:	7861                	lui	a6,0xffff8
    80008b5e:	692d                	lui	s2,0xb
    80008b60:	6c6e                	ld	s8,216(sp)
    80008b62:	6e69                	lui	t3,0x1a
    80008b64:	2d65                	addw	s10,s10,25 # f019 <_tbss_end+0xf019>
    80008b66:	6e69                	lui	t3,0x1a
    80008b68:	2d736e73          	csrrs	t3,0x2d7,6
    80008b6c:	6c616d73          	csrrs	s10,0x6c6,2
    80008b70:	3d6c                	fld	fa1,248(a0)
    80008b72:	3031                	.insn	2, 0x3031
    80008b74:	3030                	fld	fa2,96(s0)
    80008b76:	3030                	fld	fa2,96(s0)
    80008b78:	3030                	fld	fa2,96(s0)
    80008b7a:	2d20                	fld	fs0,88(a0)
    80008b7c:	702d                	c.lui	zero,0xfffeb
    80008b7e:	7261                	lui	tp,0xffff8
    80008b80:	6d61                	lui	s10,0x18
    80008b82:	6d3d                	lui	s10,0xf
    80008b84:	7861                	lui	a6,0xffff8
    80008b86:	692d                	lui	s2,0xb
    80008b88:	6c6e                	ld	s8,216(sp)
    80008b8a:	6e69                	lui	t3,0x1a
    80008b8c:	2d65                	addw	s10,s10,25 # f019 <_tbss_end+0xf019>
    80008b8e:	6572                	ld	a0,280(sp)
    80008b90:	73727563          	bgeu	tp,s7,800092ba <_end+0x4a>
    80008b94:	7669                	lui	a2,0xffffa
    80008b96:	2d65                	addw	s10,s10,25
    80008b98:	6564                	ld	s1,200(a0)
    80008b9a:	7470                	ld	a2,232(s0)
    80008b9c:	2d68                	fld	fa0,216(a0)
    80008b9e:	7561                	lui	a0,0xffff8
    80008ba0:	6f74                	ld	a3,216(a4)
    80008ba2:	313d                	addw	sp,sp,-17
    80008ba4:	3030                	fld	fa2,96(s0)
    80008ba6:	2d20                	fld	fs0,88(a0)
    80008ba8:	702d                	c.lui	zero,0xfffeb
    80008baa:	7261                	lui	tp,0xffff8
    80008bac:	6d61                	lui	s10,0x18
    80008bae:	6d3d                	lui	s10,0xf
    80008bb0:	7861                	lui	a6,0xffff8
    80008bb2:	692d                	lui	s2,0xb
    80008bb4:	6c6e                	ld	s8,216(sp)
    80008bb6:	6e69                	lui	t3,0x1a
    80008bb8:	2d65                	addw	s10,s10,25 # f019 <_tbss_end+0xf019>
    80008bba:	6572                	ld	a0,280(sp)
    80008bbc:	73727563          	bgeu	tp,s7,800092e6 <_end+0x76>
    80008bc0:	7669                	lui	a2,0xffffa
    80008bc2:	2d65                	addw	s10,s10,25
    80008bc4:	6564                	ld	s1,200(a0)
    80008bc6:	7470                	ld	a2,232(s0)
    80008bc8:	3d68                	fld	fa0,248(a0)
    80008bca:	3031                	.insn	2, 0x3031
    80008bcc:	2030                	fld	fa2,64(s0)
    80008bce:	2d2d                	addw	s10,s10,11
    80008bd0:	6170                	ld	a2,192(a0)
    80008bd2:	6172                	ld	sp,280(sp)
    80008bd4:	3d6d                	addw	s10,s10,-5
    80008bd6:	696d                	lui	s2,0x1b
    80008bd8:	2d6e                	fld	fs10,216(sp)
    80008bda:	6e69                	lui	t3,0x1a
    80008bdc:	696c                	ld	a1,208(a0)
    80008bde:	656e                	ld	a0,216(sp)
    80008be0:	722d                	lui	tp,0xfffeb
    80008be2:	6365                	lui	t1,0x19
    80008be4:	7275                	lui	tp,0xffffd
    80008be6:	65766973          	csrrs	s2,hviprio2h,12
    80008bea:	702d                	c.lui	zero,0xfffeb
    80008bec:	6f72                	ld	t5,280(sp)
    80008bee:	6162                	ld	sp,24(sp)
    80008bf0:	6962                	ld	s2,24(sp)
    80008bf2:	696c                	ld	a1,208(a0)
    80008bf4:	7974                	ld	a3,240(a0)
    80008bf6:	303d                	.insn	2, 0x303d
    80008bf8:	2d20                	fld	fs0,88(a0)
    80008bfa:	702d                	c.lui	zero,0xfffeb
    80008bfc:	7261                	lui	tp,0xffff8
    80008bfe:	6d61                	lui	s10,0x18
    80008c00:	6d3d                	lui	s10,0xf
    80008c02:	7861                	lui	a6,0xffff8
    80008c04:	652d                	lui	a0,0xb
    80008c06:	7261                	lui	tp,0xffff8
    80008c08:	796c                	ld	a1,240(a0)
    80008c0a:	692d                	lui	s2,0xb
    80008c0c:	6c6e                	ld	s8,216(sp)
    80008c0e:	6e69                	lui	t3,0x1a
    80008c10:	7265                	lui	tp,0xffff9
    80008c12:	692d                	lui	s2,0xb
    80008c14:	6574                	ld	a3,200(a0)
    80008c16:	6172                	ld	sp,280(sp)
    80008c18:	6974                	ld	a3,208(a0)
    80008c1a:	3d736e6f          	jal	t3,8003f7f0 <__global_pointer$+0x35e08>
    80008c1e:	2d203033          	.insn	4, 0x2d203033
    80008c22:	702d                	c.lui	zero,0xfffeb
    80008c24:	7261                	lui	tp,0xffff8
    80008c26:	6d61                	lui	s10,0x18
    80008c28:	623d                	lui	tp,0xf
    80008c2a:	6975                	lui	s2,0x1d
    80008c2c:	746c                	ld	a1,232(s0)
    80008c2e:	6e69                	lui	t3,0x1a
    80008c30:	732d                	lui	t1,0xfffeb
    80008c32:	7274                	ld	a3,224(a2)
    80008c34:	6e69                	lui	t3,0x1a
    80008c36:	6d632d67          	.insn	4, 0x6d632d67
    80008c3a:	2d70                	fld	fa2,216(a0)
    80008c3c:	6e69                	lui	t3,0x1a
    80008c3e:	696c                	ld	a1,208(a0)
    80008c40:	656e                	ld	a0,216(sp)
    80008c42:	6c2d                	lui	s8,0xb
    80008c44:	6e65                	lui	t3,0x19
    80008c46:	3d687467          	.insn	4, 0x3d687467
    80008c4a:	3031                	.insn	2, 0x3031
    80008c4c:	2030                	fld	fa2,64(s0)
    80008c4e:	662d                	lui	a2,0xb
    80008c50:	756a                	ld	a0,184(sp)
    80008c52:	706d                	c.lui	zero,0xffffb
    80008c54:	742d                	lui	s0,0xfffeb
    80008c56:	6261                	lui	tp,0x18
    80008c58:	656c                	ld	a1,200(a0)
    80008c5a:	2d2d2073          	csrs	0x2d2,s10
    80008c5e:	6170                	ld	a2,192(a0)
    80008c60:	6172                	ld	sp,280(sp)
    80008c62:	3d6d                	addw	s10,s10,-5 # 17ffb <_tbss_end+0x17ffb>
    80008c64:	6e69                	lui	t3,0x1a
    80008c66:	696c                	ld	a1,208(a0)
    80008c68:	656e                	ld	a0,216(sp)
    80008c6a:	6d2d                	lui	s10,0xb
    80008c6c:	6e69                	lui	t3,0x1a
    80008c6e:	732d                	lui	t1,0xfffeb
    80008c70:	6570                	ld	a2,200(a0)
    80008c72:	6465                	lui	s0,0x19
    80008c74:	7075                	c.lui	zero,0xffffd
    80008c76:	303d                	.insn	2, 0x303d
    80008c78:	2d20                	fld	fs0,88(a0)
    80008c7a:	702d                	c.lui	zero,0xfffeb
    80008c7c:	7261                	lui	tp,0xffff8
    80008c7e:	6d61                	lui	s10,0x18
    80008c80:	693d                	lui	s2,0xf
    80008c82:	6c6e                	ld	s8,216(sp)
    80008c84:	6e69                	lui	t3,0x1a
    80008c86:	2d65                	addw	s10,s10,25 # 18019 <_tbss_end+0x18019>
    80008c88:	6e75                	lui	t3,0x1d
    80008c8a:	7469                	lui	s0,0xffffa
    80008c8c:	672d                	lui	a4,0xb
    80008c8e:	6f72                	ld	t5,280(sp)
    80008c90:	3d687477          	.insn	4, 0x3d687477
    80008c94:	3031                	.insn	2, 0x3031
    80008c96:	3030                	fld	fa2,96(s0)
    80008c98:	3030                	fld	fa2,96(s0)
    80008c9a:	2030                	fld	fa2,64(s0)
    80008c9c:	2d2d                	addw	s10,s10,11
    80008c9e:	6170                	ld	a2,192(a0)
    80008ca0:	6172                	ld	sp,280(sp)
    80008ca2:	3d6d                	addw	s10,s10,-5
    80008ca4:	6e69                	lui	t3,0x1a
    80008ca6:	696c                	ld	a1,208(a0)
    80008ca8:	656e                	ld	a0,216(sp)
    80008caa:	682d                	lui	a6,0xb
    80008cac:	7565                	lui	a0,0xffff9
    80008cae:	6972                	ld	s2,280(sp)
    80008cb0:	63697473          	csrrc	s0,0x636,18
    80008cb4:	69682d73          	csrrs	s10,0x696,a6
    80008cb8:	746e                	ld	s0,248(sp)
    80008cba:	702d                	c.lui	zero,0xfffeb
    80008cbc:	7265                	lui	tp,0xffff9
    80008cbe:	746e6563          	bltu	t3,t1,80009408 <_end+0x198>
    80008cc2:	313d                	addw	sp,sp,-17
    80008cc4:	3030                	fld	fa2,96(s0)
    80008cc6:	3030                	fld	fa2,96(s0)
    80008cc8:	3030                	fld	fa2,96(s0)
    80008cca:	2d20                	fld	fs0,88(a0)
    80008ccc:	702d                	c.lui	zero,0xfffeb
    80008cce:	7261                	lui	tp,0xffff8
    80008cd0:	6d61                	lui	s10,0x18
    80008cd2:	753d                	lui	a0,0xfffef
    80008cd4:	696e                	ld	s2,216(sp)
    80008cd6:	6c6e                	ld	s8,216(sp)
    80008cd8:	6e69                	lui	t3,0x1a
    80008cda:	6465                	lui	s0,0x19
    80008cdc:	662d                	lui	a2,0xb
    80008cde:	6e75                	lui	t3,0x1d
    80008ce0:	6f697463          	bgeu	s2,s6,800093c8 <_end+0x158>
    80008ce4:	2d6e                	fld	fs10,216(sp)
    80008ce6:	6e69                	lui	t3,0x1a
    80008ce8:	3d736e73          	csrrs	t3,0x3d7,6
    80008cec:	3031                	.insn	2, 0x3031
    80008cee:	3030                	fld	fa2,96(s0)
    80008cf0:	3030                	fld	fa2,96(s0)
    80008cf2:	2030                	fld	fa2,64(s0)
    80008cf4:	2d2d                	addw	s10,s10,11 # 1800b <_tbss_end+0x1800b>
    80008cf6:	6170                	ld	a2,192(a0)
    80008cf8:	6172                	ld	sp,280(sp)
    80008cfa:	3d6d                	addw	s10,s10,-5
    80008cfc:	6e75                	lui	t3,0x1d
    80008cfe:	6e69                	lui	t3,0x1a
    80008d00:	696c                	ld	a1,208(a0)
    80008d02:	656e                	ld	a0,216(sp)
    80008d04:	2d64                	fld	fs1,216(a0)
    80008d06:	7566                	ld	a0,120(sp)
    80008d08:	636e                	ld	t1,216(sp)
    80008d0a:	6974                	ld	a3,208(a0)
    80008d0c:	742d6e6f          	jal	t3,800df44e <__global_pointer$+0xd5a66>
    80008d10:	6d69                	lui	s10,0x1a
    80008d12:	3d65                	addw	s10,s10,-7 # 19ff9 <_tbss_end+0x19ff9>
    80008d14:	3031                	.insn	2, 0x3031
    80008d16:	3030                	fld	fa2,96(s0)
    80008d18:	3030                	fld	fa2,96(s0)
    80008d1a:	2030                	fld	fa2,64(s0)
    80008d1c:	2d2d                	addw	s10,s10,11
    80008d1e:	6170                	ld	a2,192(a0)
    80008d20:	6172                	ld	sp,280(sp)
    80008d22:	3d6d                	addw	s10,s10,-5
    80008d24:	6e75                	lui	t3,0x1d
    80008d26:	6e69                	lui	t3,0x1a
    80008d28:	696c                	ld	a1,208(a0)
    80008d2a:	656e                	ld	a0,216(sp)
    80008d2c:	2d64                	fld	fs1,216(a0)
    80008d2e:	6874                	ld	a3,208(s0)
    80008d30:	6e75                	lui	t3,0x1d
    80008d32:	6e692d6b          	.insn	4, 0x6e692d6b
    80008d36:	3d736e73          	csrrs	t3,0x3d7,6
    80008d3a:	3031                	.insn	2, 0x3031
    80008d3c:	3030                	fld	fa2,96(s0)
    80008d3e:	3030                	fld	fa2,96(s0)
    80008d40:	2030                	fld	fa2,64(s0)
    80008d42:	2d2d                	addw	s10,s10,11
    80008d44:	6170                	ld	a2,192(a0)
    80008d46:	6172                	ld	sp,280(sp)
    80008d48:	3d6d                	addw	s10,s10,-5
    80008d4a:	6e75                	lui	t3,0x1d
    80008d4c:	6e69                	lui	t3,0x1a
    80008d4e:	696c                	ld	a1,208(a0)
    80008d50:	656e                	ld	a0,216(sp)
    80008d52:	2d64                	fld	fs1,216(a0)
    80008d54:	6874                	ld	a3,208(s0)
    80008d56:	6e75                	lui	t3,0x1d
    80008d58:	69742d6b          	.insn	4, 0x69742d6b
    80008d5c:	656d                	lui	a0,0x1b
    80008d5e:	313d                	addw	sp,sp,-17
    80008d60:	3030                	fld	fa2,96(s0)
    80008d62:	3030                	fld	fa2,96(s0)
    80008d64:	3030                	fld	fa2,96(s0)
    80008d66:	2d20                	fld	fs0,88(a0)
    80008d68:	6d66                	ld	s10,88(sp)
    80008d6a:	7265                	lui	tp,0xffff9
    80008d6c:	612d6567          	.insn	4, 0x612d6567
    80008d70:	6c6c                	ld	a1,216(s0)
    80008d72:	632d                	lui	t1,0xb
    80008d74:	74736e6f          	jal	t3,8003fcba <__global_pointer$+0x362d2>
    80008d78:	6e61                	lui	t3,0x18
    80008d7a:	7374                	ld	a3,224(a4)
    80008d7c:	2d20                	fld	fs0,88(a0)
    80008d7e:	6e66                	ld	t3,88(sp)
    80008d80:	75622d6f          	jal	s10,8002b4d6 <__global_pointer$+0x21aee>
    80008d84:	6c69                	lui	s8,0x1a
    80008d86:	6974                	ld	a3,208(a0)
    80008d88:	206e                	fld	ft0,216(sp)
    80008d8a:	662d                	lui	a2,0xb
    80008d8c:	7266                	ld	tp,120(sp)
    80008d8e:	6565                	lui	a0,0x19
    80008d90:	6e617473          	csrrc	s0,0x6e6,2
    80008d94:	6964                	ld	s1,208(a0)
    80008d96:	676e                	ld	a4,216(sp)
    80008d98:	2d20                	fld	fs0,88(a0)
    80008d9a:	6666                	ld	a2,88(sp)
    80008d9c:	2d70                	fld	fa2,216(a0)
    80008d9e:	746e6f63          	bltu	t3,t1,800094fc <_end+0x28c>
    80008da2:	6172                	ld	sp,280(sp)
    80008da4:	663d7463          	bgeu	s10,gp,8000940c <_end+0x19c>
    80008da8:	7361                	lui	t1,0xffff8
    80008daa:	2074                	fld	fa3,192(s0)
    80008dac:	2d20                	fld	fs0,88(a0)
    80008dae:	7366                	ld	t1,120(sp)
    80008db0:	6474                	ld	a3,200(s0)
    80008db2:	7261                	lui	tp,0xffff8
    80008db4:	706f2d67          	.insn	4, 0x706f2d67
    80008db8:	2074                	fld	fa3,192(s0)
    80008dba:	662d                	lui	a2,0xb
    80008dbc:	74636573          	csrrs	a0,0x746,6
    80008dc0:	6f69                	lui	t5,0x1a
    80008dc2:	2d6e                	fld	fs10,216(sp)
    80008dc4:	6e61                	lui	t3,0x18
    80008dc6:	726f6863          	bltu	t5,t1,800094f6 <_end+0x286>
    80008dca:	662d2073          	csrs	0x662,s10
    80008dce:	6176                	ld	sp,344(sp)
    80008dd0:	6972                	ld	s2,280(sp)
    80008dd2:	6261                	lui	tp,0x18
    80008dd4:	656c                	ld	a1,200(a0)
    80008dd6:	652d                	lui	a0,0xb
    80008dd8:	7078                	ld	a4,224(s0)
    80008dda:	6e61                	lui	t3,0x18
    80008ddc:	6e6f6973          	csrrs	s2,0x6e6,30
    80008de0:	692d                	lui	s2,0xb
    80008de2:	2d6e                	fld	fs10,216(sp)
    80008de4:	6e75                	lui	t3,0x1d
    80008de6:	6f72                	ld	t5,280(sp)
    80008de8:	6c6c                	ld	a1,216(s0)
    80008dea:	7265                	lui	tp,0xffff9
    80008dec:	2d20                	fld	fs0,88(a0)
    80008dee:	7566                	ld	a0,120(sp)
    80008df0:	726e                	ld	tp,248(sp)
    80008df2:	2d6c6c6f          	jal	s8,800cf0c8 <__global_pointer$+0xc56e0>
    80008df6:	6f6c                	ld	a1,216(a4)
    80008df8:	2073706f          	j	800407fe <__global_pointer$+0x36e16>
    80008dfc:	662d                	lui	a2,0xb
    80008dfe:	7274                	ld	a3,224(a2)
    80008e00:	6565                	lui	a0,0x19
    80008e02:	762d                	lui	a2,0xfffeb
    80008e04:	6365                	lui	t1,0x19
    80008e06:	6f74                	ld	a3,216(a4)
    80008e08:	6972                	ld	s2,280(sp)
    80008e0a:	657a                	ld	a0,408(sp)
    80008e0c:	2d20                	fld	fs0,88(a0)
    80008e0e:	6966                	ld	s2,88(sp)
    80008e10:	6f76                	ld	t5,344(sp)
    80008e12:	7470                	ld	a2,232(s0)
    80008e14:	662d2073          	csrs	0x662,s10
    80008e18:	7274                	ld	a3,224(a2)
    80008e1a:	6565                	lui	a0,0x19
    80008e1c:	6c2d                	lui	s8,0xb
    80008e1e:	2d706f6f          	jal	t5,8000f8f4 <__global_pointer$+0x5f0c>
    80008e22:	7669                	lui	a2,0xffffa
    80008e24:	6f6e6163          	bltu	t3,s6,80009506 <_end+0x296>
    80008e28:	206e                	fld	ft0,216(sp)
    80008e2a:	662d                	lui	a2,0xb
    80008e2c:	7274                	ld	a3,224(a2)
    80008e2e:	6565                	lui	a0,0x19
    80008e30:	6c2d                	lui	s8,0xb
    80008e32:	2d706f6f          	jal	t5,8000f908 <__global_pointer$+0x5f20>
    80008e36:	6d69                	lui	s10,0x1a
    80008e38:	2d20                	fld	fs0,88(a0)
    80008e3a:	6666                	ld	a2,88(sp)
    80008e3c:	6e69                	lui	t3,0x1a
    80008e3e:	7469                	lui	s0,0xffffa
    80008e40:	2d65                	addw	s10,s10,25 # 1a019 <_tbss_end+0x1a019>
    80008e42:	6f6c                	ld	a1,216(a4)
    80008e44:	2073706f          	j	8004084a <__global_pointer$+0x36e62>
    80008e48:	662d                	lui	a2,0xb
    80008e4a:	6572                	ld	a0,280(sp)
    80008e4c:	65686373          	csrrs	t1,hviprio1h,16
    80008e50:	7564                	ld	s1,232(a0)
    80008e52:	656c                	ld	a1,200(a0)
    80008e54:	6d2d                	lui	s10,0xb
    80008e56:	6c75646f          	jal	s0,8005fd1c <__global_pointer$+0x56334>
    80008e5a:	63732d6f          	jal	s10,8003bc90 <__global_pointer$+0x322a8>
    80008e5e:	6568                	ld	a0,200(a0)
    80008e60:	7564                	ld	s1,232(a0)
    80008e62:	656c                	ld	a1,200(a0)
    80008e64:	2d64                	fld	fs1,216(a0)
    80008e66:	6f6c                	ld	a1,216(a4)
    80008e68:	2073706f          	j	8004086e <__global_pointer$+0x36e86>
    80008e6c:	662d                	lui	a2,0xb
    80008e6e:	65686373          	csrrs	t1,hviprio1h,16
    80008e72:	2d64                	fld	fs1,216(a0)
    80008e74:	63657073          	csrc	0x636,10
    80008e78:	6c2d                	lui	s8,0xb
    80008e7a:	2064616f          	jal	sp,8004f080 <__global_pointer$+0x45698>
    80008e7e:	662d                	lui	a2,0xb
    80008e80:	65686373          	csrrs	t1,hviprio1h,16
    80008e84:	2d64                	fld	fs1,216(a0)
    80008e86:	6c617473          	csrrc	s0,0x6c6,2
    80008e8a:	656c                	ld	a1,200(a0)
    80008e8c:	2d64                	fld	fs1,216(a0)
    80008e8e:	6e69                	lui	t3,0x1a
    80008e90:	3d736e73          	csrrs	t3,0x3d7,6
    80008e94:	2030                	fld	fa2,64(s0)
    80008e96:	662d                	lui	a2,0xb
    80008e98:	7269                	lui	tp,0xffffa
    80008e9a:	2d61                	addw	s10,s10,24 # b018 <_tbss_end+0xb018>
    80008e9c:	6f6c                	ld	a1,216(a4)
    80008e9e:	702d706f          	j	800e05a0 <__global_pointer$+0xd6bb8>
    80008ea2:	6572                	ld	a0,280(sp)
    80008ea4:	72757373          	csrrc	t1,mhpmevent7h,10
    80008ea8:	2065                	.insn	2, 0x2065
    80008eaa:	662d                	lui	a2,0xb
    80008eac:	7269                	lui	tp,0xffffa
    80008eae:	2d61                	addw	s10,s10,24
    80008eb0:	6c61                	lui	s8,0x18
    80008eb2:	69726f67          	.insn	4, 0x69726f67
    80008eb6:	6874                	ld	a3,208(s0)
    80008eb8:	3d6d                	addw	s10,s10,-5
    80008eba:	69727027          	.insn	4, 0x69727027
    80008ebe:	7469726f          	jal	tp,800a0604 <__global_pointer$+0x96c1c>
    80008ec2:	2779                	addw	a4,a4,30 # b01e <_tbss_end+0xb01e>
    80008ec4:	2d20                	fld	fs0,88(a0)
    80008ec6:	6c66                	ld	s8,88(sp)
    80008ec8:	7669                	lui	a2,0xffffa
    80008eca:	2d65                	addw	s10,s10,25
    80008ecc:	6172                	ld	sp,280(sp)
    80008ece:	676e                	ld	a4,216(sp)
    80008ed0:	2d65                	addw	s10,s10,25
    80008ed2:	69726873          	csrrs	a6,0x697,4
    80008ed6:	6b6e                	ld	s6,216(sp)
    80008ed8:	6761                	lui	a4,0x18
    80008eda:	2065                	.insn	2, 0x2065
    80008edc:	662d                	lui	a2,0xb
    80008ede:	6572                	ld	a0,280(sp)
    80008ee0:	2065                	.insn	2, 0x2065
    80008ee2:	662d                	lui	a2,0xb
    80008ee4:	6564                	ld	s1,200(a0)
    80008ee6:	6976                	ld	s2,344(sp)
    80008ee8:	7472                	ld	s0,312(sp)
    80008eea:	6175                	add	sp,sp,368
    80008eec:	696c                	ld	a1,208(a0)
    80008eee:	657a                	ld	a0,408(sp)
    80008ef0:	612d                	add	sp,sp,224
    80008ef2:	2d74                	fld	fa3,216(a0)
    80008ef4:	746c                	ld	a1,232(s0)
    80008ef6:	6172                	ld	sp,280(sp)
    80008ef8:	736e                	ld	t1,248(sp)
    80008efa:	2d20                	fld	fs0,88(a0)
    80008efc:	7366                	ld	t1,120(sp)
    80008efe:	6c70                	ld	a2,216(s0)
    80008f00:	7469                	lui	s0,0xffffa
    80008f02:	772d                	lui	a4,0xfffeb
    80008f04:	6469                	lui	s0,0x1a
    80008f06:	2d65                	addw	s10,s10,25
    80008f08:	7974                	ld	a3,240(a0)
    80008f0a:	6570                	ld	a2,200(a0)
    80008f0c:	61652d73          	csrrs	s10,0x616,a0
    80008f10:	6c72                	ld	s8,280(sp)
    80008f12:	2079                	.insn	2, 0x2079
    80008f14:	662d                	lui	a2,0xb
    80008f16:	65736367          	.insn	4, 0x65736367
    80008f1a:	732d                	lui	t1,0xfffeb
    80008f1c:	206d                	.insn	2, 0x206d
    80008f1e:	662d                	lui	a2,0xb
    80008f20:	6564                	ld	s1,200(a0)
    80008f22:	656c                	ld	a1,200(a0)
    80008f24:	6574                	ld	a3,200(a0)
    80008f26:	6e2d                	lui	t3,0xb
    80008f28:	6c75                	lui	s8,0x1d
    80008f2a:	2d6c                	fld	fa1,216(a0)
    80008f2c:	6f70                	ld	a2,216(a4)
    80008f2e:	6e69                	lui	t3,0x1a
    80008f30:	6574                	ld	a3,200(a0)
    80008f32:	2d72                	fld	fs10,280(sp)
    80008f34:	63656863          	bltu	a0,s6,80009564 <_end+0x2f4>
    80008f38:	2d20736b          	.insn	4, 0x2d20736b
    80008f3c:	6466                	ld	s0,88(sp)
    80008f3e:	7665                	lui	a2,0xffff9
    80008f40:	7269                	lui	tp,0xffffa
    80008f42:	7574                	ld	a3,232(a0)
    80008f44:	6c61                	lui	s8,0x18
    80008f46:	7a69                	lui	s4,0xffffa
    80008f48:	2d65                	addw	s10,s10,25
    80008f4a:	63657073          	csrc	0x636,10
    80008f4e:	6c75                	lui	s8,0x1d
    80008f50:	7461                	lui	s0,0xffff8
    80008f52:	7669                	lui	a2,0xffffa
    80008f54:	6c65                	lui	s8,0x19
    80008f56:	2079                	.insn	2, 0x2079
	...
    80008f60:	706d6f43          	fmadd.s	ft10,fs10,ft6,fa4,unknown
    80008f64:	6c69                	lui	s8,0x1a
    80008f66:	7265                	lui	tp,0xffff9
    80008f68:	6620                	ld	s0,72(a2)
    80008f6a:	616c                	ld	a1,192(a0)
    80008f6c:	20207367          	.insn	4, 0x20207367
    80008f70:	3a20                	fld	fs0,112(a2)
    80008f72:	2520                	fld	fs0,72(a0)
    80008f74:	00000a73          	.insn	4, 0x0a73
    80008f78:	43415453          	.insn	4, 0x43415453
    80008f7c:	0000004b          	fnmsub.s	ft0,ft0,ft0,ft0,rne
    80008f80:	654d                	lui	a0,0x13
    80008f82:	6f6d                	lui	t5,0x1b
    80008f84:	7972                	ld	s2,312(sp)
    80008f86:	6c20                	ld	s0,88(s0)
    80008f88:	7461636f          	jal	t1,8001f6ce <__global_pointer$+0x15ce6>
    80008f8c:	6f69                	lui	t5,0x1a
    80008f8e:	206e                	fld	ft0,216(sp)
    80008f90:	3a20                	fld	fs0,112(a2)
    80008f92:	2520                	fld	fs0,72(a0)
    80008f94:	00000a73          	.insn	4, 0x0a73
    80008f98:	64656573          	csrrs	a0,hviprio1,10
    80008f9c:	20637263          	bgeu	t1,t1,800091a0 <errpat+0xdd8>
    80008fa0:	2020                	fld	fs0,64(s0)
    80008fa2:	2020                	fld	fs0,64(s0)
    80008fa4:	2020                	fld	fs0,64(s0)
    80008fa6:	2020                	fld	fs0,64(s0)
    80008fa8:	3a20                	fld	fs0,112(a2)
    80008faa:	3020                	fld	fs0,96(s0)
    80008fac:	2578                	fld	fa4,200(a0)
    80008fae:	3430                	fld	fa2,104(s0)
    80008fb0:	0a78                	add	a4,sp,284
    80008fb2:	0000                	unimp
    80008fb4:	0000                	unimp
    80008fb6:	0000                	unimp
    80008fb8:	5d64255b          	.insn	4, 0x5d64255b
    80008fbc:	6c637263          	bgeu	t1,t1,80009680 <_end+0x410>
    80008fc0:	7369                	lui	t1,0xffffa
    80008fc2:	2074                	fld	fa3,192(s0)
    80008fc4:	2020                	fld	fs0,64(s0)
    80008fc6:	2020                	fld	fs0,64(s0)
    80008fc8:	2020                	fld	fs0,64(s0)
    80008fca:	203a                	fld	ft0,392(sp)
    80008fcc:	7830                	ld	a2,112(s0)
    80008fce:	3025                	.insn	2, 0x3025
    80008fd0:	7834                	ld	a3,112(s0)
    80008fd2:	000a                	c.slli	zero,0x2
    80008fd4:	0000                	unimp
    80008fd6:	0000                	unimp
    80008fd8:	5d64255b          	.insn	4, 0x5d64255b
    80008fdc:	6d637263          	bgeu	t1,s6,800096a0 <_end+0x430>
    80008fe0:	7461                	lui	s0,0xffff8
    80008fe2:	6972                	ld	s2,280(sp)
    80008fe4:	2078                	fld	fa4,192(s0)
    80008fe6:	2020                	fld	fs0,64(s0)
    80008fe8:	2020                	fld	fs0,64(s0)
    80008fea:	203a                	fld	ft0,392(sp)
    80008fec:	7830                	ld	a2,112(s0)
    80008fee:	3025                	.insn	2, 0x3025
    80008ff0:	7834                	ld	a3,112(s0)
    80008ff2:	000a                	c.slli	zero,0x2
    80008ff4:	0000                	unimp
    80008ff6:	0000                	unimp
    80008ff8:	5d64255b          	.insn	4, 0x5d64255b
    80008ffc:	73637263          	bgeu	t1,s6,80009720 <_end+0x4b0>
    80009000:	6174                	ld	a3,192(a0)
    80009002:	6574                	ld	a3,200(a0)
    80009004:	2020                	fld	fs0,64(s0)
    80009006:	2020                	fld	fs0,64(s0)
    80009008:	2020                	fld	fs0,64(s0)
    8000900a:	203a                	fld	ft0,392(sp)
    8000900c:	7830                	ld	a2,112(s0)
    8000900e:	3025                	.insn	2, 0x3025
    80009010:	7834                	ld	a3,112(s0)
    80009012:	000a                	c.slli	zero,0x2
    80009014:	0000                	unimp
    80009016:	0000                	unimp
    80009018:	5d64255b          	.insn	4, 0x5d64255b
    8000901c:	66637263          	bgeu	t1,t1,80009680 <_end+0x410>
    80009020:	6e69                	lui	t3,0x1a
    80009022:	6c61                	lui	s8,0x18
    80009024:	2020                	fld	fs0,64(s0)
    80009026:	2020                	fld	fs0,64(s0)
    80009028:	2020                	fld	fs0,64(s0)
    8000902a:	203a                	fld	ft0,392(sp)
    8000902c:	7830                	ld	a2,112(s0)
    8000902e:	3025                	.insn	2, 0x3025
    80009030:	7834                	ld	a3,112(s0)
    80009032:	000a                	c.slli	zero,0x2
    80009034:	0000                	unimp
    80009036:	0000                	unimp
    80009038:	72726f43          	fmadd.d	ft10,ft4,ft7,fa4,unknown
    8000903c:	6365                	lui	t1,0x19
    8000903e:	2074                	fld	fa3,192(s0)
    80009040:	7265706f          	j	80060766 <__global_pointer$+0x56d7e>
    80009044:	7461                	lui	s0,0xffff8
    80009046:	6f69                	lui	t5,0x1a
    80009048:	206e                	fld	ft0,216(sp)
    8000904a:	6176                	ld	sp,344(sp)
    8000904c:	696c                	ld	a1,208(a0)
    8000904e:	6164                	ld	s1,192(a0)
    80009050:	6574                	ld	a3,200(a0)
    80009052:	2e64                	fld	fs1,216(a2)
    80009054:	5320                	lw	s0,96(a4)
    80009056:	6565                	lui	a0,0x19
    80009058:	5220                	lw	s0,96(a2)
    8000905a:	4145                	li	sp,17
    8000905c:	4d44                	lw	s1,28(a0)
    8000905e:	2e45                	addw	t3,t3,17 # 1a011 <_tbss_end+0x1a011>
    80009060:	646d                	lui	s0,0x1b
    80009062:	6620                	ld	s0,72(a2)
    80009064:	7220726f          	jal	tp,80010786 <__global_pointer$+0x6d9e>
    80009068:	6e75                	lui	t3,0x1d
    8000906a:	6120                	ld	s0,64(a0)
    8000906c:	646e                	ld	s0,216(sp)
    8000906e:	7220                	ld	s0,96(a2)
    80009070:	7065                	c.lui	zero,0xffff9
    80009072:	6974726f          	jal	tp,80050f08 <__global_pointer$+0x47520>
    80009076:	676e                	ld	a4,216(sp)
    80009078:	7220                	ld	s0,96(a2)
    8000907a:	6c75                	lui	s8,0x1d
    8000907c:	7365                	lui	t1,0xffff9
    8000907e:	0a2e                	sll	s4,s4,0xb
	...
    80009088:	65726f43          	.insn	4, 0x65726f43
    8000908c:	614d                	add	sp,sp,176
    8000908e:	6b72                	ld	s6,280(sp)
    80009090:	3120                	fld	fs0,96(a0)
    80009092:	302e                	fld	ft0,232(sp)
    80009094:	3a20                	fld	fs0,112(a2)
    80009096:	2520                	fld	fs0,72(a0)
    80009098:	2066                	fld	ft0,88(sp)
    8000909a:	7325202f          	.insn	4, 0x7325202f
    8000909e:	2520                	fld	fs0,72(a0)
    800090a0:	00000073          	ecall
    800090a4:	0000                	unimp
    800090a6:	0000                	unimp
    800090a8:	2f20                	fld	fs0,88(a4)
    800090aa:	2520                	fld	fs0,72(a0)
    800090ac:	00000073          	ecall
    800090b0:	000a                	c.slli	zero,0x2
    800090b2:	0000                	unimp
    800090b4:	0000                	unimp
    800090b6:	0000                	unimp
    800090b8:	6e6e6143          	.insn	4, 0x6e6e6143
    800090bc:	7620746f          	jal	s0,8001081e <__global_pointer$+0x6e36>
    800090c0:	6c61                	lui	s8,0x18
    800090c2:	6469                	lui	s0,0x1a
    800090c4:	7461                	lui	s0,0xffff8
    800090c6:	2065                	.insn	2, 0x2065
    800090c8:	7265706f          	j	800607ee <__global_pointer$+0x56e06>
    800090cc:	7461                	lui	s0,0xffff8
    800090ce:	6f69                	lui	t5,0x1a
    800090d0:	206e                	fld	ft0,216(sp)
    800090d2:	6f66                	ld	t5,88(sp)
    800090d4:	2072                	fld	ft0,280(sp)
    800090d6:	6874                	ld	a3,208(s0)
    800090d8:	7365                	lui	t1,0xffff9
    800090da:	2065                	.insn	2, 0x2065
    800090dc:	64656573          	csrrs	a0,hviprio1,10
    800090e0:	7620                	ld	s0,104(a2)
    800090e2:	6c61                	lui	s8,0x18
    800090e4:	6575                	lui	a0,0x1d
    800090e6:	70202c73          	csrr	s8,0x702
    800090ea:	656c                	ld	a1,200(a0)
    800090ec:	7361                	lui	t1,0xffff8
    800090ee:	2065                	.insn	2, 0x2065
    800090f0:	706d6f63          	bltu	s10,t1,8000980e <_end+0x59e>
    800090f4:	7261                	lui	tp,0xffff8
    800090f6:	2065                	.insn	2, 0x2065
    800090f8:	68746977          	.insn	4, 0x68746977
    800090fc:	7220                	ld	s0,96(a2)
    800090fe:	7365                	lui	t1,0xffff9
    80009100:	6c75                	lui	s8,0x1d
    80009102:	7374                	ld	a3,224(a4)
    80009104:	6f20                	ld	s0,88(a4)
    80009106:	206e                	fld	ft0,216(sp)
    80009108:	2061                	.insn	2, 0x2061
    8000910a:	776f6e6b          	.insn	4, 0x776f6e6b
    8000910e:	206e                	fld	ft0,216(sp)
    80009110:	6c70                	ld	a2,216(s0)
    80009112:	7461                	lui	s0,0xffff8
    80009114:	6f66                	ld	t5,88(sp)
    80009116:	6d72                	ld	s10,280(sp)
    80009118:	0a2e                	sll	s4,s4,0xb
    8000911a:	0000                	unimp
    8000911c:	0000                	unimp
    8000911e:	0000                	unimp
    80009120:	7245                	lui	tp,0xffff1
    80009122:	6f72                	ld	t5,280(sp)
    80009124:	7372                	ld	t1,312(sp)
    80009126:	6420                	ld	s0,72(s0)
    80009128:	7465                	lui	s0,0xffff9
    8000912a:	6365                	lui	t1,0x19
    8000912c:	6574                	ld	a3,200(a0)
    8000912e:	0a64                	add	s1,sp,284
	...
    80009138:	74617453          	.insn	4, 0x74617453
    8000913c:	6369                	lui	t1,0x1a
    8000913e:	0000                	unimp
    80009140:	6548                	ld	a0,136(a0)
    80009142:	7061                	c.lui	zero,0xffff8
    80009144:	0000                	unimp
    80009146:	0000                	unimp
    80009148:	63617453          	.insn	4, 0x63617453
    8000914c:	0000006b          	.insn	4, 0x006b
    80009150:	636d                	lui	t1,0x1b
    80009152:	6379                	lui	t1,0x1e
    80009154:	656c                	ld	a1,200(a0)
    80009156:	0000                	unimp
    80009158:	696d                	lui	s2,0x1b
    8000915a:	736e                	ld	t1,248(sp)
    8000915c:	7274                	ld	a3,224(a2)
    8000915e:	7465                	lui	s0,0xffff9
	...
    80009168:	6d49                	lui	s10,0x12
    8000916a:	6c70                	ld	a2,216(s0)
    8000916c:	6d65                	lui	s10,0x19
    8000916e:	6e65                	lui	t3,0x19
    80009170:	2074                	fld	fa3,192(s0)
    80009172:	616d                	add	sp,sp,240
    80009174:	6e69                	lui	t3,0x1a
    80009176:	2928                	fld	fa0,80(a0)
    80009178:	202c                	fld	fa1,64(s0)
    8000917a:	6f66                	ld	t5,88(sp)
    8000917c:	000a216f          	jal	sp,800ab17c <__global_pointer$+0xa1794>
    80009180:	6e28                	ld	a0,88(a2)
    80009182:	6c75                	lui	s8,0x1d
    80009184:	296c                	fld	fa1,208(a0)
    80009186:	0000                	unimp
    80009188:	7254                	ld	a3,160(a2)
    8000918a:	7061                	c.lui	zero,0xffff8
    8000918c:	4320                	lw	s0,64(a4)
    8000918e:	7561                	lui	a0,0xffff8
    80009190:	203a6573          	csrrs	a0,0x203,20
    80009194:	6425                	lui	s0,0x9
    80009196:	6520                	ld	s0,72(a0)
    80009198:	636e                	ld	t1,216(sp)
    8000919a:	746e756f          	jal	a0,800f08e0 <__global_pointer$+0xe6ef8>
    8000919e:	7265                	lui	tp,0xffff9
    800091a0:	6465                	lui	s0,0x19
    800091a2:	6f20                	ld	s0,88(a4)
    800091a4:	206e                	fld	ft0,216(sp)
    800091a6:	4350                	lw	a2,4(a4)
    800091a8:	253a                	fld	fa0,392(sp)
    800091aa:	2e78                	fld	fa4,216(a2)
    800091ac:	200a                	fld	ft0,128(sp)
    800091ae:	7845                	lui	a6,0xffff1
    800091b0:	7469                	lui	s0,0xffffa
    800091b2:	6e69                	lui	t3,0x1a
    800091b4:	2e2e2067          	.insn	4, 0x2e2e2067
    800091b8:	002e                	c.slli	zero,0xb
    800091ba:	0000                	unimp
    800091bc:	0000                	unimp
    800091be:	0000                	unimp
    800091c0:	7325                	lui	t1,0xfffe9
    800091c2:	3d20                	fld	fs0,120(a0)
    800091c4:	2520                	fld	fs0,72(a0)
    800091c6:	0a64                	add	s1,sp,284
	...

Disassembly of section .data:

00000000800091d0 <mem_name>:
    800091d0:	9138                	.insn	2, 0x9138
    800091d2:	8000                	.insn	2, 0x8000
    800091d4:	0000                	unimp
    800091d6:	0000                	unimp
    800091d8:	9140                	.insn	2, 0x9140
    800091da:	8000                	.insn	2, 0x8000
    800091dc:	0000                	unimp
    800091de:	0000                	unimp
    800091e0:	9148                	.insn	2, 0x9148
    800091e2:	8000                	.insn	2, 0x8000
    800091e4:	0000                	unimp
	...

Disassembly of section .sdata:

00000000800091e8 <default_num_contexts-0x3c>:
    800091e8:	ed8d                	bnez	a1,80009222 <mem_name+0x52>
    800091ea:	a0b5                	j	80009256 <counters+0x6>
    800091ec:	3eb0c6f7          	.insn	4, 0x3eb0c6f7
    800091f0:	0000                	unimp
    800091f2:	0000                	unimp
    800091f4:	0000                	unimp
    800091f6:	3ff0                	fld	fa2,248(a5)
    800091f8:	0000                	unimp
    800091fa:	0000                	unimp
    800091fc:	0000                	unimp
    800091fe:	4024                	lw	s1,64(s0)
    80009200:	7fff                	.insn	2, 0x7fff
    80009202:	7fff                	.insn	2, 0x7fff
    80009204:	7fff                	.insn	2, 0x7fff
    80009206:	7fff                	.insn	2, 0x7fff
    80009208:	8000                	.insn	2, 0x8000
    8000920a:	8000                	.insn	2, 0x8000
    8000920c:	8000                	.insn	2, 0x8000
    8000920e:	8000                	.insn	2, 0x8000
    80009210:	af48                	fsd	fa0,152(a4)
    80009212:	9abc                	.insn	2, 0x9abc
    80009214:	d7f2                	sw	t3,236(sp)
    80009216:	3e7a                	fld	ft8,440(sp)
    80009218:	0101                	add	sp,sp,0
    8000921a:	0101                	add	sp,sp,0
    8000921c:	0101                	add	sp,sp,0
    8000921e:	0101                	add	sp,sp,0
    80009220:	0000                	unimp
    80009222:	3f80                	fld	fs0,56(a5)

0000000080009224 <default_num_contexts>:
    80009224:	0001                	nop
	...

0000000080009228 <seed4_volatile>:
    80009228:	0028                	add	a0,sp,8
	...

000000008000922c <seed3_volatile>:
    8000922c:	0066                	c.slli	zero,0x19
	...

Disassembly of section .comment:

0000000000000000 <.comment>:
   0:	3a434347          	fmsub.d	ft6,ft6,ft4,ft7,rmm
   4:	2820                	fld	fs0,80(s0)
   6:	2029                	.insn	2, 0x2029
   8:	3231                	addw	tp,tp,-20 # ffffffffffff8fec <__global_pointer$+0xffffffff7ffef604>
   a:	322e                	fld	ft4,232(sp)
   c:	302e                	fld	ft0,232(sp)
	...

Disassembly of section .riscv.attributes:

0000000000000000 <.riscv.attributes>:
   0:	4a41                	li	s4,16
   2:	0000                	unimp
   4:	7200                	ld	s0,32(a2)
   6:	7369                	lui	t1,0xffffa
   8:	01007663          	bgeu	zero,a6,14 <_tbss_end+0x14>
   c:	0040                	add	s0,sp,4
   e:	0000                	unimp
  10:	1004                	add	s1,sp,32
  12:	7205                	lui	tp,0xfffe1
  14:	3676                	fld	fa2,376(sp)
  16:	6934                	ld	a3,80(a0)
  18:	7032                	.insn	2, 0x7032
  1a:	5f31                	li	t5,-20
  1c:	326d                	addw	tp,tp,-5 # fffffffffffe0ffb <__global_pointer$+0xffffffff7ffd7613>
  1e:	3070                	fld	fa2,224(s0)
  20:	615f 7032 5f31      	.insn	6, 0x5f317032615f
  26:	3266                	fld	ft4,120(sp)
  28:	3270                	fld	fa2,224(a2)
  2a:	645f 7032 5f32      	.insn	6, 0x5f327032645f
  30:	30703263          	.insn	4, 0x30703263
  34:	7a5f 6369 7273      	.insn	6, 0x727363697a5f
  3a:	7032                	.insn	2, 0x7032
  3c:	5f30                	lw	a2,120(a4)
  3e:	6d7a                	ld	s10,408(sp)
  40:	756d                	lui	a0,0xffffb
  42:	316c                	fld	fa1,224(a0)
  44:	3070                	fld	fa2,224(s0)
  46:	0800                	add	s0,sp,16
  48:	0a01                	add	s4,s4,0 # ffffffffffffa000 <__global_pointer$+0xffffffff7fff0618>
  4a:	Address 0x4a is out of bounds.

