
output/coremarks/coremarks.riscv:     file format elf64-littleriscv


Disassembly of section .text.init:

0000000080000000 <_start>:
_start():
    80000000:	62f9                	lui	t0,0x1e
    80000002:	3002a073          	csrs	mstatus,t0
    80000006:	4285                	li	t0,1
    80000008:	02fe                	sll	t0,t0,0x1f
    8000000a:	0002d563          	bgez	t0,80000014 <_start+0x14>
    8000000e:	4505                	li	a0,1
    80000010:	0260706f          	j	80007036 <exit>
    80000014:	00000297          	auipc	t0,0x0
    80000018:	01028293          	add	t0,t0,16 # 80000024 <_start+0x24>
    8000001c:	30529073          	csrw	mtvec,t0
    80000020:	00301073          	fscsr	zero
    80000024:	00000297          	auipc	t0,0x0
    80000028:	03828293          	add	t0,t0,56 # 8000005c <trap_entry>
    8000002c:	30529073          	csrw	mtvec,t0
    80000030:	0000a197          	auipc	gp,0xa
    80000034:	9b818193          	add	gp,gp,-1608 # 800099e8 <__global_pointer$>
    80000038:	8c718213          	add	tp,gp,-1849 # 800092af <_end+0x3f>
    8000003c:	fc027213          	and	tp,tp,-64
    80000040:	f1402573          	csrr	a0,mhartid
    80000044:	4585                	li	a1,1
    80000046:	00b57063          	bgeu	a0,a1,80000046 <_start+0x46>
    8000004a:	01151613          	sll	a2,a0,0x11
    8000004e:	9232                	add	tp,tp,a2
    80000050:	00150113          	add	sp,a0,1
    80000054:	0146                	sll	sp,sp,0x11
    80000056:	9112                	add	sp,sp,tp
    80000058:	6340706f          	j	8000768c <_init>

000000008000005c <trap_entry>:
trap_entry():
    8000005c:	716d                	add	sp,sp,-272
    8000005e:	e406                	sd	ra,8(sp)
    80000060:	e80a                	sd	sp,16(sp)
    80000062:	ec0e                	sd	gp,24(sp)
    80000064:	f012                	sd	tp,32(sp)
    80000066:	f416                	sd	t0,40(sp)
    80000068:	f81a                	sd	t1,48(sp)
    8000006a:	fc1e                	sd	t2,56(sp)
    8000006c:	e0a2                	sd	s0,64(sp)
    8000006e:	e4a6                	sd	s1,72(sp)
    80000070:	e8aa                	sd	a0,80(sp)
    80000072:	ecae                	sd	a1,88(sp)
    80000074:	f0b2                	sd	a2,96(sp)
    80000076:	f4b6                	sd	a3,104(sp)
    80000078:	f8ba                	sd	a4,112(sp)
    8000007a:	fcbe                	sd	a5,120(sp)
    8000007c:	e142                	sd	a6,128(sp)
    8000007e:	e546                	sd	a7,136(sp)
    80000080:	e94a                	sd	s2,144(sp)
    80000082:	ed4e                	sd	s3,152(sp)
    80000084:	f152                	sd	s4,160(sp)
    80000086:	f556                	sd	s5,168(sp)
    80000088:	f95a                	sd	s6,176(sp)
    8000008a:	fd5e                	sd	s7,184(sp)
    8000008c:	e1e2                	sd	s8,192(sp)
    8000008e:	e5e6                	sd	s9,200(sp)
    80000090:	e9ea                	sd	s10,208(sp)
    80000092:	edee                	sd	s11,216(sp)
    80000094:	f1f2                	sd	t3,224(sp)
    80000096:	f5f6                	sd	t4,232(sp)
    80000098:	f9fa                	sd	t5,240(sp)
    8000009a:	fdfe                	sd	t6,248(sp)
    8000009c:	34202573          	csrr	a0,mcause
    800000a0:	341025f3          	csrr	a1,mepc
    800000a4:	860a                	mv	a2,sp
    800000a6:	5ce070ef          	jal	80007674 <handle_trap>
    800000aa:	34151073          	csrw	mepc,a0
    800000ae:	6289                	lui	t0,0x2
    800000b0:	8002829b          	addw	t0,t0,-2048 # 1800 <_tbss_end+0x1800>
    800000b4:	3002a073          	csrs	mstatus,t0
    800000b8:	60a2                	ld	ra,8(sp)
    800000ba:	6142                	ld	sp,16(sp)
    800000bc:	61e2                	ld	gp,24(sp)
    800000be:	7202                	ld	tp,32(sp)
    800000c0:	72a2                	ld	t0,40(sp)
    800000c2:	7342                	ld	t1,48(sp)
    800000c4:	73e2                	ld	t2,56(sp)
    800000c6:	6406                	ld	s0,64(sp)
    800000c8:	64a6                	ld	s1,72(sp)
    800000ca:	6546                	ld	a0,80(sp)
    800000cc:	65e6                	ld	a1,88(sp)
    800000ce:	7606                	ld	a2,96(sp)
    800000d0:	76a6                	ld	a3,104(sp)
    800000d2:	7746                	ld	a4,112(sp)
    800000d4:	77e6                	ld	a5,120(sp)
    800000d6:	680a                	ld	a6,128(sp)
    800000d8:	68aa                	ld	a7,136(sp)
    800000da:	694a                	ld	s2,144(sp)
    800000dc:	69ea                	ld	s3,152(sp)
    800000de:	7a0a                	ld	s4,160(sp)
    800000e0:	7aaa                	ld	s5,168(sp)
    800000e2:	7b4a                	ld	s6,176(sp)
    800000e4:	7bea                	ld	s7,184(sp)
    800000e6:	6c0e                	ld	s8,192(sp)
    800000e8:	6cae                	ld	s9,200(sp)
    800000ea:	6d4e                	ld	s10,208(sp)
    800000ec:	6dee                	ld	s11,216(sp)
    800000ee:	7e0e                	ld	t3,224(sp)
    800000f0:	7eae                	ld	t4,232(sp)
    800000f2:	7f4e                	ld	t5,240(sp)
    800000f4:	7fee                	ld	t6,248(sp)
    800000f6:	6151                	add	sp,sp,272
    800000f8:	30200073          	mret
	...

Disassembly of section .tohost:

0000000080001000 <tohost>:
	...

0000000080001040 <fromhost>:
	...

Disassembly of section .text:

0000000080001048 <get_seed_32>:
get_seed_32():
    80001048:	4795                	li	a5,5
    8000104a:	04a7e863          	bltu	a5,a0,8000109a <get_seed_32+0x52>
    8000104e:	00007297          	auipc	t0,0x7
    80001052:	30228313          	add	t1,t0,770 # 80008350 <main+0xace>
    80001056:	00251713          	sll	a4,a0,0x2
    8000105a:	006703b3          	add	t2,a4,t1
    8000105e:	0003a503          	lw	a0,0(t2)
    80001062:	006505b3          	add	a1,a0,t1
    80001066:	8582                	jr	a1
    80001068:	8581a683          	lw	a3,-1960(gp) # 80009240 <seed5_volatile>
    8000106c:	0006851b          	sext.w	a0,a3
    80001070:	8082                	ret
    80001072:	8601a283          	lw	t0,-1952(gp) # 80009248 <seed1_volatile>
    80001076:	0002851b          	sext.w	a0,t0
    8000107a:	8082                	ret
    8000107c:	85c1af83          	lw	t6,-1956(gp) # 80009244 <seed2_volatile>
    80001080:	000f851b          	sext.w	a0,t6
    80001084:	8082                	ret
    80001086:	8441ae83          	lw	t4,-1980(gp) # 8000922c <seed3_volatile>
    8000108a:	000e851b          	sext.w	a0,t4
    8000108e:	8082                	ret
    80001090:	8401a883          	lw	a7,-1984(gp) # 80009228 <seed4_volatile>
    80001094:	0008851b          	sext.w	a0,a7
    80001098:	8082                	ret
    8000109a:	4501                	li	a0,0
    8000109c:	8082                	ret

000000008000109e <crcu8>:
crcu8():
    8000109e:	00b547b3          	xor	a5,a0,a1
    800010a2:	0017f713          	and	a4,a5,1
    800010a6:	00155293          	srl	t0,a0,0x1
    800010aa:	0015d693          	srl	a3,a1,0x1
    800010ae:	cb11                	beqz	a4,800010c2 <crcu8+0x24>
    800010b0:	7369                	lui	t1,0xffffa
    800010b2:	00130393          	add	t2,t1,1 # ffffffffffffa001 <__global_pointer$+0xffffffff7fff0619>
    800010b6:	0076c5b3          	xor	a1,a3,t2
    800010ba:	03059613          	sll	a2,a1,0x30
    800010be:	03065693          	srl	a3,a2,0x30
    800010c2:	00d2c833          	xor	a6,t0,a3
    800010c6:	00187893          	and	a7,a6,1
    800010ca:	00255e13          	srl	t3,a0,0x2
    800010ce:	0016d293          	srl	t0,a3,0x1
    800010d2:	00088b63          	beqz	a7,800010e8 <crcu8+0x4a>
    800010d6:	7ee9                	lui	t4,0xffffa
    800010d8:	001e8f13          	add	t5,t4,1 # ffffffffffffa001 <__global_pointer$+0xffffffff7fff0619>
    800010dc:	01e2cfb3          	xor	t6,t0,t5
    800010e0:	030f9793          	sll	a5,t6,0x30
    800010e4:	0307d293          	srl	t0,a5,0x30
    800010e8:	005e4733          	xor	a4,t3,t0
    800010ec:	00177313          	and	t1,a4,1
    800010f0:	00355393          	srl	t2,a0,0x3
    800010f4:	0012d893          	srl	a7,t0,0x1
    800010f8:	00030b63          	beqz	t1,8000110e <crcu8+0x70>
    800010fc:	75e9                	lui	a1,0xffffa
    800010fe:	00158613          	add	a2,a1,1 # ffffffffffffa001 <__global_pointer$+0xffffffff7fff0619>
    80001102:	00c8c6b3          	xor	a3,a7,a2
    80001106:	03069813          	sll	a6,a3,0x30
    8000110a:	03085893          	srl	a7,a6,0x30
    8000110e:	0113ce33          	xor	t3,t2,a7
    80001112:	001e7e93          	and	t4,t3,1
    80001116:	00455f13          	srl	t5,a0,0x4
    8000111a:	0018d313          	srl	t1,a7,0x1
    8000111e:	000e8b63          	beqz	t4,80001134 <crcu8+0x96>
    80001122:	7fe9                	lui	t6,0xffffa
    80001124:	001f8293          	add	t0,t6,1 # ffffffffffffa001 <__global_pointer$+0xffffffff7fff0619>
    80001128:	005347b3          	xor	a5,t1,t0
    8000112c:	03079713          	sll	a4,a5,0x30
    80001130:	03075313          	srl	t1,a4,0x30
    80001134:	006f43b3          	xor	t2,t5,t1
    80001138:	0013f593          	and	a1,t2,1
    8000113c:	00555613          	srl	a2,a0,0x5
    80001140:	00135e93          	srl	t4,t1,0x1
    80001144:	c991                	beqz	a1,80001158 <crcu8+0xba>
    80001146:	76e9                	lui	a3,0xffffa
    80001148:	00168813          	add	a6,a3,1 # ffffffffffffa001 <__global_pointer$+0xffffffff7fff0619>
    8000114c:	010ec8b3          	xor	a7,t4,a6
    80001150:	03089e13          	sll	t3,a7,0x30
    80001154:	030e5e93          	srl	t4,t3,0x30
    80001158:	01d64f33          	xor	t5,a2,t4
    8000115c:	001f7f93          	and	t6,t5,1
    80001160:	00655293          	srl	t0,a0,0x6
    80001164:	001ed593          	srl	a1,t4,0x1
    80001168:	000f8b63          	beqz	t6,8000117e <crcu8+0xe0>
    8000116c:	7769                	lui	a4,0xffffa
    8000116e:	00170313          	add	t1,a4,1 # ffffffffffffa001 <__global_pointer$+0xffffffff7fff0619>
    80001172:	0065c7b3          	xor	a5,a1,t1
    80001176:	03079393          	sll	t2,a5,0x30
    8000117a:	0303d593          	srl	a1,t2,0x30
    8000117e:	00b2c633          	xor	a2,t0,a1
    80001182:	00167693          	and	a3,a2,1
    80001186:	00755813          	srl	a6,a0,0x7
    8000118a:	0015df13          	srl	t5,a1,0x1
    8000118e:	ca91                	beqz	a3,800011a2 <crcu8+0x104>
    80001190:	78e9                	lui	a7,0xffffa
    80001192:	00188e13          	add	t3,a7,1 # ffffffffffffa001 <__global_pointer$+0xffffffff7fff0619>
    80001196:	01cf4533          	xor	a0,t5,t3
    8000119a:	03051e93          	sll	t4,a0,0x30
    8000119e:	030edf13          	srl	t5,t4,0x30
    800011a2:	001f7f93          	and	t6,t5,1
    800011a6:	001f5513          	srl	a0,t5,0x1
    800011aa:	010f8b63          	beq	t6,a6,800011c0 <crcu8+0x122>
    800011ae:	72e9                	lui	t0,0xffffa
    800011b0:	00128713          	add	a4,t0,1 # ffffffffffffa001 <__global_pointer$+0xffffffff7fff0619>
    800011b4:	00e54333          	xor	t1,a0,a4
    800011b8:	03031793          	sll	a5,t1,0x30
    800011bc:	0307d513          	srl	a0,a5,0x30
    800011c0:	8082                	ret

00000000800011c2 <crcu16>:
crcu16():
    800011c2:	0ff57793          	zext.b	a5,a0
    800011c6:	00b7c733          	xor	a4,a5,a1
    800011ca:	00177693          	and	a3,a4,1
    800011ce:	0017d293          	srl	t0,a5,0x1
    800011d2:	0015d813          	srl	a6,a1,0x1
    800011d6:	ca91                	beqz	a3,800011ea <crcu16+0x28>
    800011d8:	7369                	lui	t1,0xffffa
    800011da:	00130393          	add	t2,t1,1 # ffffffffffffa001 <__global_pointer$+0xffffffff7fff0619>
    800011de:	007845b3          	xor	a1,a6,t2
    800011e2:	03059613          	sll	a2,a1,0x30
    800011e6:	03065813          	srl	a6,a2,0x30
    800011ea:	0102c8b3          	xor	a7,t0,a6
    800011ee:	0018fe13          	and	t3,a7,1
    800011f2:	0027de93          	srl	t4,a5,0x2
    800011f6:	00185293          	srl	t0,a6,0x1
    800011fa:	000e0b63          	beqz	t3,80001210 <crcu16+0x4e>
    800011fe:	7f69                	lui	t5,0xffffa
    80001200:	001f0f93          	add	t6,t5,1 # ffffffffffffa001 <__global_pointer$+0xffffffff7fff0619>
    80001204:	01f2c733          	xor	a4,t0,t6
    80001208:	03071693          	sll	a3,a4,0x30
    8000120c:	0306d293          	srl	t0,a3,0x30
    80001210:	005ec333          	xor	t1,t4,t0
    80001214:	00137393          	and	t2,t1,1
    80001218:	0037d593          	srl	a1,a5,0x3
    8000121c:	0012de93          	srl	t4,t0,0x1
    80001220:	00038b63          	beqz	t2,80001236 <crcu16+0x74>
    80001224:	7669                	lui	a2,0xffffa
    80001226:	00160813          	add	a6,a2,1 # ffffffffffffa001 <__global_pointer$+0xffffffff7fff0619>
    8000122a:	010ec8b3          	xor	a7,t4,a6
    8000122e:	03089e13          	sll	t3,a7,0x30
    80001232:	030e5e93          	srl	t4,t3,0x30
    80001236:	01d5cf33          	xor	t5,a1,t4
    8000123a:	001f7f93          	and	t6,t5,1
    8000123e:	0047d693          	srl	a3,a5,0x4
    80001242:	001ed593          	srl	a1,t4,0x1
    80001246:	000f8b63          	beqz	t6,8000125c <crcu16+0x9a>
    8000124a:	72e9                	lui	t0,0xffffa
    8000124c:	00128313          	add	t1,t0,1 # ffffffffffffa001 <__global_pointer$+0xffffffff7fff0619>
    80001250:	0065c733          	xor	a4,a1,t1
    80001254:	03071393          	sll	t2,a4,0x30
    80001258:	0303d593          	srl	a1,t2,0x30
    8000125c:	00b6c633          	xor	a2,a3,a1
    80001260:	00167813          	and	a6,a2,1
    80001264:	0057d893          	srl	a7,a5,0x5
    80001268:	0015d293          	srl	t0,a1,0x1
    8000126c:	00080b63          	beqz	a6,80001282 <crcu16+0xc0>
    80001270:	7e69                	lui	t3,0xffffa
    80001272:	001e0e93          	add	t4,t3,1 # ffffffffffffa001 <__global_pointer$+0xffffffff7fff0619>
    80001276:	01d2cf33          	xor	t5,t0,t4
    8000127a:	030f1f93          	sll	t6,t5,0x30
    8000127e:	030fd293          	srl	t0,t6,0x30
    80001282:	0058c6b3          	xor	a3,a7,t0
    80001286:	0016f313          	and	t1,a3,1
    8000128a:	0067d393          	srl	t2,a5,0x6
    8000128e:	0012d893          	srl	a7,t0,0x1
    80001292:	00030b63          	beqz	t1,800012a8 <crcu16+0xe6>
    80001296:	75e9                	lui	a1,0xffffa
    80001298:	00158613          	add	a2,a1,1 # ffffffffffffa001 <__global_pointer$+0xffffffff7fff0619>
    8000129c:	00c8c733          	xor	a4,a7,a2
    800012a0:	03071813          	sll	a6,a4,0x30
    800012a4:	03085893          	srl	a7,a6,0x30
    800012a8:	0113ce33          	xor	t3,t2,a7
    800012ac:	001e7e93          	and	t4,t3,1
    800012b0:	0077df13          	srl	t5,a5,0x7
    800012b4:	0018d313          	srl	t1,a7,0x1
    800012b8:	000e8b63          	beqz	t4,800012ce <crcu16+0x10c>
    800012bc:	7fe9                	lui	t6,0xffffa
    800012be:	001f8293          	add	t0,t6,1 # ffffffffffffa001 <__global_pointer$+0xffffffff7fff0619>
    800012c2:	005347b3          	xor	a5,t1,t0
    800012c6:	03079693          	sll	a3,a5,0x30
    800012ca:	0306d313          	srl	t1,a3,0x30
    800012ce:	00137393          	and	t2,t1,1
    800012d2:	00135893          	srl	a7,t1,0x1
    800012d6:	01e38b63          	beq	t2,t5,800012ec <crcu16+0x12a>
    800012da:	75e9                	lui	a1,0xffffa
    800012dc:	00158613          	add	a2,a1,1 # ffffffffffffa001 <__global_pointer$+0xffffffff7fff0619>
    800012e0:	00c8c733          	xor	a4,a7,a2
    800012e4:	03071813          	sll	a6,a4,0x30
    800012e8:	03085893          	srl	a7,a6,0x30
    800012ec:	00855e13          	srl	t3,a0,0x8
    800012f0:	011e4eb3          	xor	t4,t3,a7
    800012f4:	001eff13          	and	t5,t4,1
    800012f8:	8125                	srl	a0,a0,0x9
    800012fa:	0018d313          	srl	t1,a7,0x1
    800012fe:	000f0b63          	beqz	t5,80001314 <crcu16+0x152>
    80001302:	7fe9                	lui	t6,0xffffa
    80001304:	001f8293          	add	t0,t6,1 # ffffffffffffa001 <__global_pointer$+0xffffffff7fff0619>
    80001308:	005347b3          	xor	a5,t1,t0
    8000130c:	03079693          	sll	a3,a5,0x30
    80001310:	0306d313          	srl	t1,a3,0x30
    80001314:	006543b3          	xor	t2,a0,t1
    80001318:	0013f593          	and	a1,t2,1
    8000131c:	002e5813          	srl	a6,t3,0x2
    80001320:	00135f13          	srl	t5,t1,0x1
    80001324:	c991                	beqz	a1,80001338 <crcu16+0x176>
    80001326:	7669                	lui	a2,0xffffa
    80001328:	00160893          	add	a7,a2,1 # ffffffffffffa001 <__global_pointer$+0xffffffff7fff0619>
    8000132c:	011f4733          	xor	a4,t5,a7
    80001330:	03071e93          	sll	t4,a4,0x30
    80001334:	030edf13          	srl	t5,t4,0x30
    80001338:	01e84533          	xor	a0,a6,t5
    8000133c:	00157f93          	and	t6,a0,1
    80001340:	003e5293          	srl	t0,t3,0x3
    80001344:	001f5593          	srl	a1,t5,0x1
    80001348:	000f8b63          	beqz	t6,8000135e <crcu16+0x19c>
    8000134c:	77e9                	lui	a5,0xffffa
    8000134e:	00178693          	add	a3,a5,1 # ffffffffffffa001 <__global_pointer$+0xffffffff7fff0619>
    80001352:	00d5c333          	xor	t1,a1,a3
    80001356:	03031393          	sll	t2,t1,0x30
    8000135a:	0303d593          	srl	a1,t2,0x30
    8000135e:	00b2c833          	xor	a6,t0,a1
    80001362:	00187613          	and	a2,a6,1
    80001366:	004e5893          	srl	a7,t3,0x4
    8000136a:	0015df93          	srl	t6,a1,0x1
    8000136e:	ca11                	beqz	a2,80001382 <crcu16+0x1c0>
    80001370:	7ee9                	lui	t4,0xffffa
    80001372:	001e8f13          	add	t5,t4,1 # ffffffffffffa001 <__global_pointer$+0xffffffff7fff0619>
    80001376:	01efc733          	xor	a4,t6,t5
    8000137a:	03071513          	sll	a0,a4,0x30
    8000137e:	03055f93          	srl	t6,a0,0x30
    80001382:	01f8c2b3          	xor	t0,a7,t6
    80001386:	0012f793          	and	a5,t0,1
    8000138a:	005e5693          	srl	a3,t3,0x5
    8000138e:	001fd893          	srl	a7,t6,0x1
    80001392:	cb91                	beqz	a5,800013a6 <crcu16+0x1e4>
    80001394:	7369                	lui	t1,0xffffa
    80001396:	00130393          	add	t2,t1,1 # ffffffffffffa001 <__global_pointer$+0xffffffff7fff0619>
    8000139a:	0078c5b3          	xor	a1,a7,t2
    8000139e:	03059813          	sll	a6,a1,0x30
    800013a2:	03085893          	srl	a7,a6,0x30
    800013a6:	0116c633          	xor	a2,a3,a7
    800013aa:	00167e93          	and	t4,a2,1
    800013ae:	006e5f13          	srl	t5,t3,0x6
    800013b2:	0018d313          	srl	t1,a7,0x1
    800013b6:	000e8b63          	beqz	t4,800013cc <crcu16+0x20a>
    800013ba:	7569                	lui	a0,0xffffa
    800013bc:	00150f93          	add	t6,a0,1 # ffffffffffffa001 <__global_pointer$+0xffffffff7fff0619>
    800013c0:	01f34733          	xor	a4,t1,t6
    800013c4:	03071293          	sll	t0,a4,0x30
    800013c8:	0302d313          	srl	t1,t0,0x30
    800013cc:	006f47b3          	xor	a5,t5,t1
    800013d0:	0017f693          	and	a3,a5,1
    800013d4:	007e5e13          	srl	t3,t3,0x7
    800013d8:	00135613          	srl	a2,t1,0x1
    800013dc:	ca91                	beqz	a3,800013f0 <crcu16+0x22e>
    800013de:	73e9                	lui	t2,0xffffa
    800013e0:	00138593          	add	a1,t2,1 # ffffffffffffa001 <__global_pointer$+0xffffffff7fff0619>
    800013e4:	00b64833          	xor	a6,a2,a1
    800013e8:	03081893          	sll	a7,a6,0x30
    800013ec:	0308d613          	srl	a2,a7,0x30
    800013f0:	00ce4eb3          	xor	t4,t3,a2
    800013f4:	001eff13          	and	t5,t4,1
    800013f8:	00165513          	srl	a0,a2,0x1
    800013fc:	000f0a63          	beqz	t5,80001410 <crcu16+0x24e>
    80001400:	7fe9                	lui	t6,0xffffa
    80001402:	001f8713          	add	a4,t6,1 # ffffffffffffa001 <__global_pointer$+0xffffffff7fff0619>
    80001406:	8d39                	xor	a0,a0,a4
    80001408:	03051293          	sll	t0,a0,0x30
    8000140c:	0302d513          	srl	a0,t0,0x30
    80001410:	8082                	ret

0000000080001412 <crcu32>:
crcu32():
    80001412:	0ff57793          	zext.b	a5,a0
    80001416:	00b7c733          	xor	a4,a5,a1
    8000141a:	03051693          	sll	a3,a0,0x30
    8000141e:	00177613          	and	a2,a4,1
    80001422:	0306d293          	srl	t0,a3,0x30
    80001426:	0017d313          	srl	t1,a5,0x1
    8000142a:	0015de13          	srl	t3,a1,0x1
    8000142e:	ca11                	beqz	a2,80001442 <crcu32+0x30>
    80001430:	73e9                	lui	t2,0xffffa
    80001432:	00138813          	add	a6,t2,1 # ffffffffffffa001 <__global_pointer$+0xffffffff7fff0619>
    80001436:	010e45b3          	xor	a1,t3,a6
    8000143a:	03059893          	sll	a7,a1,0x30
    8000143e:	0308de13          	srl	t3,a7,0x30
    80001442:	01c34eb3          	xor	t4,t1,t3
    80001446:	001eff13          	and	t5,t4,1
    8000144a:	0027df93          	srl	t6,a5,0x2
    8000144e:	001e5393          	srl	t2,t3,0x1
    80001452:	000f0b63          	beqz	t5,80001468 <crcu32+0x56>
    80001456:	7769                	lui	a4,0xffffa
    80001458:	00170613          	add	a2,a4,1 # ffffffffffffa001 <__global_pointer$+0xffffffff7fff0619>
    8000145c:	00c3c6b3          	xor	a3,t2,a2
    80001460:	03069313          	sll	t1,a3,0x30
    80001464:	03035393          	srl	t2,t1,0x30
    80001468:	007fc833          	xor	a6,t6,t2
    8000146c:	00187593          	and	a1,a6,1
    80001470:	0037d893          	srl	a7,a5,0x3
    80001474:	0013d713          	srl	a4,t2,0x1
    80001478:	c991                	beqz	a1,8000148c <crcu32+0x7a>
    8000147a:	7e69                	lui	t3,0xffffa
    8000147c:	001e0e93          	add	t4,t3,1 # ffffffffffffa001 <__global_pointer$+0xffffffff7fff0619>
    80001480:	01d74f33          	xor	t5,a4,t4
    80001484:	030f1f93          	sll	t6,t5,0x30
    80001488:	030fd713          	srl	a4,t6,0x30
    8000148c:	00e8c633          	xor	a2,a7,a4
    80001490:	00167693          	and	a3,a2,1
    80001494:	0047d313          	srl	t1,a5,0x4
    80001498:	00175e13          	srl	t3,a4,0x1
    8000149c:	ca91                	beqz	a3,800014b0 <crcu32+0x9e>
    8000149e:	73e9                	lui	t2,0xffffa
    800014a0:	00138813          	add	a6,t2,1 # ffffffffffffa001 <__global_pointer$+0xffffffff7fff0619>
    800014a4:	010e45b3          	xor	a1,t3,a6
    800014a8:	03059893          	sll	a7,a1,0x30
    800014ac:	0308de13          	srl	t3,a7,0x30
    800014b0:	01c34eb3          	xor	t4,t1,t3
    800014b4:	001eff13          	and	t5,t4,1
    800014b8:	0057df93          	srl	t6,a5,0x5
    800014bc:	001e5393          	srl	t2,t3,0x1
    800014c0:	000f0b63          	beqz	t5,800014d6 <crcu32+0xc4>
    800014c4:	7669                	lui	a2,0xffffa
    800014c6:	00160693          	add	a3,a2,1 # ffffffffffffa001 <__global_pointer$+0xffffffff7fff0619>
    800014ca:	00d3c733          	xor	a4,t2,a3
    800014ce:	03071313          	sll	t1,a4,0x30
    800014d2:	03035393          	srl	t2,t1,0x30
    800014d6:	007fc833          	xor	a6,t6,t2
    800014da:	00187593          	and	a1,a6,1
    800014de:	0067d893          	srl	a7,a5,0x6
    800014e2:	0013d693          	srl	a3,t2,0x1
    800014e6:	c991                	beqz	a1,800014fa <crcu32+0xe8>
    800014e8:	7e69                	lui	t3,0xffffa
    800014ea:	001e0e93          	add	t4,t3,1 # ffffffffffffa001 <__global_pointer$+0xffffffff7fff0619>
    800014ee:	01d6cf33          	xor	t5,a3,t4
    800014f2:	030f1f93          	sll	t6,t5,0x30
    800014f6:	030fd693          	srl	a3,t6,0x30
    800014fa:	00d8c633          	xor	a2,a7,a3
    800014fe:	00167713          	and	a4,a2,1
    80001502:	0077d313          	srl	t1,a5,0x7
    80001506:	0016d893          	srl	a7,a3,0x1
    8000150a:	cb11                	beqz	a4,8000151e <crcu32+0x10c>
    8000150c:	73e9                	lui	t2,0xffffa
    8000150e:	00138813          	add	a6,t2,1 # ffffffffffffa001 <__global_pointer$+0xffffffff7fff0619>
    80001512:	0108c7b3          	xor	a5,a7,a6
    80001516:	03079593          	sll	a1,a5,0x30
    8000151a:	0305d893          	srl	a7,a1,0x30
    8000151e:	0018fe13          	and	t3,a7,1
    80001522:	0018d713          	srl	a4,a7,0x1
    80001526:	386e1963          	bne	t3,t1,800018b8 <crcu32+0x4a6>
    8000152a:	0082d313          	srl	t1,t0,0x8
    8000152e:	00e34633          	xor	a2,t1,a4
    80001532:	00167393          	and	t2,a2,1
    80001536:	0092d293          	srl	t0,t0,0x9
    8000153a:	00175e13          	srl	t3,a4,0x1
    8000153e:	00038b63          	beqz	t2,80001554 <crcu32+0x142>
    80001542:	7869                	lui	a6,0xffffa
    80001544:	00180793          	add	a5,a6,1 # ffffffffffffa001 <__global_pointer$+0xffffffff7fff0619>
    80001548:	00fe45b3          	xor	a1,t3,a5
    8000154c:	03059893          	sll	a7,a1,0x30
    80001550:	0308de13          	srl	t3,a7,0x30
    80001554:	01c2ceb3          	xor	t4,t0,t3
    80001558:	001eff13          	and	t5,t4,1
    8000155c:	00235f93          	srl	t6,t1,0x2
    80001560:	001e5293          	srl	t0,t3,0x1
    80001564:	000f0b63          	beqz	t5,8000157a <crcu32+0x168>
    80001568:	76e9                	lui	a3,0xffffa
    8000156a:	00168613          	add	a2,a3,1 # ffffffffffffa001 <__global_pointer$+0xffffffff7fff0619>
    8000156e:	00c2c733          	xor	a4,t0,a2
    80001572:	03071393          	sll	t2,a4,0x30
    80001576:	0303d293          	srl	t0,t2,0x30
    8000157a:	005fc833          	xor	a6,t6,t0
    8000157e:	00187793          	and	a5,a6,1
    80001582:	00335593          	srl	a1,t1,0x3
    80001586:	0012df93          	srl	t6,t0,0x1
    8000158a:	cb91                	beqz	a5,8000159e <crcu32+0x18c>
    8000158c:	78e9                	lui	a7,0xffffa
    8000158e:	00188e13          	add	t3,a7,1 # ffffffffffffa001 <__global_pointer$+0xffffffff7fff0619>
    80001592:	01cfceb3          	xor	t4,t6,t3
    80001596:	030e9f13          	sll	t5,t4,0x30
    8000159a:	030f5f93          	srl	t6,t5,0x30
    8000159e:	01f5c6b3          	xor	a3,a1,t6
    800015a2:	0016f613          	and	a2,a3,1
    800015a6:	00435393          	srl	t2,t1,0x4
    800015aa:	001fd593          	srl	a1,t6,0x1
    800015ae:	ca11                	beqz	a2,800015c2 <crcu32+0x1b0>
    800015b0:	72e9                	lui	t0,0xffffa
    800015b2:	00128813          	add	a6,t0,1 # ffffffffffffa001 <__global_pointer$+0xffffffff7fff0619>
    800015b6:	0105c733          	xor	a4,a1,a6
    800015ba:	03071793          	sll	a5,a4,0x30
    800015be:	0307d593          	srl	a1,a5,0x30
    800015c2:	00b3c8b3          	xor	a7,t2,a1
    800015c6:	0018fe13          	and	t3,a7,1
    800015ca:	00535e93          	srl	t4,t1,0x5
    800015ce:	0015d393          	srl	t2,a1,0x1
    800015d2:	000e0b63          	beqz	t3,800015e8 <crcu32+0x1d6>
    800015d6:	7f69                	lui	t5,0xffffa
    800015d8:	001f0f93          	add	t6,t5,1 # ffffffffffffa001 <__global_pointer$+0xffffffff7fff0619>
    800015dc:	01f3c6b3          	xor	a3,t2,t6
    800015e0:	03069613          	sll	a2,a3,0x30
    800015e4:	03065393          	srl	t2,a2,0x30
    800015e8:	007ec2b3          	xor	t0,t4,t2
    800015ec:	0012f813          	and	a6,t0,1
    800015f0:	00635793          	srl	a5,t1,0x6
    800015f4:	0013de93          	srl	t4,t2,0x1
    800015f8:	00080b63          	beqz	a6,8000160e <crcu32+0x1fc>
    800015fc:	75e9                	lui	a1,0xffffa
    800015fe:	00158893          	add	a7,a1,1 # ffffffffffffa001 <__global_pointer$+0xffffffff7fff0619>
    80001602:	011ec733          	xor	a4,t4,a7
    80001606:	03071e13          	sll	t3,a4,0x30
    8000160a:	030e5e93          	srl	t4,t3,0x30
    8000160e:	01d7cf33          	xor	t5,a5,t4
    80001612:	001f7f93          	and	t6,t5,1
    80001616:	00735313          	srl	t1,t1,0x7
    8000161a:	001ed813          	srl	a6,t4,0x1
    8000161e:	000f8b63          	beqz	t6,80001634 <crcu32+0x222>
    80001622:	76e9                	lui	a3,0xffffa
    80001624:	00168613          	add	a2,a3,1 # ffffffffffffa001 <__global_pointer$+0xffffffff7fff0619>
    80001628:	00c843b3          	xor	t2,a6,a2
    8000162c:	03039293          	sll	t0,t2,0x30
    80001630:	0302d813          	srl	a6,t0,0x30
    80001634:	010347b3          	xor	a5,t1,a6
    80001638:	0017f593          	and	a1,a5,1
    8000163c:	00185f13          	srl	t5,a6,0x1
    80001640:	26059263          	bnez	a1,800018a4 <crcu32+0x492>
    80001644:	01055f9b          	srlw	t6,a0,0x10
    80001648:	0ffff313          	zext.b	t1,t6
    8000164c:	01e346b3          	xor	a3,t1,t5
    80001650:	0016f393          	and	t2,a3,1
    80001654:	0105551b          	srlw	a0,a0,0x10
    80001658:	00135613          	srl	a2,t1,0x1
    8000165c:	001f5893          	srl	a7,t5,0x1
    80001660:	00038b63          	beqz	t2,80001676 <crcu32+0x264>
    80001664:	72e9                	lui	t0,0xffffa
    80001666:	00128813          	add	a6,t0,1 # ffffffffffffa001 <__global_pointer$+0xffffffff7fff0619>
    8000166a:	0108c7b3          	xor	a5,a7,a6
    8000166e:	03079593          	sll	a1,a5,0x30
    80001672:	0305d893          	srl	a7,a1,0x30
    80001676:	01164e33          	xor	t3,a2,a7
    8000167a:	001e7e93          	and	t4,t3,1
    8000167e:	00235f13          	srl	t5,t1,0x2
    80001682:	0018d293          	srl	t0,a7,0x1
    80001686:	000e8b63          	beqz	t4,8000169c <crcu32+0x28a>
    8000168a:	7fe9                	lui	t6,0xffffa
    8000168c:	001f8693          	add	a3,t6,1 # ffffffffffffa001 <__global_pointer$+0xffffffff7fff0619>
    80001690:	00d2c733          	xor	a4,t0,a3
    80001694:	03071393          	sll	t2,a4,0x30
    80001698:	0303d293          	srl	t0,t2,0x30
    8000169c:	005f4633          	xor	a2,t5,t0
    800016a0:	00167813          	and	a6,a2,1
    800016a4:	00335793          	srl	a5,t1,0x3
    800016a8:	0012df13          	srl	t5,t0,0x1
    800016ac:	00080b63          	beqz	a6,800016c2 <crcu32+0x2b0>
    800016b0:	75e9                	lui	a1,0xffffa
    800016b2:	00158893          	add	a7,a1,1 # ffffffffffffa001 <__global_pointer$+0xffffffff7fff0619>
    800016b6:	011f4e33          	xor	t3,t5,a7
    800016ba:	030e1e93          	sll	t4,t3,0x30
    800016be:	030edf13          	srl	t5,t4,0x30
    800016c2:	01e7cfb3          	xor	t6,a5,t5
    800016c6:	001ff693          	and	a3,t6,1
    800016ca:	00435393          	srl	t2,t1,0x4
    800016ce:	001f5793          	srl	a5,t5,0x1
    800016d2:	ca91                	beqz	a3,800016e6 <crcu32+0x2d4>
    800016d4:	72e9                	lui	t0,0xffffa
    800016d6:	00128613          	add	a2,t0,1 # ffffffffffffa001 <__global_pointer$+0xffffffff7fff0619>
    800016da:	00c7c733          	xor	a4,a5,a2
    800016de:	03071813          	sll	a6,a4,0x30
    800016e2:	03085793          	srl	a5,a6,0x30
    800016e6:	00f3c5b3          	xor	a1,t2,a5
    800016ea:	0015f893          	and	a7,a1,1
    800016ee:	00535e13          	srl	t3,t1,0x5
    800016f2:	0017d393          	srl	t2,a5,0x1
    800016f6:	00088b63          	beqz	a7,8000170c <crcu32+0x2fa>
    800016fa:	7ee9                	lui	t4,0xffffa
    800016fc:	001e8f13          	add	t5,t4,1 # ffffffffffffa001 <__global_pointer$+0xffffffff7fff0619>
    80001700:	01e3cfb3          	xor	t6,t2,t5
    80001704:	030f9693          	sll	a3,t6,0x30
    80001708:	0306d393          	srl	t2,a3,0x30
    8000170c:	007e42b3          	xor	t0,t3,t2
    80001710:	0012f813          	and	a6,t0,1
    80001714:	00635613          	srl	a2,t1,0x6
    80001718:	0013de13          	srl	t3,t2,0x1
    8000171c:	00080b63          	beqz	a6,80001732 <crcu32+0x320>
    80001720:	77e9                	lui	a5,0xffffa
    80001722:	00178593          	add	a1,a5,1 # ffffffffffffa001 <__global_pointer$+0xffffffff7fff0619>
    80001726:	00be4733          	xor	a4,t3,a1
    8000172a:	03071893          	sll	a7,a4,0x30
    8000172e:	0308de13          	srl	t3,a7,0x30
    80001732:	01c64eb3          	xor	t4,a2,t3
    80001736:	001eff13          	and	t5,t4,1
    8000173a:	00735313          	srl	t1,t1,0x7
    8000173e:	001e5813          	srl	a6,t3,0x1
    80001742:	000f0b63          	beqz	t5,80001758 <crcu32+0x346>
    80001746:	7fe9                	lui	t6,0xffffa
    80001748:	001f8693          	add	a3,t6,1 # ffffffffffffa001 <__global_pointer$+0xffffffff7fff0619>
    8000174c:	00d843b3          	xor	t2,a6,a3
    80001750:	03039293          	sll	t0,t2,0x30
    80001754:	0302d813          	srl	a6,t0,0x30
    80001758:	00187613          	and	a2,a6,1
    8000175c:	00185e13          	srl	t3,a6,0x1
    80001760:	12661863          	bne	a2,t1,80001890 <crcu32+0x47e>
    80001764:	00855e93          	srl	t4,a0,0x8
    80001768:	01cecf33          	xor	t5,t4,t3
    8000176c:	001f7313          	and	t1,t5,1
    80001770:	8125                	srl	a0,a0,0x9
    80001772:	001e5813          	srl	a6,t3,0x1
    80001776:	00030b63          	beqz	t1,8000178c <crcu32+0x37a>
    8000177a:	7fe9                	lui	t6,0xffffa
    8000177c:	001f8693          	add	a3,t6,1 # ffffffffffffa001 <__global_pointer$+0xffffffff7fff0619>
    80001780:	00d843b3          	xor	t2,a6,a3
    80001784:	03039293          	sll	t0,t2,0x30
    80001788:	0302d813          	srl	a6,t0,0x30
    8000178c:	01054633          	xor	a2,a0,a6
    80001790:	00167793          	and	a5,a2,1
    80001794:	002ed593          	srl	a1,t4,0x2
    80001798:	00185313          	srl	t1,a6,0x1
    8000179c:	cb91                	beqz	a5,800017b0 <crcu32+0x39e>
    8000179e:	78e9                	lui	a7,0xffffa
    800017a0:	00188e13          	add	t3,a7,1 # ffffffffffffa001 <__global_pointer$+0xffffffff7fff0619>
    800017a4:	01c34733          	xor	a4,t1,t3
    800017a8:	03071f13          	sll	t5,a4,0x30
    800017ac:	030f5313          	srl	t1,t5,0x30
    800017b0:	0065c533          	xor	a0,a1,t1
    800017b4:	00157f93          	and	t6,a0,1
    800017b8:	003ed693          	srl	a3,t4,0x3
    800017bc:	00135793          	srl	a5,t1,0x1
    800017c0:	000f8b63          	beqz	t6,800017d6 <crcu32+0x3c4>
    800017c4:	73e9                	lui	t2,0xffffa
    800017c6:	00138293          	add	t0,t2,1 # ffffffffffffa001 <__global_pointer$+0xffffffff7fff0619>
    800017ca:	0057c833          	xor	a6,a5,t0
    800017ce:	03081613          	sll	a2,a6,0x30
    800017d2:	03065793          	srl	a5,a2,0x30
    800017d6:	00f6c5b3          	xor	a1,a3,a5
    800017da:	0015f893          	and	a7,a1,1
    800017de:	004ede13          	srl	t3,t4,0x4
    800017e2:	0017df93          	srl	t6,a5,0x1
    800017e6:	00088b63          	beqz	a7,800017fc <crcu32+0x3ea>
    800017ea:	7f69                	lui	t5,0xffffa
    800017ec:	001f0313          	add	t1,t5,1 # ffffffffffffa001 <__global_pointer$+0xffffffff7fff0619>
    800017f0:	006fc733          	xor	a4,t6,t1
    800017f4:	03071513          	sll	a0,a4,0x30
    800017f8:	03055f93          	srl	t6,a0,0x30
    800017fc:	01fe46b3          	xor	a3,t3,t6
    80001800:	0016f393          	and	t2,a3,1
    80001804:	005ed293          	srl	t0,t4,0x5
    80001808:	001fd893          	srl	a7,t6,0x1
    8000180c:	00038b63          	beqz	t2,80001822 <crcu32+0x410>
    80001810:	7869                	lui	a6,0xffffa
    80001812:	00180613          	add	a2,a6,1 # ffffffffffffa001 <__global_pointer$+0xffffffff7fff0619>
    80001816:	00c8c7b3          	xor	a5,a7,a2
    8000181a:	03079593          	sll	a1,a5,0x30
    8000181e:	0305d893          	srl	a7,a1,0x30
    80001822:	0112ce33          	xor	t3,t0,a7
    80001826:	001e7f13          	and	t5,t3,1
    8000182a:	006ed313          	srl	t1,t4,0x6
    8000182e:	0018d393          	srl	t2,a7,0x1
    80001832:	000f0b63          	beqz	t5,80001848 <crcu32+0x436>
    80001836:	7569                	lui	a0,0xffffa
    80001838:	00150f93          	add	t6,a0,1 # ffffffffffffa001 <__global_pointer$+0xffffffff7fff0619>
    8000183c:	01f3c733          	xor	a4,t2,t6
    80001840:	03071693          	sll	a3,a4,0x30
    80001844:	0306d393          	srl	t2,a3,0x30
    80001848:	007342b3          	xor	t0,t1,t2
    8000184c:	0012f813          	and	a6,t0,1
    80001850:	007ede93          	srl	t4,t4,0x7
    80001854:	0013de13          	srl	t3,t2,0x1
    80001858:	00080b63          	beqz	a6,8000186e <crcu32+0x45c>
    8000185c:	7669                	lui	a2,0xffffa
    8000185e:	00160793          	add	a5,a2,1 # ffffffffffffa001 <__global_pointer$+0xffffffff7fff0619>
    80001862:	00fe45b3          	xor	a1,t3,a5
    80001866:	03059893          	sll	a7,a1,0x30
    8000186a:	0308de13          	srl	t3,a7,0x30
    8000186e:	01cecf33          	xor	t5,t4,t3
    80001872:	001f7313          	and	t1,t5,1
    80001876:	001e5513          	srl	a0,t3,0x1
    8000187a:	00030a63          	beqz	t1,8000188e <crcu32+0x47c>
    8000187e:	7fe9                	lui	t6,0xffffa
    80001880:	001f8713          	add	a4,t6,1 # ffffffffffffa001 <__global_pointer$+0xffffffff7fff0619>
    80001884:	8d39                	xor	a0,a0,a4
    80001886:	03051693          	sll	a3,a0,0x30
    8000188a:	0306d513          	srl	a0,a3,0x30
    8000188e:	8082                	ret
    80001890:	77e9                	lui	a5,0xffffa
    80001892:	00178593          	add	a1,a5,1 # ffffffffffffa001 <__global_pointer$+0xffffffff7fff0619>
    80001896:	00be4733          	xor	a4,t3,a1
    8000189a:	03071893          	sll	a7,a4,0x30
    8000189e:	0308de13          	srl	t3,a7,0x30
    800018a2:	b5c9                	j	80001764 <crcu32+0x352>
    800018a4:	78e9                	lui	a7,0xffffa
    800018a6:	00188e13          	add	t3,a7,1 # ffffffffffffa001 <__global_pointer$+0xffffffff7fff0619>
    800018aa:	01cf4733          	xor	a4,t5,t3
    800018ae:	03071e93          	sll	t4,a4,0x30
    800018b2:	030edf13          	srl	t5,t4,0x30
    800018b6:	b379                	j	80001644 <crcu32+0x232>
    800018b8:	7ee9                	lui	t4,0xffffa
    800018ba:	001e8f13          	add	t5,t4,1 # ffffffffffffa001 <__global_pointer$+0xffffffff7fff0619>
    800018be:	01e74fb3          	xor	t6,a4,t5
    800018c2:	030f9693          	sll	a3,t6,0x30
    800018c6:	0306d713          	srl	a4,a3,0x30
    800018ca:	b185                	j	8000152a <crcu32+0x118>

00000000800018cc <crc16>:
crc16():
    800018cc:	0ff57793          	zext.b	a5,a0
    800018d0:	00b7c733          	xor	a4,a5,a1
    800018d4:	1542                	sll	a0,a0,0x30
    800018d6:	00177693          	and	a3,a4,1
    800018da:	03055293          	srl	t0,a0,0x30
    800018de:	0017d313          	srl	t1,a5,0x1
    800018e2:	0015d893          	srl	a7,a1,0x1
    800018e6:	ca91                	beqz	a3,800018fa <crc16+0x2e>
    800018e8:	73e9                	lui	t2,0xffffa
    800018ea:	00138613          	add	a2,t2,1 # ffffffffffffa001 <__global_pointer$+0xffffffff7fff0619>
    800018ee:	00c8c5b3          	xor	a1,a7,a2
    800018f2:	03059813          	sll	a6,a1,0x30
    800018f6:	03085893          	srl	a7,a6,0x30
    800018fa:	01134e33          	xor	t3,t1,a7
    800018fe:	001e7e93          	and	t4,t3,1
    80001902:	0027df13          	srl	t5,a5,0x2
    80001906:	0018d313          	srl	t1,a7,0x1
    8000190a:	000e8b63          	beqz	t4,80001920 <crc16+0x54>
    8000190e:	7fe9                	lui	t6,0xffffa
    80001910:	001f8713          	add	a4,t6,1 # ffffffffffffa001 <__global_pointer$+0xffffffff7fff0619>
    80001914:	00e346b3          	xor	a3,t1,a4
    80001918:	03069513          	sll	a0,a3,0x30
    8000191c:	03055313          	srl	t1,a0,0x30
    80001920:	006f43b3          	xor	t2,t5,t1
    80001924:	0013f613          	and	a2,t2,1
    80001928:	0037d593          	srl	a1,a5,0x3
    8000192c:	00135f13          	srl	t5,t1,0x1
    80001930:	ca11                	beqz	a2,80001944 <crc16+0x78>
    80001932:	7869                	lui	a6,0xffffa
    80001934:	00180893          	add	a7,a6,1 # ffffffffffffa001 <__global_pointer$+0xffffffff7fff0619>
    80001938:	011f4e33          	xor	t3,t5,a7
    8000193c:	030e1e93          	sll	t4,t3,0x30
    80001940:	030edf13          	srl	t5,t4,0x30
    80001944:	01e5cfb3          	xor	t6,a1,t5
    80001948:	001ff513          	and	a0,t6,1
    8000194c:	0047d693          	srl	a3,a5,0x4
    80001950:	001f5593          	srl	a1,t5,0x1
    80001954:	c911                	beqz	a0,80001968 <crc16+0x9c>
    80001956:	7369                	lui	t1,0xffffa
    80001958:	00130393          	add	t2,t1,1 # ffffffffffffa001 <__global_pointer$+0xffffffff7fff0619>
    8000195c:	0075c733          	xor	a4,a1,t2
    80001960:	03071613          	sll	a2,a4,0x30
    80001964:	03065593          	srl	a1,a2,0x30
    80001968:	00b6c833          	xor	a6,a3,a1
    8000196c:	00187893          	and	a7,a6,1
    80001970:	0057de13          	srl	t3,a5,0x5
    80001974:	0015d313          	srl	t1,a1,0x1
    80001978:	00088b63          	beqz	a7,8000198e <crc16+0xc2>
    8000197c:	7ee9                	lui	t4,0xffffa
    8000197e:	001e8f13          	add	t5,t4,1 # ffffffffffffa001 <__global_pointer$+0xffffffff7fff0619>
    80001982:	01e34fb3          	xor	t6,t1,t5
    80001986:	030f9513          	sll	a0,t6,0x30
    8000198a:	03055313          	srl	t1,a0,0x30
    8000198e:	006e46b3          	xor	a3,t3,t1
    80001992:	0016f393          	and	t2,a3,1
    80001996:	0067d593          	srl	a1,a5,0x6
    8000199a:	00135e13          	srl	t3,t1,0x1
    8000199e:	00038b63          	beqz	t2,800019b4 <crc16+0xe8>
    800019a2:	7669                	lui	a2,0xffffa
    800019a4:	00160813          	add	a6,a2,1 # ffffffffffffa001 <__global_pointer$+0xffffffff7fff0619>
    800019a8:	010e4733          	xor	a4,t3,a6
    800019ac:	03071893          	sll	a7,a4,0x30
    800019b0:	0308de13          	srl	t3,a7,0x30
    800019b4:	01c5ceb3          	xor	t4,a1,t3
    800019b8:	001eff13          	and	t5,t4,1
    800019bc:	0077df93          	srl	t6,a5,0x7
    800019c0:	001e5393          	srl	t2,t3,0x1
    800019c4:	000f0b63          	beqz	t5,800019da <crc16+0x10e>
    800019c8:	7569                	lui	a0,0xffffa
    800019ca:	00150313          	add	t1,a0,1 # ffffffffffffa001 <__global_pointer$+0xffffffff7fff0619>
    800019ce:	0063c7b3          	xor	a5,t2,t1
    800019d2:	03079693          	sll	a3,a5,0x30
    800019d6:	0306d393          	srl	t2,a3,0x30
    800019da:	0013f593          	and	a1,t2,1
    800019de:	0013de13          	srl	t3,t2,0x1
    800019e2:	13f59663          	bne	a1,t6,80001b0e <crc16+0x242>
    800019e6:	0082de93          	srl	t4,t0,0x8
    800019ea:	01cecf33          	xor	t5,t4,t3
    800019ee:	001f7f93          	and	t6,t5,1
    800019f2:	0092d293          	srl	t0,t0,0x9
    800019f6:	001e5393          	srl	t2,t3,0x1
    800019fa:	000f8b63          	beqz	t6,80001a10 <crc16+0x144>
    800019fe:	7569                	lui	a0,0xffffa
    80001a00:	00150313          	add	t1,a0,1 # ffffffffffffa001 <__global_pointer$+0xffffffff7fff0619>
    80001a04:	0063c7b3          	xor	a5,t2,t1
    80001a08:	03079693          	sll	a3,a5,0x30
    80001a0c:	0306d393          	srl	t2,a3,0x30
    80001a10:	0072c5b3          	xor	a1,t0,t2
    80001a14:	0015f613          	and	a2,a1,1
    80001a18:	002ed813          	srl	a6,t4,0x2
    80001a1c:	0013df93          	srl	t6,t2,0x1
    80001a20:	ca11                	beqz	a2,80001a34 <crc16+0x168>
    80001a22:	78e9                	lui	a7,0xffffa
    80001a24:	00188e13          	add	t3,a7,1 # ffffffffffffa001 <__global_pointer$+0xffffffff7fff0619>
    80001a28:	01cfc733          	xor	a4,t6,t3
    80001a2c:	03071f13          	sll	t5,a4,0x30
    80001a30:	030f5f93          	srl	t6,t5,0x30
    80001a34:	01f842b3          	xor	t0,a6,t6
    80001a38:	0012f513          	and	a0,t0,1
    80001a3c:	003ed313          	srl	t1,t4,0x3
    80001a40:	001fd813          	srl	a6,t6,0x1
    80001a44:	c911                	beqz	a0,80001a58 <crc16+0x18c>
    80001a46:	77e9                	lui	a5,0xffffa
    80001a48:	00178693          	add	a3,a5,1 # ffffffffffffa001 <__global_pointer$+0xffffffff7fff0619>
    80001a4c:	00d843b3          	xor	t2,a6,a3
    80001a50:	03039593          	sll	a1,t2,0x30
    80001a54:	0305d813          	srl	a6,a1,0x30
    80001a58:	01034633          	xor	a2,t1,a6
    80001a5c:	00167893          	and	a7,a2,1
    80001a60:	004ede13          	srl	t3,t4,0x4
    80001a64:	00185513          	srl	a0,a6,0x1
    80001a68:	00088b63          	beqz	a7,80001a7e <crc16+0x1b2>
    80001a6c:	7f69                	lui	t5,0xffffa
    80001a6e:	001f0f93          	add	t6,t5,1 # ffffffffffffa001 <__global_pointer$+0xffffffff7fff0619>
    80001a72:	01f54733          	xor	a4,a0,t6
    80001a76:	03071293          	sll	t0,a4,0x30
    80001a7a:	0302d513          	srl	a0,t0,0x30
    80001a7e:	00ae4333          	xor	t1,t3,a0
    80001a82:	00137793          	and	a5,t1,1
    80001a86:	005ed693          	srl	a3,t4,0x5
    80001a8a:	00155893          	srl	a7,a0,0x1
    80001a8e:	cb91                	beqz	a5,80001aa2 <crc16+0x1d6>
    80001a90:	73e9                	lui	t2,0xffffa
    80001a92:	00138593          	add	a1,t2,1 # ffffffffffffa001 <__global_pointer$+0xffffffff7fff0619>
    80001a96:	00b8c833          	xor	a6,a7,a1
    80001a9a:	03081613          	sll	a2,a6,0x30
    80001a9e:	03065893          	srl	a7,a2,0x30
    80001aa2:	0116ce33          	xor	t3,a3,a7
    80001aa6:	001e7f13          	and	t5,t3,1
    80001aaa:	006edf93          	srl	t6,t4,0x6
    80001aae:	0018d393          	srl	t2,a7,0x1
    80001ab2:	000f0b63          	beqz	t5,80001ac8 <crc16+0x1fc>
    80001ab6:	72e9                	lui	t0,0xffffa
    80001ab8:	00128513          	add	a0,t0,1 # ffffffffffffa001 <__global_pointer$+0xffffffff7fff0619>
    80001abc:	00a3c733          	xor	a4,t2,a0
    80001ac0:	03071313          	sll	t1,a4,0x30
    80001ac4:	03035393          	srl	t2,t1,0x30
    80001ac8:	007fc7b3          	xor	a5,t6,t2
    80001acc:	0017f693          	and	a3,a5,1
    80001ad0:	007ede93          	srl	t4,t4,0x7
    80001ad4:	0013de13          	srl	t3,t2,0x1
    80001ad8:	ca91                	beqz	a3,80001aec <crc16+0x220>
    80001ada:	75e9                	lui	a1,0xffffa
    80001adc:	00158813          	add	a6,a1,1 # ffffffffffffa001 <__global_pointer$+0xffffffff7fff0619>
    80001ae0:	010e4633          	xor	a2,t3,a6
    80001ae4:	03061893          	sll	a7,a2,0x30
    80001ae8:	0308de13          	srl	t3,a7,0x30
    80001aec:	01cecf33          	xor	t5,t4,t3
    80001af0:	001f7f93          	and	t6,t5,1
    80001af4:	001e5513          	srl	a0,t3,0x1
    80001af8:	000f8a63          	beqz	t6,80001b0c <crc16+0x240>
    80001afc:	72e9                	lui	t0,0xffffa
    80001afe:	00128713          	add	a4,t0,1 # ffffffffffffa001 <__global_pointer$+0xffffffff7fff0619>
    80001b02:	8d39                	xor	a0,a0,a4
    80001b04:	03051313          	sll	t1,a0,0x30
    80001b08:	03035513          	srl	a0,t1,0x30
    80001b0c:	8082                	ret
    80001b0e:	7669                	lui	a2,0xffffa
    80001b10:	00160813          	add	a6,a2,1 # ffffffffffffa001 <__global_pointer$+0xffffffff7fff0619>
    80001b14:	010e4733          	xor	a4,t3,a6
    80001b18:	03071893          	sll	a7,a4,0x30
    80001b1c:	0308de13          	srl	t3,a7,0x30
    80001b20:	b5d9                	j	800019e6 <crc16+0x11a>

0000000080001b22 <check_data_types>:
check_data_types():
    80001b22:	4501                	li	a0,0
    80001b24:	8082                	ret

0000000080001b26 <core_bench_state>:
core_bench_state():
    80001b26:	7119                	add	sp,sp,-128
    80001b28:	fc86                	sd	ra,120(sp)
    80001b2a:	f0ca                	sd	s2,96(sp)
    80001b2c:	e8d2                	sd	s4,80(sp)
    80001b2e:	e4d6                	sd	s5,72(sp)
    80001b30:	f8a2                	sd	s0,112(sp)
    80001b32:	f4a6                	sd	s1,104(sp)
    80001b34:	ecce                	sd	s3,88(sp)
    80001b36:	0005c803          	lbu	a6,0(a1)
    80001b3a:	e002                	sd	zero,0(sp)
    80001b3c:	f402                	sd	zero,40(sp)
    80001b3e:	e402                	sd	zero,8(sp)
    80001b40:	e802                	sd	zero,16(sp)
    80001b42:	fc02                	sd	zero,56(sp)
    80001b44:	ec02                	sd	zero,24(sp)
    80001b46:	80ae                	mv	ra,a1
    80001b48:	8aaa                	mv	s5,a0
    80001b4a:	8932                	mv	s2,a2
    80001b4c:	8536                	mv	a0,a3
    80001b4e:	8a3a                	mv	s4,a4
    80001b50:	85be                	mv	a1,a5
    80001b52:	7c080863          	beqz	a6,80002322 <core_bench_state+0x7fc>
    80001b56:	88c2                	mv	a7,a6
    80001b58:	8306                	mv	t1,ra
    80001b5a:	4f81                	li	t6,0
    80001b5c:	4381                	li	t2,0
    80001b5e:	4781                	li	a5,0
    80001b60:	4481                	li	s1,0
    80001b62:	4f01                	li	t5,0
    80001b64:	02c00713          	li	a4,44
    80001b68:	03000293          	li	t0,48
    80001b6c:	04500993          	li	s3,69
    80001b70:	02e00613          	li	a2,46
    80001b74:	a815                	j	80001ba8 <core_bench_state+0x82>
    80001b76:	fd58869b          	addw	a3,a7,-43
    80001b7a:	0fd6f413          	and	s0,a3,253
    80001b7e:	c02d                	beqz	s0,80001be0 <core_bench_state+0xba>
    80001b80:	18c88463          	beq	a7,a2,80001d08 <core_bench_state+0x1e2>
    80001b84:	2485                	addw	s1,s1,1
    80001b86:	0305                	add	t1,t1,1
    80001b88:	88f2                	mv	a7,t3
    80001b8a:	4685                	li	a3,1
    80001b8c:	00269e93          	sll	t4,a3,0x2
    80001b90:	040e8413          	add	s0,t4,64
    80001b94:	00240e33          	add	t3,s0,sp
    80001b98:	fc0e2683          	lw	a3,-64(t3)
    80001b9c:	00168e9b          	addw	t4,a3,1
    80001ba0:	fdde2023          	sw	t4,-64(t3)
    80001ba4:	1a088663          	beqz	a7,80001d50 <core_bench_state+0x22a>
    80001ba8:	00134e03          	lbu	t3,1(t1)
    80001bac:	6ee88563          	beq	a7,a4,80002296 <core_bench_state+0x770>
    80001bb0:	0f08fe93          	and	t4,a7,240
    80001bb4:	2f85                	addw	t6,t6,1
    80001bb6:	fc5e90e3          	bne	t4,t0,80001b76 <core_bench_state+0x50>
    80001bba:	00130413          	add	s0,t1,1
    80001bbe:	720e0863          	beqz	t3,800022ee <core_bench_state+0x7c8>
    80001bc2:	00234883          	lbu	a7,2(t1)
    80001bc6:	12ee0d63          	beq	t3,a4,80001d00 <core_bench_state+0x1da>
    80001bca:	0f0e7313          	and	t1,t3,240
    80001bce:	02ce0863          	beq	t3,a2,80001bfe <core_bench_state+0xd8>
    80001bd2:	0e530263          	beq	t1,t0,80001cb6 <core_bench_state+0x190>
    80001bd6:	2785                	addw	a5,a5,1
    80001bd8:	00140313          	add	t1,s0,1
    80001bdc:	4685                	li	a3,1
    80001bde:	b77d                	j	80001b8c <core_bench_state+0x66>
    80001be0:	58a2                	lw	a7,40(sp)
    80001be2:	0f0e7e93          	and	t4,t3,240
    80001be6:	0018869b          	addw	a3,a7,1
    80001bea:	d436                	sw	a3,40(sp)
    80001bec:	105e8063          	beq	t4,t0,80001cec <core_bench_state+0x1c6>
    80001bf0:	00234883          	lbu	a7,2(t1)
    80001bf4:	12ce0463          	beq	t3,a2,80001d1c <core_bench_state+0x1f6>
    80001bf8:	4685                	li	a3,1
    80001bfa:	0309                	add	t1,t1,2
    80001bfc:	bf41                	j	80001b8c <core_bench_state+0x66>
    80001bfe:	2785                	addw	a5,a5,1
    80001c00:	00140e93          	add	t4,s0,1
    80001c04:	12088963          	beqz	a7,80001d36 <core_bench_state+0x210>
    80001c08:	00244403          	lbu	s0,2(s0)
    80001c0c:	12e88063          	beq	a7,a4,80001d2c <core_bench_state+0x206>
    80001c10:	0df8f313          	and	t1,a7,223
    80001c14:	0f08f893          	and	a7,a7,240
    80001c18:	01330a63          	beq	t1,s3,80001c2c <core_bench_state+0x106>
    80001c1c:	0a588b63          	beq	a7,t0,80001cd2 <core_bench_state+0x1ac>
    80001c20:	2385                	addw	t2,t2,1
    80001c22:	001e8313          	add	t1,t4,1
    80001c26:	88a2                	mv	a7,s0
    80001c28:	4685                	li	a3,1
    80001c2a:	b78d                	j	80001b8c <core_bench_state+0x66>
    80001c2c:	5e32                	lw	t3,44(sp)
    80001c2e:	fd54041b          	addw	s0,s0,-43
    80001c32:	0fd47313          	and	t1,s0,253
    80001c36:	001e089b          	addw	a7,t3,1
    80001c3a:	d646                	sw	a7,44(sp)
    80001c3c:	002ec683          	lbu	a3,2(t4)
    80001c40:	2385                	addw	t2,t2,1
    80001c42:	00030763          	beqz	t1,80001c50 <core_bench_state+0x12a>
    80001c46:	88b6                	mv	a7,a3
    80001c48:	002e8313          	add	t1,t4,2
    80001c4c:	4685                	li	a3,1
    80001c4e:	bf3d                	j	80001b8c <core_bench_state+0x66>
    80001c50:	6c068063          	beqz	a3,80002310 <core_bench_state+0x7ea>
    80001c54:	003ec883          	lbu	a7,3(t4)
    80001c58:	6ae68e63          	beq	a3,a4,80002314 <core_bench_state+0x7ee>
    80001c5c:	0f06fe13          	and	t3,a3,240
    80001c60:	2f05                	addw	t5,t5,1
    80001c62:	005e0663          	beq	t3,t0,80001c6e <core_bench_state+0x148>
    80001c66:	003e8313          	add	t1,t4,3
    80001c6a:	4685                	li	a3,1
    80001c6c:	b705                	j	80001b8c <core_bench_state+0x66>
    80001c6e:	003e8313          	add	t1,t4,3
    80001c72:	62088663          	beqz	a7,8000229e <core_bench_state+0x778>
    80001c76:	004ece83          	lbu	t4,4(t4)
    80001c7a:	68e88263          	beq	a7,a4,800022fe <core_bench_state+0x7d8>
    80001c7e:	8e46                	mv	t3,a7
    80001c80:	88f6                	mv	a7,t4
    80001c82:	0f0e7413          	and	s0,t3,240
    80001c86:	00540663          	beq	s0,t0,80001c92 <core_bench_state+0x16c>
    80001c8a:	2485                	addw	s1,s1,1
    80001c8c:	0305                	add	t1,t1,1
    80001c8e:	4685                	li	a3,1
    80001c90:	bdf5                	j	80001b8c <core_bench_state+0x66>
    80001c92:	00130693          	add	a3,t1,1
    80001c96:	60088463          	beqz	a7,8000229e <core_bench_state+0x778>
    80001c9a:	00234403          	lbu	s0,2(t1)
    80001c9e:	8e46                	mv	t3,a7
    80001ca0:	2381                	sext.w	t2,t2
    80001ca2:	2781                	sext.w	a5,a5
    80001ca4:	2f01                	sext.w	t5,t5
    80001ca6:	2f81                	sext.w	t6,t6
    80001ca8:	8336                	mv	t1,a3
    80001caa:	88a2                	mv	a7,s0
    80001cac:	fcee1be3          	bne	t3,a4,80001c82 <core_bench_state+0x15c>
    80001cb0:	469d                	li	a3,7
    80001cb2:	0305                	add	t1,t1,1
    80001cb4:	bde1                	j	80001b8c <core_bench_state+0x66>
    80001cb6:	0405                	add	s0,s0,1
    80001cb8:	62088b63          	beqz	a7,800022ee <core_bench_state+0x7c8>
    80001cbc:	00144e83          	lbu	t4,1(s0)
    80001cc0:	8e46                	mv	t3,a7
    80001cc2:	2381                	sext.w	t2,t2
    80001cc4:	2781                	sext.w	a5,a5
    80001cc6:	2f01                	sext.w	t5,t5
    80001cc8:	2f81                	sext.w	t6,t6
    80001cca:	66e88763          	beq	a7,a4,80002338 <core_bench_state+0x812>
    80001cce:	88f6                	mv	a7,t4
    80001cd0:	bded                	j	80001bca <core_bench_state+0xa4>
    80001cd2:	0e85                	add	t4,t4,1
    80001cd4:	c02d                	beqz	s0,80001d36 <core_bench_state+0x210>
    80001cd6:	001ec683          	lbu	a3,1(t4)
    80001cda:	88a2                	mv	a7,s0
    80001cdc:	2381                	sext.w	t2,t2
    80001cde:	2781                	sext.w	a5,a5
    80001ce0:	2f01                	sext.w	t5,t5
    80001ce2:	2f81                	sext.w	t6,t6
    80001ce4:	66e40763          	beq	s0,a4,80002352 <core_bench_state+0x82c>
    80001ce8:	8436                	mv	s0,a3
    80001cea:	b71d                	j	80001c10 <core_bench_state+0xea>
    80001cec:	00234e03          	lbu	t3,2(t1)
    80001cf0:	00230413          	add	s0,t1,2
    80001cf4:	5e0e0d63          	beqz	t3,800022ee <core_bench_state+0x7c8>
    80001cf8:	00334883          	lbu	a7,3(t1)
    80001cfc:	ecee17e3          	bne	t3,a4,80001bca <core_bench_state+0xa4>
    80001d00:	8322                	mv	t1,s0
    80001d02:	4691                	li	a3,4
    80001d04:	0305                	add	t1,t1,1
    80001d06:	b559                	j	80001b8c <core_bench_state+0x66>
    80001d08:	00130e93          	add	t4,t1,1
    80001d0c:	020e0563          	beqz	t3,80001d36 <core_bench_state+0x210>
    80001d10:	00234403          	lbu	s0,2(t1)
    80001d14:	00ee0c63          	beq	t3,a4,80001d2c <core_bench_state+0x206>
    80001d18:	88f2                	mv	a7,t3
    80001d1a:	bddd                	j	80001c10 <core_bench_state+0xea>
    80001d1c:	00230e93          	add	t4,t1,2
    80001d20:	00088b63          	beqz	a7,80001d36 <core_bench_state+0x210>
    80001d24:	00334403          	lbu	s0,3(t1)
    80001d28:	eee894e3          	bne	a7,a4,80001c10 <core_bench_state+0xea>
    80001d2c:	8376                	mv	t1,t4
    80001d2e:	88a2                	mv	a7,s0
    80001d30:	4695                	li	a3,5
    80001d32:	0305                	add	t1,t1,1
    80001d34:	bda1                	j	80001b8c <core_bench_state+0x66>
    80001d36:	4315                	li	t1,5
    80001d38:	00231893          	sll	a7,t1,0x2
    80001d3c:	04088e13          	add	t3,a7,64
    80001d40:	002e0eb3          	add	t4,t3,sp
    80001d44:	fc0ea283          	lw	t0,-64(t4)
    80001d48:	0012861b          	addw	a2,t0,1
    80001d4c:	fccea023          	sw	a2,-64(t4)
    80001d50:	577d                	li	a4,-1
    80001d52:	02075993          	srl	s3,a4,0x20
    80001d56:	02039293          	sll	t0,t2,0x20
    80001d5a:	0137f633          	and	a2,a5,s3
    80001d5e:	013ff3b3          	and	t2,t6,s3
    80001d62:	1482                	sll	s1,s1,0x20
    80001d64:	1a82                	sll	s5,s5,0x20
    80001d66:	00566fb3          	or	t6,a2,t0
    80001d6a:	0093e333          	or	t1,t2,s1
    80001d6e:	020ad793          	srl	a5,s5,0x20
    80001d72:	dc7a                	sw	t5,56(sp)
    80001d74:	f87e                	sd	t6,48(sp)
    80001d76:	f01a                	sd	t1,32(sp)
    80001d78:	9786                	add	a5,a5,ra
    80001d7a:	16f0f863          	bgeu	ra,a5,80001eea <core_bench_state+0x3c4>
    80001d7e:	4805                	li	a6,1
    80001d80:	530a1563          	bne	s4,a6,800022aa <core_bench_state+0x784>
    80001d84:	0000c683          	lbu	a3,0(ra)
    80001d88:	fff0ce93          	not	t4,ra
    80001d8c:	01d78733          	add	a4,a5,t4
    80001d90:	02c00993          	li	s3,44
    80001d94:	00777293          	and	t0,a4,7
    80001d98:	01368663          	beq	a3,s3,80001da4 <core_bench_state+0x27e>
    80001d9c:	0126c633          	xor	a2,a3,s2
    80001da0:	00c08023          	sb	a2,0(ra)
    80001da4:	00108813          	add	a6,ra,1
    80001da8:	12f87d63          	bgeu	a6,a5,80001ee2 <core_bench_state+0x3bc>
    80001dac:	0a028563          	beqz	t0,80001e56 <core_bench_state+0x330>
    80001db0:	4485                	li	s1,1
    80001db2:	08928763          	beq	t0,s1,80001e40 <core_bench_state+0x31a>
    80001db6:	4389                	li	t2,2
    80001db8:	06728b63          	beq	t0,t2,80001e2e <core_bench_state+0x308>
    80001dbc:	4f8d                	li	t6,3
    80001dbe:	05f28f63          	beq	t0,t6,80001e1c <core_bench_state+0x2f6>
    80001dc2:	4311                	li	t1,4
    80001dc4:	04628363          	beq	t0,t1,80001e0a <core_bench_state+0x2e4>
    80001dc8:	4a95                	li	s5,5
    80001dca:	03528763          	beq	t0,s5,80001df8 <core_bench_state+0x2d2>
    80001dce:	4f19                	li	t5,6
    80001dd0:	01e28b63          	beq	t0,t5,80001de6 <core_bench_state+0x2c0>
    80001dd4:	00084883          	lbu	a7,0(a6)
    80001dd8:	01388663          	beq	a7,s3,80001de4 <core_bench_state+0x2be>
    80001ddc:	0128c433          	xor	s0,a7,s2
    80001de0:	00880023          	sb	s0,0(a6)
    80001de4:	0805                	add	a6,a6,1
    80001de6:	00084e03          	lbu	t3,0(a6)
    80001dea:	013e0663          	beq	t3,s3,80001df6 <core_bench_state+0x2d0>
    80001dee:	012e46b3          	xor	a3,t3,s2
    80001df2:	00d80023          	sb	a3,0(a6)
    80001df6:	0805                	add	a6,a6,1
    80001df8:	00084e83          	lbu	t4,0(a6)
    80001dfc:	013e8663          	beq	t4,s3,80001e08 <core_bench_state+0x2e2>
    80001e00:	012ec733          	xor	a4,t4,s2
    80001e04:	00e80023          	sb	a4,0(a6)
    80001e08:	0805                	add	a6,a6,1
    80001e0a:	00084283          	lbu	t0,0(a6)
    80001e0e:	01328663          	beq	t0,s3,80001e1a <core_bench_state+0x2f4>
    80001e12:	0122c633          	xor	a2,t0,s2
    80001e16:	00c80023          	sb	a2,0(a6)
    80001e1a:	0805                	add	a6,a6,1
    80001e1c:	00084483          	lbu	s1,0(a6)
    80001e20:	01348663          	beq	s1,s3,80001e2c <core_bench_state+0x306>
    80001e24:	0124c3b3          	xor	t2,s1,s2
    80001e28:	00780023          	sb	t2,0(a6)
    80001e2c:	0805                	add	a6,a6,1
    80001e2e:	00084f83          	lbu	t6,0(a6)
    80001e32:	013f8663          	beq	t6,s3,80001e3e <core_bench_state+0x318>
    80001e36:	012fc333          	xor	t1,t6,s2
    80001e3a:	00680023          	sb	t1,0(a6)
    80001e3e:	0805                	add	a6,a6,1
    80001e40:	00084a83          	lbu	s5,0(a6)
    80001e44:	013a8663          	beq	s5,s3,80001e50 <core_bench_state+0x32a>
    80001e48:	012acf33          	xor	t5,s5,s2
    80001e4c:	01e80023          	sb	t5,0(a6)
    80001e50:	0805                	add	a6,a6,1
    80001e52:	08f87863          	bgeu	a6,a5,80001ee2 <core_bench_state+0x3bc>
    80001e56:	00084883          	lbu	a7,0(a6)
    80001e5a:	01388663          	beq	a7,s3,80001e66 <core_bench_state+0x340>
    80001e5e:	0128c433          	xor	s0,a7,s2
    80001e62:	00880023          	sb	s0,0(a6)
    80001e66:	00184e03          	lbu	t3,1(a6)
    80001e6a:	00180693          	add	a3,a6,1
    80001e6e:	013e0663          	beq	t3,s3,80001e7a <core_bench_state+0x354>
    80001e72:	012e4eb3          	xor	t4,t3,s2
    80001e76:	01d800a3          	sb	t4,1(a6)
    80001e7a:	0016c803          	lbu	a6,1(a3)
    80001e7e:	01380663          	beq	a6,s3,80001e8a <core_bench_state+0x364>
    80001e82:	01284733          	xor	a4,a6,s2
    80001e86:	00e680a3          	sb	a4,1(a3)
    80001e8a:	0026c283          	lbu	t0,2(a3)
    80001e8e:	01328663          	beq	t0,s3,80001e9a <core_bench_state+0x374>
    80001e92:	0122c633          	xor	a2,t0,s2
    80001e96:	00c68123          	sb	a2,2(a3)
    80001e9a:	0036c483          	lbu	s1,3(a3)
    80001e9e:	01348663          	beq	s1,s3,80001eaa <core_bench_state+0x384>
    80001ea2:	0124c3b3          	xor	t2,s1,s2
    80001ea6:	007681a3          	sb	t2,3(a3)
    80001eaa:	0046cf83          	lbu	t6,4(a3)
    80001eae:	013f8663          	beq	t6,s3,80001eba <core_bench_state+0x394>
    80001eb2:	012fc333          	xor	t1,t6,s2
    80001eb6:	00668223          	sb	t1,4(a3)
    80001eba:	0056ca83          	lbu	s5,5(a3)
    80001ebe:	013a8663          	beq	s5,s3,80001eca <core_bench_state+0x3a4>
    80001ec2:	012acf33          	xor	t5,s5,s2
    80001ec6:	01e682a3          	sb	t5,5(a3)
    80001eca:	0066c883          	lbu	a7,6(a3)
    80001ece:	01388663          	beq	a7,s3,80001eda <core_bench_state+0x3b4>
    80001ed2:	0128c433          	xor	s0,a7,s2
    80001ed6:	00868323          	sb	s0,6(a3)
    80001eda:	00768813          	add	a6,a3,7
    80001ede:	f6f86ce3          	bltu	a6,a5,80001e56 <core_bench_state+0x330>
    80001ee2:	0000c803          	lbu	a6,0(ra)
    80001ee6:	44080e63          	beqz	a6,80002342 <core_bench_state+0x81c>
    80001eea:	5f62                	lw	t5,56(sp)
    80001eec:	5fd2                	lw	t6,52(sp)
    80001eee:	53c2                	lw	t2,48(sp)
    80001ef0:	5402                	lw	s0,32(sp)
    80001ef2:	5492                	lw	s1,36(sp)
    80001ef4:	8606                	mv	a2,ra
    80001ef6:	02c00e93          	li	t4,44
    80001efa:	03000e13          	li	t3,48
    80001efe:	04500913          	li	s2,69
    80001f02:	02e00713          	li	a4,46
    80001f06:	a81d                	j	80001f3c <core_bench_state+0x416>
    80001f08:	fd58029b          	addw	t0,a6,-43
    80001f0c:	0fd2f313          	and	t1,t0,253
    80001f10:	06030263          	beqz	t1,80001f74 <core_bench_state+0x44e>
    80001f14:	16e80d63          	beq	a6,a4,8000208e <core_bench_state+0x568>
    80001f18:	2485                	addw	s1,s1,1
    80001f1a:	0605                	add	a2,a2,1
    80001f1c:	884e                	mv	a6,s3
    80001f1e:	4685                	li	a3,1
    80001f20:	00269a93          	sll	s5,a3,0x2
    80001f24:	040a8993          	add	s3,s5,64
    80001f28:	002988b3          	add	a7,s3,sp
    80001f2c:	fc08a303          	lw	t1,-64(a7)
    80001f30:	0013029b          	addw	t0,t1,1
    80001f34:	fc58a023          	sw	t0,-64(a7)
    80001f38:	18080f63          	beqz	a6,800020d6 <core_bench_state+0x5b0>
    80001f3c:	00164983          	lbu	s3,1(a2)
    80001f40:	37d80163          	beq	a6,t4,800022a2 <core_bench_state+0x77c>
    80001f44:	0f087693          	and	a3,a6,240
    80001f48:	2405                	addw	s0,s0,1
    80001f4a:	fbc69fe3          	bne	a3,t3,80001f08 <core_bench_state+0x3e2>
    80001f4e:	00160293          	add	t0,a2,1
    80001f52:	16098563          	beqz	s3,800020bc <core_bench_state+0x596>
    80001f56:	00264803          	lbu	a6,2(a2)
    80001f5a:	0fd98f63          	beq	s3,t4,80002058 <core_bench_state+0x532>
    80001f5e:	0f09f613          	and	a2,s3,240
    80001f62:	02e98863          	beq	s3,a4,80001f92 <core_bench_state+0x46c>
    80001f66:	0dc60d63          	beq	a2,t3,80002040 <core_bench_state+0x51a>
    80001f6a:	2385                	addw	t2,t2,1
    80001f6c:	00128613          	add	a2,t0,1
    80001f70:	4685                	li	a3,1
    80001f72:	b77d                	j	80001f20 <core_bench_state+0x3fa>
    80001f74:	5aa2                	lw	s5,40(sp)
    80001f76:	0f09f893          	and	a7,s3,240
    80001f7a:	001a881b          	addw	a6,s5,1
    80001f7e:	d442                	sw	a6,40(sp)
    80001f80:	0fc88c63          	beq	a7,t3,80002078 <core_bench_state+0x552>
    80001f84:	00264803          	lbu	a6,2(a2)
    80001f88:	10e98d63          	beq	s3,a4,800020a2 <core_bench_state+0x57c>
    80001f8c:	4685                	li	a3,1
    80001f8e:	0609                	add	a2,a2,2
    80001f90:	bf41                	j	80001f20 <core_bench_state+0x3fa>
    80001f92:	2385                	addw	t2,t2,1
    80001f94:	00128313          	add	t1,t0,1
    80001f98:	2e080d63          	beqz	a6,80002292 <core_bench_state+0x76c>
    80001f9c:	0022ca83          	lbu	s5,2(t0)
    80001fa0:	11d80963          	beq	a6,t4,800020b2 <core_bench_state+0x58c>
    80001fa4:	0df87993          	and	s3,a6,223
    80001fa8:	0f087893          	and	a7,a6,240
    80001fac:	01298a63          	beq	s3,s2,80001fc0 <core_bench_state+0x49a>
    80001fb0:	0bc88863          	beq	a7,t3,80002060 <core_bench_state+0x53a>
    80001fb4:	2f85                	addw	t6,t6,1
    80001fb6:	00130613          	add	a2,t1,1
    80001fba:	8856                	mv	a6,s5
    80001fbc:	4685                	li	a3,1
    80001fbe:	b78d                	j	80001f20 <core_bench_state+0x3fa>
    80001fc0:	5832                	lw	a6,44(sp)
    80001fc2:	fd5a861b          	addw	a2,s5,-43
    80001fc6:	0fd67693          	and	a3,a2,253
    80001fca:	00180a9b          	addw	s5,a6,1
    80001fce:	d656                	sw	s5,44(sp)
    80001fd0:	00234983          	lbu	s3,2(t1)
    80001fd4:	2f85                	addw	t6,t6,1
    80001fd6:	c691                	beqz	a3,80001fe2 <core_bench_state+0x4bc>
    80001fd8:	00230613          	add	a2,t1,2
    80001fdc:	884e                	mv	a6,s3
    80001fde:	4685                	li	a3,1
    80001fe0:	b781                	j	80001f20 <core_bench_state+0x3fa>
    80001fe2:	32098e63          	beqz	s3,8000231e <core_bench_state+0x7f8>
    80001fe6:	00334803          	lbu	a6,3(t1)
    80001fea:	31d98e63          	beq	s3,t4,80002306 <core_bench_state+0x7e0>
    80001fee:	0f09f893          	and	a7,s3,240
    80001ff2:	2f05                	addw	t5,t5,1
    80001ff4:	01c88663          	beq	a7,t3,80002000 <core_bench_state+0x4da>
    80001ff8:	00330613          	add	a2,t1,3
    80001ffc:	4685                	li	a3,1
    80001ffe:	b70d                	j	80001f20 <core_bench_state+0x3fa>
    80002000:	00330613          	add	a2,t1,3
    80002004:	2e080763          	beqz	a6,800022f2 <core_bench_state+0x7cc>
    80002008:	00434303          	lbu	t1,4(t1)
    8000200c:	2fd80563          	beq	a6,t4,800022f6 <core_bench_state+0x7d0>
    80002010:	82c2                	mv	t0,a6
    80002012:	881a                	mv	a6,t1
    80002014:	0f02f293          	and	t0,t0,240
    80002018:	01c28663          	beq	t0,t3,80002024 <core_bench_state+0x4fe>
    8000201c:	2485                	addw	s1,s1,1
    8000201e:	0605                	add	a2,a2,1
    80002020:	4685                	li	a3,1
    80002022:	bdfd                	j	80001f20 <core_bench_state+0x3fa>
    80002024:	00160693          	add	a3,a2,1
    80002028:	2c080563          	beqz	a6,800022f2 <core_bench_state+0x7cc>
    8000202c:	00264303          	lbu	t1,2(a2)
    80002030:	82c2                	mv	t0,a6
    80002032:	8636                	mv	a2,a3
    80002034:	881a                	mv	a6,t1
    80002036:	fdd29fe3          	bne	t0,t4,80002014 <core_bench_state+0x4ee>
    8000203a:	469d                	li	a3,7
    8000203c:	0605                	add	a2,a2,1
    8000203e:	b5cd                	j	80001f20 <core_bench_state+0x3fa>
    80002040:	0285                	add	t0,t0,1
    80002042:	06080d63          	beqz	a6,800020bc <core_bench_state+0x596>
    80002046:	0012c683          	lbu	a3,1(t0)
    8000204a:	89c2                	mv	s3,a6
    8000204c:	2381                	sext.w	t2,t2
    8000204e:	2f01                	sext.w	t5,t5
    80002050:	2f81                	sext.w	t6,t6
    80002052:	8836                	mv	a6,a3
    80002054:	f1d995e3          	bne	s3,t4,80001f5e <core_bench_state+0x438>
    80002058:	8616                	mv	a2,t0
    8000205a:	4691                	li	a3,4
    8000205c:	0605                	add	a2,a2,1
    8000205e:	b5c9                	j	80001f20 <core_bench_state+0x3fa>
    80002060:	0305                	add	t1,t1,1
    80002062:	220a8863          	beqz	s5,80002292 <core_bench_state+0x76c>
    80002066:	00134283          	lbu	t0,1(t1)
    8000206a:	8856                	mv	a6,s5
    8000206c:	2f01                	sext.w	t5,t5
    8000206e:	2f81                	sext.w	t6,t6
    80002070:	2dda8c63          	beq	s5,t4,80002348 <core_bench_state+0x822>
    80002074:	8a96                	mv	s5,t0
    80002076:	b73d                	j	80001fa4 <core_bench_state+0x47e>
    80002078:	00264983          	lbu	s3,2(a2)
    8000207c:	00260293          	add	t0,a2,2
    80002080:	02098e63          	beqz	s3,800020bc <core_bench_state+0x596>
    80002084:	00364803          	lbu	a6,3(a2)
    80002088:	edd99be3          	bne	s3,t4,80001f5e <core_bench_state+0x438>
    8000208c:	b7f1                	j	80002058 <core_bench_state+0x532>
    8000208e:	00160313          	add	t1,a2,1
    80002092:	20098063          	beqz	s3,80002292 <core_bench_state+0x76c>
    80002096:	00264a83          	lbu	s5,2(a2)
    8000209a:	01d98c63          	beq	s3,t4,800020b2 <core_bench_state+0x58c>
    8000209e:	884e                	mv	a6,s3
    800020a0:	b711                	j	80001fa4 <core_bench_state+0x47e>
    800020a2:	00260313          	add	t1,a2,2
    800020a6:	1e080663          	beqz	a6,80002292 <core_bench_state+0x76c>
    800020aa:	00364a83          	lbu	s5,3(a2)
    800020ae:	efd81be3          	bne	a6,t4,80001fa4 <core_bench_state+0x47e>
    800020b2:	861a                	mv	a2,t1
    800020b4:	8856                	mv	a6,s5
    800020b6:	4695                	li	a3,5
    800020b8:	0605                	add	a2,a2,1
    800020ba:	b59d                	j	80001f20 <core_bench_state+0x3fa>
    800020bc:	4911                	li	s2,4
    800020be:	00291813          	sll	a6,s2,0x2
    800020c2:	04080613          	add	a2,a6,64
    800020c6:	00260ab3          	add	s5,a2,sp
    800020ca:	fc0aa983          	lw	s3,-64(s5)
    800020ce:	0019889b          	addw	a7,s3,1
    800020d2:	fd1aa023          	sw	a7,-64(s5)
    800020d6:	577d                	li	a4,-1
    800020d8:	02075913          	srl	s2,a4,0x20
    800020dc:	1f82                	sll	t6,t6,0x20
    800020de:	0123f3b3          	and	t2,t2,s2
    800020e2:	02049e13          	sll	t3,s1,0x20
    800020e6:	01247433          	and	s0,s0,s2
    800020ea:	01f3eeb3          	or	t4,t2,t6
    800020ee:	01c464b3          	or	s1,s0,t3
    800020f2:	dc7a                	sw	t5,56(sp)
    800020f4:	f876                	sd	t4,48(sp)
    800020f6:	f026                	sd	s1,32(sp)
    800020f8:	16f0f463          	bgeu	ra,a5,80002260 <core_bench_state+0x73a>
    800020fc:	4f05                	li	t5,1
    800020fe:	1dea1a63          	bne	s4,t5,800022d2 <core_bench_state+0x7ac>
    80002102:	0000ca03          	lbu	s4,0(ra)
    80002106:	fff0ca93          	not	s5,ra
    8000210a:	015789b3          	add	s3,a5,s5
    8000210e:	02c00893          	li	a7,44
    80002112:	0079f313          	and	t1,s3,7
    80002116:	011a0663          	beq	s4,a7,80002122 <core_bench_state+0x5fc>
    8000211a:	00aa42b3          	xor	t0,s4,a0
    8000211e:	00508023          	sb	t0,0(ra)
    80002122:	00108713          	add	a4,ra,1
    80002126:	12f77d63          	bgeu	a4,a5,80002260 <core_bench_state+0x73a>
    8000212a:	0a030563          	beqz	t1,800021d4 <core_bench_state+0x6ae>
    8000212e:	4905                	li	s2,1
    80002130:	09230763          	beq	t1,s2,800021be <core_bench_state+0x698>
    80002134:	4f89                	li	t6,2
    80002136:	07f30b63          	beq	t1,t6,800021ac <core_bench_state+0x686>
    8000213a:	438d                	li	t2,3
    8000213c:	04730f63          	beq	t1,t2,8000219a <core_bench_state+0x674>
    80002140:	4e11                	li	t3,4
    80002142:	05c30363          	beq	t1,t3,80002188 <core_bench_state+0x662>
    80002146:	4415                	li	s0,5
    80002148:	02830763          	beq	t1,s0,80002176 <core_bench_state+0x650>
    8000214c:	4e99                	li	t4,6
    8000214e:	01d30b63          	beq	t1,t4,80002164 <core_bench_state+0x63e>
    80002152:	00074483          	lbu	s1,0(a4)
    80002156:	01148663          	beq	s1,a7,80002162 <core_bench_state+0x63c>
    8000215a:	00a4cf33          	xor	t5,s1,a0
    8000215e:	01e70023          	sb	t5,0(a4)
    80002162:	0705                	add	a4,a4,1
    80002164:	00074803          	lbu	a6,0(a4)
    80002168:	01180663          	beq	a6,a7,80002174 <core_bench_state+0x64e>
    8000216c:	00a84633          	xor	a2,a6,a0
    80002170:	00c70023          	sb	a2,0(a4)
    80002174:	0705                	add	a4,a4,1
    80002176:	00074683          	lbu	a3,0(a4)
    8000217a:	01168663          	beq	a3,a7,80002186 <core_bench_state+0x660>
    8000217e:	00a6c0b3          	xor	ra,a3,a0
    80002182:	00170023          	sb	ra,0(a4)
    80002186:	0705                	add	a4,a4,1
    80002188:	00074a03          	lbu	s4,0(a4)
    8000218c:	011a0663          	beq	s4,a7,80002198 <core_bench_state+0x672>
    80002190:	00aa4ab3          	xor	s5,s4,a0
    80002194:	01570023          	sb	s5,0(a4)
    80002198:	0705                	add	a4,a4,1
    8000219a:	00074983          	lbu	s3,0(a4)
    8000219e:	01198663          	beq	s3,a7,800021aa <core_bench_state+0x684>
    800021a2:	00a9c333          	xor	t1,s3,a0
    800021a6:	00670023          	sb	t1,0(a4)
    800021aa:	0705                	add	a4,a4,1
    800021ac:	00074283          	lbu	t0,0(a4)
    800021b0:	01128663          	beq	t0,a7,800021bc <core_bench_state+0x696>
    800021b4:	00a2c933          	xor	s2,t0,a0
    800021b8:	01270023          	sb	s2,0(a4)
    800021bc:	0705                	add	a4,a4,1
    800021be:	00074f83          	lbu	t6,0(a4)
    800021c2:	011f8663          	beq	t6,a7,800021ce <core_bench_state+0x6a8>
    800021c6:	00afc3b3          	xor	t2,t6,a0
    800021ca:	00770023          	sb	t2,0(a4)
    800021ce:	0705                	add	a4,a4,1
    800021d0:	08f77863          	bgeu	a4,a5,80002260 <core_bench_state+0x73a>
    800021d4:	00074e03          	lbu	t3,0(a4)
    800021d8:	011e0663          	beq	t3,a7,800021e4 <core_bench_state+0x6be>
    800021dc:	00ae4433          	xor	s0,t3,a0
    800021e0:	00870023          	sb	s0,0(a4)
    800021e4:	00174e83          	lbu	t4,1(a4)
    800021e8:	00170493          	add	s1,a4,1
    800021ec:	011e8663          	beq	t4,a7,800021f8 <core_bench_state+0x6d2>
    800021f0:	00aecf33          	xor	t5,t4,a0
    800021f4:	01e700a3          	sb	t5,1(a4)
    800021f8:	0014c703          	lbu	a4,1(s1)
    800021fc:	01170663          	beq	a4,a7,80002208 <core_bench_state+0x6e2>
    80002200:	00a74833          	xor	a6,a4,a0
    80002204:	010480a3          	sb	a6,1(s1)
    80002208:	0024c603          	lbu	a2,2(s1)
    8000220c:	01160663          	beq	a2,a7,80002218 <core_bench_state+0x6f2>
    80002210:	00a646b3          	xor	a3,a2,a0
    80002214:	00d48123          	sb	a3,2(s1)
    80002218:	0034c083          	lbu	ra,3(s1)
    8000221c:	01108663          	beq	ra,a7,80002228 <core_bench_state+0x702>
    80002220:	00a0ca33          	xor	s4,ra,a0
    80002224:	014481a3          	sb	s4,3(s1)
    80002228:	0044ca83          	lbu	s5,4(s1)
    8000222c:	011a8663          	beq	s5,a7,80002238 <core_bench_state+0x712>
    80002230:	00aac9b3          	xor	s3,s5,a0
    80002234:	01348223          	sb	s3,4(s1)
    80002238:	0054c303          	lbu	t1,5(s1)
    8000223c:	01130663          	beq	t1,a7,80002248 <core_bench_state+0x722>
    80002240:	00a342b3          	xor	t0,t1,a0
    80002244:	005482a3          	sb	t0,5(s1)
    80002248:	0064c903          	lbu	s2,6(s1)
    8000224c:	01190663          	beq	s2,a7,80002258 <core_bench_state+0x732>
    80002250:	00a94fb3          	xor	t6,s2,a0
    80002254:	01f48323          	sb	t6,6(s1)
    80002258:	00748713          	add	a4,s1,7
    8000225c:	f6f76ce3          	bltu	a4,a5,800021d4 <core_bench_state+0x6ae>
    80002260:	1004                	add	s1,sp,32
    80002262:	840a                	mv	s0,sp
    80002264:	8a26                	mv	s4,s1
    80002266:	4008                	lw	a0,0(s0)
    80002268:	0411                	add	s0,s0,4
    8000226a:	0491                	add	s1,s1,4
    8000226c:	9a6ff0ef          	jal	80001412 <crcu32>
    80002270:	85aa                	mv	a1,a0
    80002272:	ffc4a503          	lw	a0,-4(s1)
    80002276:	99cff0ef          	jal	80001412 <crcu32>
    8000227a:	85aa                	mv	a1,a0
    8000227c:	ff4415e3          	bne	s0,s4,80002266 <core_bench_state+0x740>
    80002280:	70e6                	ld	ra,120(sp)
    80002282:	7446                	ld	s0,112(sp)
    80002284:	74a6                	ld	s1,104(sp)
    80002286:	7906                	ld	s2,96(sp)
    80002288:	69e6                	ld	s3,88(sp)
    8000228a:	6a46                	ld	s4,80(sp)
    8000228c:	6aa6                	ld	s5,72(sp)
    8000228e:	6109                	add	sp,sp,128
    80002290:	8082                	ret
    80002292:	4915                	li	s2,5
    80002294:	b52d                	j	800020be <core_bench_state+0x598>
    80002296:	88f2                	mv	a7,t3
    80002298:	4681                	li	a3,0
    8000229a:	0305                	add	t1,t1,1
    8000229c:	b8c5                	j	80001b8c <core_bench_state+0x66>
    8000229e:	431d                	li	t1,7
    800022a0:	bc61                	j	80001d38 <core_bench_state+0x212>
    800022a2:	884e                	mv	a6,s3
    800022a4:	4681                	li	a3,0
    800022a6:	0605                	add	a2,a2,1
    800022a8:	b9a5                	j	80001f20 <core_bench_state+0x3fa>
    800022aa:	8e06                	mv	t3,ra
    800022ac:	02c00f13          	li	t5,44
    800022b0:	000e4883          	lbu	a7,0(t3)
    800022b4:	0128c433          	xor	s0,a7,s2
    800022b8:	01e88463          	beq	a7,t5,800022c0 <core_bench_state+0x79a>
    800022bc:	008e0023          	sb	s0,0(t3)
    800022c0:	9e52                	add	t3,t3,s4
    800022c2:	fefe67e3          	bltu	t3,a5,800022b0 <core_bench_state+0x78a>
    800022c6:	0000c803          	lbu	a6,0(ra)
    800022ca:	c20810e3          	bnez	a6,80001eea <core_bench_state+0x3c4>
    800022ce:	f8f0f9e3          	bgeu	ra,a5,80002260 <core_bench_state+0x73a>
    800022d2:	02c00813          	li	a6,44
    800022d6:	0000c603          	lbu	a2,0(ra)
    800022da:	00a646b3          	xor	a3,a2,a0
    800022de:	01060463          	beq	a2,a6,800022e6 <core_bench_state+0x7c0>
    800022e2:	00d08023          	sb	a3,0(ra)
    800022e6:	90d2                	add	ra,ra,s4
    800022e8:	fef0e7e3          	bltu	ra,a5,800022d6 <core_bench_state+0x7b0>
    800022ec:	bf95                	j	80002260 <core_bench_state+0x73a>
    800022ee:	4311                	li	t1,4
    800022f0:	b4a1                	j	80001d38 <core_bench_state+0x212>
    800022f2:	491d                	li	s2,7
    800022f4:	b3e9                	j	800020be <core_bench_state+0x598>
    800022f6:	881a                	mv	a6,t1
    800022f8:	469d                	li	a3,7
    800022fa:	0605                	add	a2,a2,1
    800022fc:	b115                	j	80001f20 <core_bench_state+0x3fa>
    800022fe:	88f6                	mv	a7,t4
    80002300:	469d                	li	a3,7
    80002302:	0305                	add	t1,t1,1
    80002304:	b061                	j	80001b8c <core_bench_state+0x66>
    80002306:	00230613          	add	a2,t1,2
    8000230a:	4699                	li	a3,6
    8000230c:	0605                	add	a2,a2,1
    8000230e:	b909                	j	80001f20 <core_bench_state+0x3fa>
    80002310:	4319                	li	t1,6
    80002312:	b41d                	j	80001d38 <core_bench_state+0x212>
    80002314:	002e8313          	add	t1,t4,2
    80002318:	4699                	li	a3,6
    8000231a:	0305                	add	t1,t1,1
    8000231c:	b885                	j	80001b8c <core_bench_state+0x66>
    8000231e:	4919                	li	s2,6
    80002320:	bb79                	j	800020be <core_bench_state+0x598>
    80002322:	020a9793          	sll	a5,s5,0x20
    80002326:	0207d293          	srl	t0,a5,0x20
    8000232a:	f002                	sd	zero,32(sp)
    8000232c:	f802                	sd	zero,48(sp)
    8000232e:	005087b3          	add	a5,ra,t0
    80002332:	a4f0e6e3          	bltu	ra,a5,80001d7e <core_bench_state+0x258>
    80002336:	b72d                	j	80002260 <core_bench_state+0x73a>
    80002338:	8322                	mv	t1,s0
    8000233a:	88f6                	mv	a7,t4
    8000233c:	4691                	li	a3,4
    8000233e:	0305                	add	t1,t1,1
    80002340:	b0b1                	j	80001b8c <core_bench_state+0x66>
    80002342:	dcf0e0e3          	bltu	ra,a5,80002102 <core_bench_state+0x5dc>
    80002346:	bf29                	j	80002260 <core_bench_state+0x73a>
    80002348:	861a                	mv	a2,t1
    8000234a:	8816                	mv	a6,t0
    8000234c:	4695                	li	a3,5
    8000234e:	0605                	add	a2,a2,1
    80002350:	bec1                	j	80001f20 <core_bench_state+0x3fa>
    80002352:	8376                	mv	t1,t4
    80002354:	88b6                	mv	a7,a3
    80002356:	0305                	add	t1,t1,1
    80002358:	4695                	li	a3,5
    8000235a:	b80d                	j	80001b8c <core_bench_state+0x66>

000000008000235c <core_init_state>:
core_init_state():
    8000235c:	fff50e9b          	addw	t4,a0,-1
    80002360:	4785                	li	a5,1
    80002362:	13d7f663          	bgeu	a5,t4,8000248e <core_init_state+0x132>
    80002366:	0015829b          	addw	t0,a1,1
    8000236a:	03029593          	sll	a1,t0,0x30
    8000236e:	91c1                	srl	a1,a1,0x30
    80002370:	00006317          	auipc	t1,0x6
    80002374:	0035d693          	srl	a3,a1,0x3
    80002378:	4f9d                	li	t6,7
    8000237a:	0075f393          	and	t2,a1,7
    8000237e:	ff830e13          	add	t3,t1,-8 # 80008368 <intpat>
    80002382:	4781                	li	a5,0
    80002384:	4311                	li	t1,4
    80002386:	4f05                	li	t5,1
    80002388:	02c00293          	li	t0,44
    8000238c:	0036f893          	and	a7,a3,3
    80002390:	0bf38163          	beq	t2,t6,80002432 <core_init_state+0xd6>
    80002394:	0e736563          	bltu	t1,t2,8000247e <core_init_state+0x122>
    80002398:	ffd3869b          	addw	a3,t2,-3
    8000239c:	03069393          	sll	t2,a3,0x30
    800023a0:	0303d813          	srl	a6,t2,0x30
    800023a4:	0d0f6663          	bltu	t5,a6,80002470 <core_init_state+0x114>
    800023a8:	00389693          	sll	a3,a7,0x3
    800023ac:	00de03b3          	add	t2,t3,a3
    800023b0:	0203b383          	ld	t2,32(t2)
    800023b4:	4821                	li	a6,8
    800023b6:	0017871b          	addw	a4,a5,1
    800023ba:	010708bb          	addw	a7,a4,a6
    800023be:	09d8f763          	bgeu	a7,t4,8000244c <core_init_state+0xf0>
    800023c2:	0003c683          	lbu	a3,0(t2)
    800023c6:	1782                	sll	a5,a5,0x20
    800023c8:	0207d713          	srl	a4,a5,0x20
    800023cc:	00e607b3          	add	a5,a2,a4
    800023d0:	00d78023          	sb	a3,0(a5)
    800023d4:	0013c683          	lbu	a3,1(t2)
    800023d8:	00d780a3          	sb	a3,1(a5)
    800023dc:	0023c703          	lbu	a4,2(t2)
    800023e0:	00e78123          	sb	a4,2(a5)
    800023e4:	0033c683          	lbu	a3,3(t2)
    800023e8:	00d781a3          	sb	a3,3(a5)
    800023ec:	02680263          	beq	a6,t1,80002410 <core_init_state+0xb4>
    800023f0:	0043c703          	lbu	a4,4(t2)
    800023f4:	00e78223          	sb	a4,4(a5)
    800023f8:	0053c683          	lbu	a3,5(t2)
    800023fc:	00d782a3          	sb	a3,5(a5)
    80002400:	0063c703          	lbu	a4,6(t2)
    80002404:	00e78323          	sb	a4,6(a5)
    80002408:	0073c383          	lbu	t2,7(t2)
    8000240c:	007783a3          	sb	t2,7(a5)
    80002410:	2585                	addw	a1,a1,1
    80002412:	983e                	add	a6,a6,a5
    80002414:	03059793          	sll	a5,a1,0x30
    80002418:	0307d593          	srl	a1,a5,0x30
    8000241c:	0035d693          	srl	a3,a1,0x3
    80002420:	00580023          	sb	t0,0(a6)
    80002424:	0075f393          	and	t2,a1,7
    80002428:	87c6                	mv	a5,a7
    8000242a:	0036f893          	and	a7,a3,3
    8000242e:	f7f393e3          	bne	t2,t6,80002394 <core_init_state+0x38>
    80002432:	00389713          	sll	a4,a7,0x3
    80002436:	00ee06b3          	add	a3,t3,a4
    8000243a:	4821                	li	a6,8
    8000243c:	0017871b          	addw	a4,a5,1
    80002440:	010708bb          	addw	a7,a4,a6
    80002444:	0606b383          	ld	t2,96(a3)
    80002448:	f7d8ede3          	bltu	a7,t4,800023c2 <core_init_state+0x66>
    8000244c:	00a7e563          	bltu	a5,a0,80002456 <core_init_state+0xfa>
    80002450:	a835                	j	8000248c <core_init_state+0x130>
    80002452:	0017871b          	addw	a4,a5,1
    80002456:	02079e13          	sll	t3,a5,0x20
    8000245a:	020e5e93          	srl	t4,t3,0x20
    8000245e:	01d60f33          	add	t5,a2,t4
    80002462:	0007079b          	sext.w	a5,a4
    80002466:	000f0023          	sb	zero,0(t5)
    8000246a:	fea7e4e3          	bltu	a5,a0,80002452 <core_init_state+0xf6>
    8000246e:	8082                	ret
    80002470:	088e                	sll	a7,a7,0x3
    80002472:	011e0733          	add	a4,t3,a7
    80002476:	00073383          	ld	t2,0(a4)
    8000247a:	4811                	li	a6,4
    8000247c:	bf2d                	j	800023b6 <core_init_state+0x5a>
    8000247e:	088e                	sll	a7,a7,0x3
    80002480:	011e0733          	add	a4,t3,a7
    80002484:	04073383          	ld	t2,64(a4)
    80002488:	4821                	li	a6,8
    8000248a:	b735                	j	800023b6 <core_init_state+0x5a>
    8000248c:	8082                	ret
    8000248e:	4781                	li	a5,0
    80002490:	4705                	li	a4,1
    80002492:	b7d1                	j	80002456 <core_init_state+0xfa>

0000000080002494 <core_state_transition>:
core_state_transition():
    80002494:	611c                	ld	a5,0(a0)
    80002496:	88aa                	mv	a7,a0
    80002498:	0007c683          	lbu	a3,0(a5)
    8000249c:	20068d63          	beqz	a3,800026b6 <core_state_transition+0x222>
    800024a0:	02c00713          	li	a4,44
    800024a4:	0017c603          	lbu	a2,1(a5)
    800024a8:	4501                	li	a0,0
    800024aa:	1ae68463          	beq	a3,a4,80002652 <core_state_transition+0x1be>
    800024ae:	0005a303          	lw	t1,0(a1)
    800024b2:	0f06f513          	and	a0,a3,240
    800024b6:	03000813          	li	a6,48
    800024ba:	0013029b          	addw	t0,t1,1
    800024be:	0055a023          	sw	t0,0(a1)
    800024c2:	05050963          	beq	a0,a6,80002514 <core_state_transition+0x80>
    800024c6:	fd56839b          	addw	t2,a3,-43
    800024ca:	0fd3fe13          	and	t3,t2,253
    800024ce:	020e0163          	beqz	t3,800024f0 <core_state_transition+0x5c>
    800024d2:	02e00e93          	li	t4,46
    800024d6:	1bd68763          	beq	a3,t4,80002684 <core_state_transition+0x1f0>
    800024da:	0045a283          	lw	t0,4(a1)
    800024de:	0785                	add	a5,a5,1
    800024e0:	4505                	li	a0,1
    800024e2:	0012881b          	addw	a6,t0,1
    800024e6:	0105a223          	sw	a6,4(a1)
    800024ea:	00f8b023          	sd	a5,0(a7)
    800024ee:	8082                	ret
    800024f0:	0085af03          	lw	t5,8(a1)
    800024f4:	0f067f93          	and	t6,a2,240
    800024f8:	001f069b          	addw	a3,t5,1
    800024fc:	c594                	sw	a3,8(a1)
    800024fe:	130f8e63          	beq	t6,a6,8000263a <core_state_transition+0x1a6>
    80002502:	02e00313          	li	t1,46
    80002506:	18660d63          	beq	a2,t1,800026a0 <core_state_transition+0x20c>
    8000250a:	0789                	add	a5,a5,2
    8000250c:	4505                	li	a0,1
    8000250e:	00f8b023          	sd	a5,0(a7)
    80002512:	8082                	ret
    80002514:	0017ce83          	lbu	t4,1(a5)
    80002518:	00178393          	add	t2,a5,1
    8000251c:	180e8f63          	beqz	t4,800026ba <core_state_transition+0x226>
    80002520:	0027c303          	lbu	t1,2(a5)
    80002524:	12ee8563          	beq	t4,a4,8000264e <core_state_transition+0x1ba>
    80002528:	02e00713          	li	a4,46
    8000252c:	03000513          	li	a0,48
    80002530:	0f0ef793          	and	a5,t4,240
    80002534:	00ee8f63          	beq	t4,a4,80002552 <core_state_transition+0xbe>
    80002538:	10a78f63          	beq	a5,a0,80002656 <core_state_transition+0x1c2>
    8000253c:	4990                	lw	a2,16(a1)
    8000253e:	00138793          	add	a5,t2,1
    80002542:	4505                	li	a0,1
    80002544:	0016081b          	addw	a6,a2,1
    80002548:	0105a823          	sw	a6,16(a1)
    8000254c:	00f8b023          	sd	a5,0(a7)
    80002550:	8082                	ret
    80002552:	0105af03          	lw	t5,16(a1)
    80002556:	00138e93          	add	t4,t2,1
    8000255a:	001f0f9b          	addw	t6,t5,1
    8000255e:	01f5a823          	sw	t6,16(a1)
    80002562:	0013cf03          	lbu	t5,1(t2)
    80002566:	140f0d63          	beqz	t5,800026c0 <core_state_transition+0x22c>
    8000256a:	02c00713          	li	a4,44
    8000256e:	0023c783          	lbu	a5,2(t2)
    80002572:	12ef0363          	beq	t5,a4,80002698 <core_state_transition+0x204>
    80002576:	04500513          	li	a0,69
    8000257a:	0dff7293          	and	t0,t5,223
    8000257e:	0f0f7813          	and	a6,t5,240
    80002582:	03000613          	li	a2,48
    80002586:	00a28f63          	beq	t0,a0,800025a4 <core_state_transition+0x110>
    8000258a:	0ec80263          	beq	a6,a2,8000266e <core_state_transition+0x1da>
    8000258e:	0145a383          	lw	t2,20(a1)
    80002592:	001e8793          	add	a5,t4,1
    80002596:	4505                	li	a0,1
    80002598:	0013869b          	addw	a3,t2,1
    8000259c:	c9d4                	sw	a3,20(a1)
    8000259e:	00f8b023          	sd	a5,0(a7)
    800025a2:	8082                	ret
    800025a4:	0145af83          	lw	t6,20(a1)
    800025a8:	45d8                	lw	a4,12(a1)
    800025aa:	fd57851b          	addw	a0,a5,-43
    800025ae:	001f829b          	addw	t0,t6,1
    800025b2:	0017081b          	addw	a6,a4,1
    800025b6:	0055aa23          	sw	t0,20(a1)
    800025ba:	0105a623          	sw	a6,12(a1)
    800025be:	0fd57613          	and	a2,a0,253
    800025c2:	c609                	beqz	a2,800025cc <core_state_transition+0x138>
    800025c4:	002e8793          	add	a5,t4,2
    800025c8:	4505                	li	a0,1
    800025ca:	b705                	j	800024ea <core_state_transition+0x56>
    800025cc:	002ec383          	lbu	t2,2(t4)
    800025d0:	002e8793          	add	a5,t4,2
    800025d4:	0e038e63          	beqz	t2,800026d0 <core_state_transition+0x23c>
    800025d8:	02c00e13          	li	t3,44
    800025dc:	0fc38c63          	beq	t2,t3,800026d4 <core_state_transition+0x240>
    800025e0:	4d94                	lw	a3,24(a1)
    800025e2:	0f03f313          	and	t1,t2,240
    800025e6:	03000f13          	li	t5,48
    800025ea:	0016879b          	addw	a5,a3,1
    800025ee:	cd9c                	sw	a5,24(a1)
    800025f0:	01e30663          	beq	t1,t5,800025fc <core_state_transition+0x168>
    800025f4:	003e8793          	add	a5,t4,3
    800025f8:	4505                	li	a0,1
    800025fa:	bdc5                	j	800024ea <core_state_transition+0x56>
    800025fc:	003ec603          	lbu	a2,3(t4)
    80002600:	003e8793          	add	a5,t4,3
    80002604:	c269                	beqz	a2,800026c6 <core_state_transition+0x232>
    80002606:	004ec803          	lbu	a6,4(t4)
    8000260a:	0dc60063          	beq	a2,t3,800026ca <core_state_transition+0x236>
    8000260e:	03000e93          	li	t4,48
    80002612:	0f067713          	and	a4,a2,240
    80002616:	02c00f93          	li	t6,44
    8000261a:	edd710e3          	bne	a4,t4,800024da <core_state_transition+0x46>
    8000261e:	0785                	add	a5,a5,1
    80002620:	0a080363          	beqz	a6,800026c6 <core_state_transition+0x232>
    80002624:	0017c503          	lbu	a0,1(a5)
    80002628:	8642                	mv	a2,a6
    8000262a:	0bf80063          	beq	a6,t6,800026ca <core_state_transition+0x236>
    8000262e:	0f067713          	and	a4,a2,240
    80002632:	882a                	mv	a6,a0
    80002634:	ebd713e3          	bne	a4,t4,800024da <core_state_transition+0x46>
    80002638:	b7dd                	j	8000261e <core_state_transition+0x18a>
    8000263a:	0027ce83          	lbu	t4,2(a5)
    8000263e:	00278393          	add	t2,a5,2
    80002642:	060e8c63          	beqz	t4,800026ba <core_state_transition+0x226>
    80002646:	0037c303          	lbu	t1,3(a5)
    8000264a:	ecee9fe3          	bne	t4,a4,80002528 <core_state_transition+0x94>
    8000264e:	879e                	mv	a5,t2
    80002650:	4511                	li	a0,4
    80002652:	0785                	add	a5,a5,1
    80002654:	bd59                	j	800024ea <core_state_transition+0x56>
    80002656:	02c00293          	li	t0,44
    8000265a:	0385                	add	t2,t2,1
    8000265c:	04030f63          	beqz	t1,800026ba <core_state_transition+0x226>
    80002660:	0013ce03          	lbu	t3,1(t2)
    80002664:	8e9a                	mv	t4,t1
    80002666:	fe5304e3          	beq	t1,t0,8000264e <core_state_transition+0x1ba>
    8000266a:	8372                	mv	t1,t3
    8000266c:	b5d1                	j	80002530 <core_state_transition+0x9c>
    8000266e:	02c00e13          	li	t3,44
    80002672:	0e85                	add	t4,t4,1
    80002674:	c7b1                	beqz	a5,800026c0 <core_state_transition+0x22c>
    80002676:	001ec303          	lbu	t1,1(t4)
    8000267a:	8f3e                	mv	t5,a5
    8000267c:	01c78e63          	beq	a5,t3,80002698 <core_state_transition+0x204>
    80002680:	879a                	mv	a5,t1
    80002682:	bde5                	j	8000257a <core_state_transition+0xe6>
    80002684:	0017cf03          	lbu	t5,1(a5)
    80002688:	00178e93          	add	t4,a5,1
    8000268c:	020f0a63          	beqz	t5,800026c0 <core_state_transition+0x22c>
    80002690:	0027c783          	lbu	a5,2(a5)
    80002694:	eeef11e3          	bne	t5,a4,80002576 <core_state_transition+0xe2>
    80002698:	87f6                	mv	a5,t4
    8000269a:	4515                	li	a0,5
    8000269c:	0785                	add	a5,a5,1
    8000269e:	b5b1                	j	800024ea <core_state_transition+0x56>
    800026a0:	0027cf03          	lbu	t5,2(a5)
    800026a4:	00278e93          	add	t4,a5,2
    800026a8:	000f0c63          	beqz	t5,800026c0 <core_state_transition+0x22c>
    800026ac:	0037c783          	lbu	a5,3(a5)
    800026b0:	ecef13e3          	bne	t5,a4,80002576 <core_state_transition+0xe2>
    800026b4:	b7d5                	j	80002698 <core_state_transition+0x204>
    800026b6:	4501                	li	a0,0
    800026b8:	bd0d                	j	800024ea <core_state_transition+0x56>
    800026ba:	879e                	mv	a5,t2
    800026bc:	4511                	li	a0,4
    800026be:	b535                	j	800024ea <core_state_transition+0x56>
    800026c0:	87f6                	mv	a5,t4
    800026c2:	4515                	li	a0,5
    800026c4:	b51d                	j	800024ea <core_state_transition+0x56>
    800026c6:	451d                	li	a0,7
    800026c8:	b50d                	j	800024ea <core_state_transition+0x56>
    800026ca:	451d                	li	a0,7
    800026cc:	0785                	add	a5,a5,1
    800026ce:	bd31                	j	800024ea <core_state_transition+0x56>
    800026d0:	4519                	li	a0,6
    800026d2:	bd21                	j	800024ea <core_state_transition+0x56>
    800026d4:	4519                	li	a0,6
    800026d6:	0785                	add	a5,a5,1
    800026d8:	bd09                	j	800024ea <core_state_transition+0x56>

00000000800026da <calc_func>:
calc_func():
    800026da:	7179                	add	sp,sp,-48
    800026dc:	f022                	sd	s0,32(sp)
    800026de:	00051403          	lh	s0,0(a0)
    800026e2:	f406                	sd	ra,40(sp)
    800026e4:	ec26                	sd	s1,24(sp)
    800026e6:	4074579b          	sraw	a5,s0,0x7
    800026ea:	e84a                	sd	s2,16(sp)
    800026ec:	e44e                	sd	s3,8(sp)
    800026ee:	0017f093          	and	ra,a5,1
    800026f2:	00008b63          	beqz	ra,80002708 <calc_func+0x2e>
    800026f6:	70a2                	ld	ra,40(sp)
    800026f8:	07f47513          	and	a0,s0,127
    800026fc:	7402                	ld	s0,32(sp)
    800026fe:	64e2                	ld	s1,24(sp)
    80002700:	6942                	ld	s2,16(sp)
    80002702:	69a2                	ld	s3,8(sp)
    80002704:	6145                	add	sp,sp,48
    80002706:	8082                	ret
    80002708:	4034529b          	sraw	t0,s0,0x3
    8000270c:	00f2f693          	and	a3,t0,15
    80002710:	00469613          	sll	a2,a3,0x4
    80002714:	00747713          	and	a4,s0,7
    80002718:	0605d783          	lhu	a5,96(a1)
    8000271c:	84ae                	mv	s1,a1
    8000271e:	892a                	mv	s2,a0
    80002720:	00d665b3          	or	a1,a2,a3
    80002724:	c321                	beqz	a4,80002764 <calc_func+0x8a>
    80002726:	4505                	li	a0,1
    80002728:	06a70b63          	beq	a4,a0,8000279e <calc_func+0xc4>
    8000272c:	03041893          	sll	a7,s0,0x30
    80002730:	0308d513          	srl	a0,a7,0x30
    80002734:	89a2                	mv	s3,s0
    80002736:	85be                	mv	a1,a5
    80002738:	a8bfe0ef          	jal	800011c2 <crcu16>
    8000273c:	8e2a                	mv	t3,a0
    8000273e:	f0047e93          	and	t4,s0,-256
    80002742:	07f9f513          	and	a0,s3,127
    80002746:	70a2                	ld	ra,40(sp)
    80002748:	7402                	ld	s0,32(sp)
    8000274a:	01d56f33          	or	t5,a0,t4
    8000274e:	07c49023          	sh	t3,96(s1)
    80002752:	080f6f93          	or	t6,t5,128
    80002756:	01f91023          	sh	t6,0(s2)
    8000275a:	64e2                	ld	s1,24(sp)
    8000275c:	6942                	ld	s2,16(sp)
    8000275e:	69a2                	ld	s3,8(sp)
    80002760:	6145                	add	sp,sp,48
    80002762:	8082                	ret
    80002764:	02200313          	li	t1,34
    80002768:	83ae                	mv	t2,a1
    8000276a:	0065d463          	bge	a1,t1,80002772 <calc_func+0x98>
    8000276e:	02200393          	li	t2,34
    80002772:	708c                	ld	a1,32(s1)
    80002774:	00249683          	lh	a3,2(s1)
    80002778:	00049603          	lh	a2,0(s1)
    8000277c:	5488                	lw	a0,40(s1)
    8000277e:	0ff3f713          	zext.b	a4,t2
    80002782:	ba4ff0ef          	jal	80001b26 <core_bench_state>
    80002786:	0664d583          	lhu	a1,102(s1)
    8000278a:	e199                	bnez	a1,80002790 <calc_func+0xb6>
    8000278c:	06a49323          	sh	a0,102(s1)
    80002790:	0105199b          	sllw	s3,a0,0x10
    80002794:	0604d783          	lhu	a5,96(s1)
    80002798:	4109d99b          	sraw	s3,s3,0x10
    8000279c:	bf69                	j	80002736 <calc_func+0x5c>
    8000279e:	863e                	mv	a2,a5
    800027a0:	04048513          	add	a0,s1,64
    800027a4:	51d000ef          	jal	800034c0 <core_bench_matrix>
    800027a8:	0644d803          	lhu	a6,100(s1)
    800027ac:	fe0812e3          	bnez	a6,80002790 <calc_func+0xb6>
    800027b0:	06a49223          	sh	a0,100(s1)
    800027b4:	bff1                	j	80002790 <calc_func+0xb6>

00000000800027b6 <cmp_complex>:
cmp_complex():
    800027b6:	7179                	add	sp,sp,-48
    800027b8:	ec26                	sd	s1,24(sp)
    800027ba:	00051483          	lh	s1,0(a0)
    800027be:	f406                	sd	ra,40(sp)
    800027c0:	f022                	sd	s0,32(sp)
    800027c2:	4074d79b          	sraw	a5,s1,0x7
    800027c6:	e84a                	sd	s2,16(sp)
    800027c8:	e44e                	sd	s3,8(sp)
    800027ca:	e052                	sd	s4,0(sp)
    800027cc:	0017f093          	and	ra,a5,1
    800027d0:	89ae                	mv	s3,a1
    800027d2:	8432                	mv	s0,a2
    800027d4:	07f4f913          	and	s2,s1,127
    800027d8:	04009863          	bnez	ra,80002828 <cmp_complex+0x72>
    800027dc:	4034d29b          	sraw	t0,s1,0x3
    800027e0:	00f2f693          	and	a3,t0,15
    800027e4:	00469613          	sll	a2,a3,0x4
    800027e8:	0074f713          	and	a4,s1,7
    800027ec:	06045783          	lhu	a5,96(s0)
    800027f0:	8a2a                	mv	s4,a0
    800027f2:	00c6e5b3          	or	a1,a3,a2
    800027f6:	0e070863          	beqz	a4,800028e6 <cmp_complex+0x130>
    800027fa:	4505                	li	a0,1
    800027fc:	12a70263          	beq	a4,a0,80002920 <cmp_complex+0x16a>
    80002800:	03049893          	sll	a7,s1,0x30
    80002804:	0308d513          	srl	a0,a7,0x30
    80002808:	8926                	mv	s2,s1
    8000280a:	85be                	mv	a1,a5
    8000280c:	9b7fe0ef          	jal	800011c2 <crcu16>
    80002810:	07f97913          	and	s2,s2,127
    80002814:	f004fe13          	and	t3,s1,-256
    80002818:	01c96eb3          	or	t4,s2,t3
    8000281c:	06a41023          	sh	a0,96(s0)
    80002820:	080eef13          	or	t5,t4,128
    80002824:	01ea1023          	sh	t5,0(s4)
    80002828:	00099483          	lh	s1,0(s3)
    8000282c:	4074df9b          	sraw	t6,s1,0x7
    80002830:	001ff793          	and	a5,t6,1
    80002834:	07f4f893          	and	a7,s1,127
    80002838:	e3a5                	bnez	a5,80002898 <cmp_complex+0xe2>
    8000283a:	4034d09b          	sraw	ra,s1,0x3
    8000283e:	00f0fa13          	and	s4,ra,15
    80002842:	004a1293          	sll	t0,s4,0x4
    80002846:	0074f613          	and	a2,s1,7
    8000284a:	06045783          	lhu	a5,96(s0)
    8000284e:	005a65b3          	or	a1,s4,t0
    80002852:	c235                	beqz	a2,800028b6 <cmp_complex+0x100>
    80002854:	4385                	li	t2,1
    80002856:	04761b63          	bne	a2,t2,800028ac <cmp_complex+0xf6>
    8000285a:	863e                	mv	a2,a5
    8000285c:	04040513          	add	a0,s0,64
    80002860:	461000ef          	jal	800034c0 <core_bench_matrix>
    80002864:	06445583          	lhu	a1,100(s0)
    80002868:	e199                	bnez	a1,8000286e <cmp_complex+0xb8>
    8000286a:	06a41223          	sh	a0,100(s0)
    8000286e:	06045783          	lhu	a5,96(s0)
    80002872:	0105181b          	sllw	a6,a0,0x10
    80002876:	41085a1b          	sraw	s4,a6,0x10
    8000287a:	85be                	mv	a1,a5
    8000287c:	947fe0ef          	jal	800011c2 <crcu16>
    80002880:	07fa7893          	and	a7,s4,127
    80002884:	f004fe13          	and	t3,s1,-256
    80002888:	01c8eeb3          	or	t4,a7,t3
    8000288c:	06a41023          	sh	a0,96(s0)
    80002890:	080ee413          	or	s0,t4,128
    80002894:	00899023          	sh	s0,0(s3)
    80002898:	70a2                	ld	ra,40(sp)
    8000289a:	7402                	ld	s0,32(sp)
    8000289c:	64e2                	ld	s1,24(sp)
    8000289e:	69a2                	ld	s3,8(sp)
    800028a0:	6a02                	ld	s4,0(sp)
    800028a2:	4119053b          	subw	a0,s2,a7
    800028a6:	6942                	ld	s2,16(sp)
    800028a8:	6145                	add	sp,sp,48
    800028aa:	8082                	ret
    800028ac:	03049513          	sll	a0,s1,0x30
    800028b0:	9141                	srl	a0,a0,0x30
    800028b2:	8a26                	mv	s4,s1
    800028b4:	b7d9                	j	8000287a <cmp_complex+0xc4>
    800028b6:	02200693          	li	a3,34
    800028ba:	872e                	mv	a4,a1
    800028bc:	00d5d463          	bge	a1,a3,800028c4 <cmp_complex+0x10e>
    800028c0:	02200713          	li	a4,34
    800028c4:	00241683          	lh	a3,2(s0)
    800028c8:	00041603          	lh	a2,0(s0)
    800028cc:	700c                	ld	a1,32(s0)
    800028ce:	5408                	lw	a0,40(s0)
    800028d0:	0ff77713          	zext.b	a4,a4
    800028d4:	a52ff0ef          	jal	80001b26 <core_bench_state>
    800028d8:	06645303          	lhu	t1,102(s0)
    800028dc:	f80319e3          	bnez	t1,8000286e <cmp_complex+0xb8>
    800028e0:	06a41323          	sh	a0,102(s0)
    800028e4:	b769                	j	8000286e <cmp_complex+0xb8>
    800028e6:	02200313          	li	t1,34
    800028ea:	83ae                	mv	t2,a1
    800028ec:	0065d463          	bge	a1,t1,800028f4 <cmp_complex+0x13e>
    800028f0:	02200393          	li	t2,34
    800028f4:	700c                	ld	a1,32(s0)
    800028f6:	00241683          	lh	a3,2(s0)
    800028fa:	00041603          	lh	a2,0(s0)
    800028fe:	5408                	lw	a0,40(s0)
    80002900:	0ff3f713          	zext.b	a4,t2
    80002904:	a22ff0ef          	jal	80001b26 <core_bench_state>
    80002908:	06645583          	lhu	a1,102(s0)
    8000290c:	e199                	bnez	a1,80002912 <cmp_complex+0x15c>
    8000290e:	06a41323          	sh	a0,102(s0)
    80002912:	0105191b          	sllw	s2,a0,0x10
    80002916:	06045783          	lhu	a5,96(s0)
    8000291a:	4109591b          	sraw	s2,s2,0x10
    8000291e:	b5f5                	j	8000280a <cmp_complex+0x54>
    80002920:	863e                	mv	a2,a5
    80002922:	04040513          	add	a0,s0,64
    80002926:	39b000ef          	jal	800034c0 <core_bench_matrix>
    8000292a:	06445803          	lhu	a6,100(s0)
    8000292e:	fe0812e3          	bnez	a6,80002912 <cmp_complex+0x15c>
    80002932:	06a41223          	sh	a0,100(s0)
    80002936:	bff1                	j	80002912 <cmp_complex+0x15c>

0000000080002938 <cmp_idx>:
cmp_idx():
    80002938:	c619                	beqz	a2,80002946 <cmp_idx+0xe>
    8000293a:	00251503          	lh	a0,2(a0)
    8000293e:	00259583          	lh	a1,2(a1)
    80002942:	9d0d                	subw	a0,a0,a1
    80002944:	8082                	ret
    80002946:	00055783          	lhu	a5,0(a0)
    8000294a:	0087d293          	srl	t0,a5,0x8
    8000294e:	0082971b          	sllw	a4,t0,0x8
    80002952:	00e2e333          	or	t1,t0,a4
    80002956:	00651023          	sh	t1,0(a0)
    8000295a:	0005d383          	lhu	t2,0(a1)
    8000295e:	00251503          	lh	a0,2(a0)
    80002962:	0083d613          	srl	a2,t2,0x8
    80002966:	0086169b          	sllw	a3,a2,0x8
    8000296a:	00d66833          	or	a6,a2,a3
    8000296e:	01059023          	sh	a6,0(a1)
    80002972:	00259583          	lh	a1,2(a1)
    80002976:	9d0d                	subw	a0,a0,a1
    80002978:	8082                	ret

000000008000297a <copy_info>:
copy_info():
    8000297a:	00059703          	lh	a4,0(a1)
    8000297e:	00259783          	lh	a5,2(a1)
    80002982:	00e51023          	sh	a4,0(a0)
    80002986:	00f51123          	sh	a5,2(a0)
    8000298a:	8082                	ret

000000008000298c <core_bench_list>:
core_bench_list():
    8000298c:	00451303          	lh	t1,4(a0)
    80002990:	7135                	add	sp,sp,-160
    80002992:	e922                	sd	s0,144(sp)
    80002994:	f8d2                	sd	s4,112(sp)
    80002996:	ed06                	sd	ra,152(sp)
    80002998:	e526                	sd	s1,136(sp)
    8000299a:	e14a                	sd	s2,128(sp)
    8000299c:	fcce                	sd	s3,120(sp)
    8000299e:	f4d6                	sd	s5,104(sp)
    800029a0:	f0da                	sd	s6,96(sp)
    800029a2:	ecde                	sd	s7,88(sp)
    800029a4:	e8e2                	sd	s8,80(sp)
    800029a6:	e4e6                	sd	s9,72(sp)
    800029a8:	e0ea                	sd	s10,64(sp)
    800029aa:	fc6e                	sd	s11,56(sp)
    800029ac:	f002                	sd	zero,32(sp)
    800029ae:	e42e                	sd	a1,8(sp)
    800029b0:	7d00                	ld	s0,56(a0)
    800029b2:	8a2a                	mv	s4,a0
    800029b4:	882e                	mv	a6,a1
    800029b6:	58605363          	blez	t1,80002f3c <core_bench_list+0x5b0>
    800029ba:	4601                	li	a2,0
    800029bc:	4881                	li	a7,0
    800029be:	4501                	li	a0,0
    800029c0:	4e81                	li	t4,0
    800029c2:	60a2                	ld	ra,8(sp)
    800029c4:	0ff67793          	zext.b	a5,a2
    800029c8:	f03e                	sd	a5,32(sp)
    800029ca:	2400cd63          	bltz	ra,80002c24 <core_bench_list+0x298>
    800029ce:	56040b63          	beqz	s0,80002f44 <core_bench_list+0x5b8>
    800029d2:	82a2                	mv	t0,s0
    800029d4:	a029                	j	800029de <core_bench_list+0x52>
    800029d6:	0002b283          	ld	t0,0(t0)
    800029da:	00028963          	beqz	t0,800029ec <core_bench_list+0x60>
    800029de:	0082b483          	ld	s1,8(t0)
    800029e2:	69a2                	ld	s3,8(sp)
    800029e4:	00249903          	lh	s2,2(s1)
    800029e8:	ff3917e3          	bne	s2,s3,800029d6 <core_bench_list+0x4a>
    800029ec:	4a81                	li	s5,0
    800029ee:	a011                	j	800029f2 <core_bench_list+0x66>
    800029f0:	845a                	mv	s0,s6
    800029f2:	00043b03          	ld	s6,0(s0)
    800029f6:	01543023          	sd	s5,0(s0)
    800029fa:	8aa2                	mv	s5,s0
    800029fc:	fe0b1ae3          	bnez	s6,800029f0 <core_bench_list+0x64>
    80002a00:	24028263          	beqz	t0,80002c44 <core_bench_list+0x2b8>
    80002a04:	0082bb83          	ld	s7,8(t0)
    80002a08:	000b9c03          	lh	s8,0(s7)
    80002a0c:	001c7c93          	and	s9,s8,1
    80002a10:	000c8c63          	beqz	s9,80002a28 <core_bench_list+0x9c>
    80002a14:	409c5d1b          	sraw	s10,s8,0x9
    80002a18:	001d7d93          	and	s11,s10,1
    80002a1c:	01dd85bb          	addw	a1,s11,t4
    80002a20:	03059e13          	sll	t3,a1,0x30
    80002a24:	030e5e93          	srl	t4,t3,0x30
    80002a28:	0002bf03          	ld	t5,0(t0)
    80002a2c:	000f0b63          	beqz	t5,80002a42 <core_bench_list+0xb6>
    80002a30:	000f3f83          	ld	t6,0(t5)
    80002a34:	01f2b023          	sd	t6,0(t0)
    80002a38:	601c                	ld	a5,0(s0)
    80002a3a:	00ff3023          	sd	a5,0(t5)
    80002a3e:	01e43023          	sd	t5,0(s0)
    80002a42:	2505                	addw	a0,a0,1
    80002a44:	03051093          	sll	ra,a0,0x30
    80002a48:	0300d513          	srl	a0,ra,0x30
    80002a4c:	6aa2                	ld	s5,8(sp)
    80002a4e:	000ac963          	bltz	s5,80002a60 <core_bench_list+0xd4>
    80002a52:	001a8b1b          	addw	s6,s5,1
    80002a56:	010b1b9b          	sllw	s7,s6,0x10
    80002a5a:	410bdc1b          	sraw	s8,s7,0x10
    80002a5e:	e462                	sd	s8,8(sp)
    80002a60:	2605                	addw	a2,a2,1
    80002a62:	01061c9b          	sllw	s9,a2,0x10
    80002a66:	410cd61b          	sraw	a2,s9,0x10
    80002a6a:	f4c31ce3          	bne	t1,a2,800029c2 <core_bench_list+0x36>
    80002a6e:	0025131b          	sllw	t1,a0,0x2
    80002a72:	41130d3b          	subw	s10,t1,a7
    80002a76:	01dd0dbb          	addw	s11,s10,t4
    80002a7a:	030d9593          	sll	a1,s11,0x30
    80002a7e:	0305de13          	srl	t3,a1,0x30
    80002a82:	f472                	sd	t3,40(sp)
    80002a84:	23004263          	bgtz	a6,80002ca8 <core_bench_list+0x31c>
    80002a88:	00043a03          	ld	s4,0(s0)
    80002a8c:	6ca2                	ld	s9,8(sp)
    80002a8e:	84a2                	mv	s1,s0
    80002a90:	000a3b03          	ld	s6,0(s4)
    80002a94:	008a3d83          	ld	s11,8(s4)
    80002a98:	008b3b83          	ld	s7,8(s6)
    80002a9c:	000b3c03          	ld	s8,0(s6)
    80002aa0:	017a3423          	sd	s7,8(s4)
    80002aa4:	01bb3423          	sd	s11,8(s6)
    80002aa8:	018a3023          	sd	s8,0(s4)
    80002aac:	000b3023          	sd	zero,0(s6)
    80002ab0:	100cc063          	bltz	s9,80002bb0 <core_bench_list+0x224>
    80002ab4:	648c                	ld	a1,8(s1)
    80002ab6:	6822                	ld	a6,8(sp)
    80002ab8:	00259e03          	lh	t3,2(a1)
    80002abc:	010e0b63          	beq	t3,a6,80002ad2 <core_bench_list+0x146>
    80002ac0:	6084                	ld	s1,0(s1)
    80002ac2:	44048c63          	beqz	s1,80002f1a <core_bench_list+0x58e>
    80002ac6:	648c                	ld	a1,8(s1)
    80002ac8:	6822                	ld	a6,8(sp)
    80002aca:	00259e03          	lh	t3,2(a1)
    80002ace:	ff0e19e3          	bne	t3,a6,80002ac0 <core_bench_list+0x134>
    80002ad2:	00843e83          	ld	t4,8(s0)
    80002ad6:	75a2                	ld	a1,40(sp)
    80002ad8:	000e9503          	lh	a0,0(t4)
    80002adc:	df1fe0ef          	jal	800018cc <crc16>
    80002ae0:	6084                	ld	s1,0(s1)
    80002ae2:	f42a                	sd	a0,40(sp)
    80002ae4:	f4fd                	bnez	s1,80002ad2 <core_bench_list+0x146>
    80002ae6:	6004                	ld	s1,0(s0)
    80002ae8:	008b3d83          	ld	s11,8(s6)
    80002aec:	0084bf83          	ld	t6,8(s1)
    80002af0:	609c                	ld	a5,0(s1)
    80002af2:	4f05                	li	t5,1
    80002af4:	01fb3423          	sd	t6,8(s6)
    80002af8:	01b4b423          	sd	s11,8(s1)
    80002afc:	00fb3023          	sd	a5,0(s6)
    80002b00:	0164b023          	sd	s6,0(s1)
    80002b04:	4601                	li	a2,0
    80002b06:	4481                	li	s1,0
    80002b08:	4b81                	li	s7,0
    80002b0a:	4a05                	li	s4,1
    80002b0c:	007f7093          	and	ra,t5,7
    80002b10:	2b85                	addw	s7,s7,1
    80002b12:	8722                	mv	a4,s0
    80002b14:	4a81                	li	s5,0
    80002b16:	04008b63          	beqz	ra,80002b6c <core_bench_list+0x1e0>
    80002b1a:	4285                	li	t0,1
    80002b1c:	04508363          	beq	ra,t0,80002b62 <core_bench_list+0x1d6>
    80002b20:	4889                	li	a7,2
    80002b22:	03108d63          	beq	ra,a7,80002b5c <core_bench_list+0x1d0>
    80002b26:	438d                	li	t2,3
    80002b28:	02708763          	beq	ra,t2,80002b56 <core_bench_list+0x1ca>
    80002b2c:	4691                	li	a3,4
    80002b2e:	02d08163          	beq	ra,a3,80002b50 <core_bench_list+0x1c4>
    80002b32:	4915                	li	s2,5
    80002b34:	01208b63          	beq	ra,s2,80002b4a <core_bench_list+0x1be>
    80002b38:	4999                	li	s3,6
    80002b3a:	01308563          	beq	ra,s3,80002b44 <core_bench_list+0x1b8>
    80002b3e:	6018                	ld	a4,0(s0)
    80002b40:	4a85                	li	s5,1
    80002b42:	cb1d                	beqz	a4,80002b78 <core_bench_list+0x1ec>
    80002b44:	6318                	ld	a4,0(a4)
    80002b46:	2a85                	addw	s5,s5,1
    80002b48:	cb05                	beqz	a4,80002b78 <core_bench_list+0x1ec>
    80002b4a:	6318                	ld	a4,0(a4)
    80002b4c:	2a85                	addw	s5,s5,1
    80002b4e:	c70d                	beqz	a4,80002b78 <core_bench_list+0x1ec>
    80002b50:	6318                	ld	a4,0(a4)
    80002b52:	2a85                	addw	s5,s5,1
    80002b54:	c315                	beqz	a4,80002b78 <core_bench_list+0x1ec>
    80002b56:	6318                	ld	a4,0(a4)
    80002b58:	2a85                	addw	s5,s5,1
    80002b5a:	cf19                	beqz	a4,80002b78 <core_bench_list+0x1ec>
    80002b5c:	6318                	ld	a4,0(a4)
    80002b5e:	2a85                	addw	s5,s5,1
    80002b60:	cf01                	beqz	a4,80002b78 <core_bench_list+0x1ec>
    80002b62:	6318                	ld	a4,0(a4)
    80002b64:	2a85                	addw	s5,s5,1
    80002b66:	cb09                	beqz	a4,80002b78 <core_bench_list+0x1ec>
    80002b68:	01ea8863          	beq	s5,t5,80002b78 <core_bench_list+0x1ec>
    80002b6c:	6318                	ld	a4,0(a4)
    80002b6e:	2a85                	addw	s5,s5,1
    80002b70:	c701                	beqz	a4,80002b78 <core_bench_list+0x1ec>
    80002b72:	6318                	ld	a4,0(a4)
    80002b74:	2a85                	addw	s5,s5,1
    80002b76:	f779                	bnez	a4,80002b44 <core_bench_list+0x1b8>
    80002b78:	85fa                	mv	a1,t5
    80002b7a:	01505c63          	blez	s5,80002b92 <core_bench_list+0x206>
    80002b7e:	e1a1                	bnez	a1,80002bbe <core_bench_list+0x232>
    80002b80:	82a2                	mv	t0,s0
    80002b82:	6000                	ld	s0,0(s0)
    80002b84:	3afd                	addw	s5,s5,-1
    80002b86:	ce19                	beqz	a2,80002ba4 <core_bench_list+0x218>
    80002b88:	00563023          	sd	t0,0(a2)
    80002b8c:	8616                	mv	a2,t0
    80002b8e:	ff5048e3          	bgtz	s5,80002b7e <core_bench_list+0x1f2>
    80002b92:	06b05963          	blez	a1,80002c04 <core_bench_list+0x278>
    80002b96:	cb35                	beqz	a4,80002c0a <core_bench_list+0x27e>
    80002b98:	020a9463          	bnez	s5,80002bc0 <core_bench_list+0x234>
    80002b9c:	82ba                	mv	t0,a4
    80002b9e:	35fd                	addw	a1,a1,-1
    80002ba0:	6318                	ld	a4,0(a4)
    80002ba2:	f27d                	bnez	a2,80002b88 <core_bench_list+0x1fc>
    80002ba4:	8496                	mv	s1,t0
    80002ba6:	8616                	mv	a2,t0
    80002ba8:	b7dd                	j	80002b8e <core_bench_list+0x202>
    80002baa:	6084                	ld	s1,0(s1)
    80002bac:	36048763          	beqz	s1,80002f1a <core_bench_list+0x58e>
    80002bb0:	6490                	ld	a2,8(s1)
    80002bb2:	7d02                	ld	s10,32(sp)
    80002bb4:	00064303          	lbu	t1,0(a2)
    80002bb8:	ffa319e3          	bne	t1,s10,80002baa <core_bench_list+0x21e>
    80002bbc:	bf19                	j	80002ad2 <core_bench_list+0x146>
    80002bbe:	d369                	beqz	a4,80002b80 <core_bench_list+0x1f4>
    80002bc0:	00843c03          	ld	s8,8(s0)
    80002bc4:	00873c83          	ld	s9,8(a4)
    80002bc8:	000c5d03          	lhu	s10,0(s8)
    80002bcc:	002c9303          	lh	t1,2(s9)
    80002bd0:	002c1d83          	lh	s11,2(s8)
    80002bd4:	008d5b13          	srl	s6,s10,0x8
    80002bd8:	008b1e1b          	sllw	t3,s6,0x8
    80002bdc:	01cb6833          	or	a6,s6,t3
    80002be0:	010c1023          	sh	a6,0(s8)
    80002be4:	000cde83          	lhu	t4,0(s9)
    80002be8:	008edf93          	srl	t6,t4,0x8
    80002bec:	008f979b          	sllw	a5,t6,0x8
    80002bf0:	00ffe0b3          	or	ra,t6,a5
    80002bf4:	001c9023          	sh	ra,0(s9)
    80002bf8:	f9b354e3          	bge	t1,s11,80002b80 <core_bench_list+0x1f4>
    80002bfc:	82ba                	mv	t0,a4
    80002bfe:	35fd                	addw	a1,a1,-1
    80002c00:	6318                	ld	a4,0(a4)
    80002c02:	b751                	j	80002b86 <core_bench_list+0x1fa>
    80002c04:	c319                	beqz	a4,80002c0a <core_bench_list+0x27e>
    80002c06:	843a                	mv	s0,a4
    80002c08:	b711                	j	80002b0c <core_bench_list+0x180>
    80002c0a:	00063023          	sd	zero,0(a2)
    80002c0e:	074b8263          	beq	s7,s4,80002c72 <core_bench_list+0x2e6>
    80002c12:	001f1f1b          	sllw	t5,t5,0x1
    80002c16:	c8b9                	beqz	s1,80002c6c <core_bench_list+0x2e0>
    80002c18:	8726                	mv	a4,s1
    80002c1a:	4601                	li	a2,0
    80002c1c:	4481                	li	s1,0
    80002c1e:	4b81                	li	s7,0
    80002c20:	843a                	mv	s0,a4
    80002c22:	b5ed                	j	80002b0c <core_bench_list+0x180>
    80002c24:	32040063          	beqz	s0,80002f44 <core_bench_list+0x5b8>
    80002c28:	82a2                	mv	t0,s0
    80002c2a:	a029                	j	80002c34 <core_bench_list+0x2a8>
    80002c2c:	0002b283          	ld	t0,0(t0)
    80002c30:	da028ee3          	beqz	t0,800029ec <core_bench_list+0x60>
    80002c34:	0082b703          	ld	a4,8(t0)
    80002c38:	7682                	ld	a3,32(sp)
    80002c3a:	00074383          	lbu	t2,0(a4)
    80002c3e:	fe7697e3          	bne	a3,t2,80002c2c <core_bench_list+0x2a0>
    80002c42:	b36d                	j	800029ec <core_bench_list+0x60>
    80002c44:	00043283          	ld	t0,0(s0)
    80002c48:	2885                	addw	a7,a7,1
    80002c4a:	03089713          	sll	a4,a7,0x30
    80002c4e:	0082b383          	ld	t2,8(t0)
    80002c52:	03075893          	srl	a7,a4,0x30
    80002c56:	00138683          	lb	a3,1(t2)
    80002c5a:	0016f493          	and	s1,a3,1
    80002c5e:	01d4893b          	addw	s2,s1,t4
    80002c62:	03091993          	sll	s3,s2,0x30
    80002c66:	0309de93          	srl	t4,s3,0x30
    80002c6a:	b3cd                	j	80002a4c <core_bench_list+0xc0>
    80002c6c:	00003023          	sd	zero,0(zero) # 0 <_tbss_end>
    80002c70:	9002                	ebreak
    80002c72:	6080                	ld	s0,0(s1)
    80002c74:	2c040663          	beqz	s0,80002f40 <core_bench_list+0x5b4>
    80002c78:	6488                	ld	a0,8(s1)
    80002c7a:	75a2                	ld	a1,40(sp)
    80002c7c:	00051503          	lh	a0,0(a0)
    80002c80:	c4dfe0ef          	jal	800018cc <crc16>
    80002c84:	6000                	ld	s0,0(s0)
    80002c86:	f42a                	sd	a0,40(sp)
    80002c88:	f865                	bnez	s0,80002c78 <core_bench_list+0x2ec>
    80002c8a:	60ea                	ld	ra,152(sp)
    80002c8c:	644a                	ld	s0,144(sp)
    80002c8e:	64aa                	ld	s1,136(sp)
    80002c90:	690a                	ld	s2,128(sp)
    80002c92:	79e6                	ld	s3,120(sp)
    80002c94:	7a46                	ld	s4,112(sp)
    80002c96:	7aa6                	ld	s5,104(sp)
    80002c98:	7b06                	ld	s6,96(sp)
    80002c9a:	6be6                	ld	s7,88(sp)
    80002c9c:	6c46                	ld	s8,80(sp)
    80002c9e:	6ca6                	ld	s9,72(sp)
    80002ca0:	6d06                	ld	s10,64(sp)
    80002ca2:	7de2                	ld	s11,56(sp)
    80002ca4:	610d                	add	sp,sp,160
    80002ca6:	8082                	ret
    80002ca8:	4805                	li	a6,1
    80002caa:	040a0e93          	add	t4,s4,64
    80002cae:	e042                	sd	a6,0(sp)
    80002cb0:	4d85                	li	s11,1
    80002cb2:	ec76                	sd	t4,24(sp)
    80002cb4:	dc45                	beqz	s0,80002c6c <core_bench_list+0x2e0>
    80002cb6:	4981                	li	s3,0
    80002cb8:	4d01                	li	s10,0
    80002cba:	e802                	sd	zero,16(sp)
    80002cbc:	67c2                	ld	a5,16(sp)
    80002cbe:	6f02                	ld	t5,0(sp)
    80002cc0:	8b22                	mv	s6,s0
    80002cc2:	0017809b          	addw	ra,a5,1
    80002cc6:	007f7f93          	and	t6,t5,7
    80002cca:	e806                	sd	ra,16(sp)
    80002ccc:	4481                	li	s1,0
    80002cce:	060f8a63          	beqz	t6,80002d42 <core_bench_list+0x3b6>
    80002cd2:	4505                	li	a0,1
    80002cd4:	04af8f63          	beq	t6,a0,80002d32 <core_bench_list+0x3a6>
    80002cd8:	4289                	li	t0,2
    80002cda:	045f8763          	beq	t6,t0,80002d28 <core_bench_list+0x39c>
    80002cde:	488d                	li	a7,3
    80002ce0:	031f8f63          	beq	t6,a7,80002d1e <core_bench_list+0x392>
    80002ce4:	4711                	li	a4,4
    80002ce6:	02ef8763          	beq	t6,a4,80002d14 <core_bench_list+0x388>
    80002cea:	4395                	li	t2,5
    80002cec:	007f8f63          	beq	t6,t2,80002d0a <core_bench_list+0x37e>
    80002cf0:	4699                	li	a3,6
    80002cf2:	00df8763          	beq	t6,a3,80002d00 <core_bench_list+0x374>
    80002cf6:	00043b03          	ld	s6,0(s0)
    80002cfa:	4485                	li	s1,1
    80002cfc:	040b0d63          	beqz	s6,80002d56 <core_bench_list+0x3ca>
    80002d00:	000b3b03          	ld	s6,0(s6)
    80002d04:	2485                	addw	s1,s1,1
    80002d06:	040b0863          	beqz	s6,80002d56 <core_bench_list+0x3ca>
    80002d0a:	000b3b03          	ld	s6,0(s6)
    80002d0e:	2485                	addw	s1,s1,1
    80002d10:	040b0363          	beqz	s6,80002d56 <core_bench_list+0x3ca>
    80002d14:	000b3b03          	ld	s6,0(s6)
    80002d18:	2485                	addw	s1,s1,1
    80002d1a:	020b0e63          	beqz	s6,80002d56 <core_bench_list+0x3ca>
    80002d1e:	000b3b03          	ld	s6,0(s6)
    80002d22:	2485                	addw	s1,s1,1
    80002d24:	020b0963          	beqz	s6,80002d56 <core_bench_list+0x3ca>
    80002d28:	000b3b03          	ld	s6,0(s6)
    80002d2c:	2485                	addw	s1,s1,1
    80002d2e:	020b0463          	beqz	s6,80002d56 <core_bench_list+0x3ca>
    80002d32:	000b3b03          	ld	s6,0(s6)
    80002d36:	2485                	addw	s1,s1,1
    80002d38:	000b0f63          	beqz	s6,80002d56 <core_bench_list+0x3ca>
    80002d3c:	6902                	ld	s2,0(sp)
    80002d3e:	01248c63          	beq	s1,s2,80002d56 <core_bench_list+0x3ca>
    80002d42:	000b3b03          	ld	s6,0(s6)
    80002d46:	2485                	addw	s1,s1,1
    80002d48:	000b0763          	beqz	s6,80002d56 <core_bench_list+0x3ca>
    80002d4c:	000b3b03          	ld	s6,0(s6)
    80002d50:	2485                	addw	s1,s1,1
    80002d52:	fa0b17e3          	bnez	s6,80002d00 <core_bench_list+0x374>
    80002d56:	8922                	mv	s2,s0
    80002d58:	6a82                	ld	s5,0(sp)
    80002d5a:	845a                	mv	s0,s6
    80002d5c:	00905f63          	blez	s1,80002d7a <core_bench_list+0x3ee>
    80002d60:	020a9a63          	bnez	s5,80002d94 <core_bench_list+0x408>
    80002d64:	8c4a                	mv	s8,s2
    80002d66:	00093903          	ld	s2,0(s2)
    80002d6a:	34fd                	addw	s1,s1,-1
    80002d6c:	02098163          	beqz	s3,80002d8e <core_bench_list+0x402>
    80002d70:	0189b023          	sd	s8,0(s3)
    80002d74:	89e2                	mv	s3,s8
    80002d76:	fe9045e3          	bgtz	s1,80002d60 <core_bench_list+0x3d4>
    80002d7a:	19505363          	blez	s5,80002f00 <core_bench_list+0x574>
    80002d7e:	18040363          	beqz	s0,80002f04 <core_bench_list+0x578>
    80002d82:	e891                	bnez	s1,80002d96 <core_bench_list+0x40a>
    80002d84:	8c22                	mv	s8,s0
    80002d86:	3afd                	addw	s5,s5,-1
    80002d88:	6000                	ld	s0,0(s0)
    80002d8a:	fe0993e3          	bnez	s3,80002d70 <core_bench_list+0x3e4>
    80002d8e:	8d62                	mv	s10,s8
    80002d90:	89e2                	mv	s3,s8
    80002d92:	b7d5                	j	80002d76 <core_bench_list+0x3ea>
    80002d94:	d861                	beqz	s0,80002d64 <core_bench_list+0x3d8>
    80002d96:	00893c83          	ld	s9,8(s2)
    80002d9a:	00843c03          	ld	s8,8(s0)
    80002d9e:	000c9b03          	lh	s6,0(s9)
    80002da2:	080b7893          	and	a7,s6,128
    80002da6:	07fb7b93          	and	s7,s6,127
    80002daa:	04089563          	bnez	a7,80002df4 <core_bench_list+0x468>
    80002dae:	403b539b          	sraw	t2,s6,0x3
    80002db2:	00f3f693          	and	a3,t2,15
    80002db6:	00469f13          	sll	t5,a3,0x4
    80002dba:	007b7713          	and	a4,s6,7
    80002dbe:	060a5783          	lhu	a5,96(s4)
    80002dc2:	01e6e5b3          	or	a1,a3,t5
    80002dc6:	cb55                	beqz	a4,80002e7a <core_bench_list+0x4ee>
    80002dc8:	09b70863          	beq	a4,s11,80002e58 <core_bench_list+0x4cc>
    80002dcc:	030b1e93          	sll	t4,s6,0x30
    80002dd0:	030ed513          	srl	a0,t4,0x30
    80002dd4:	8bda                	mv	s7,s6
    80002dd6:	85be                	mv	a1,a5
    80002dd8:	beafe0ef          	jal	800011c2 <crcu16>
    80002ddc:	07fbfb93          	and	s7,s7,127
    80002de0:	f00b7f93          	and	t6,s6,-256
    80002de4:	01fbe7b3          	or	a5,s7,t6
    80002de8:	06aa1023          	sh	a0,96(s4)
    80002dec:	0807e293          	or	t0,a5,128
    80002df0:	005c9023          	sh	t0,0(s9)
    80002df4:	000c1b03          	lh	s6,0(s8)
    80002df8:	080b7093          	and	ra,s6,128
    80002dfc:	00008a63          	beqz	ra,80002e10 <core_bench_list+0x484>
    80002e00:	07fb7e13          	and	t3,s6,127
    80002e04:	f77e50e3          	bge	t3,s7,80002d64 <core_bench_list+0x3d8>
    80002e08:	8c22                	mv	s8,s0
    80002e0a:	3afd                	addw	s5,s5,-1
    80002e0c:	6000                	ld	s0,0(s0)
    80002e0e:	bfb9                	j	80002d6c <core_bench_list+0x3e0>
    80002e10:	403b559b          	sraw	a1,s6,0x3
    80002e14:	00f5fc93          	and	s9,a1,15
    80002e18:	004c9613          	sll	a2,s9,0x4
    80002e1c:	007b7893          	and	a7,s6,7
    80002e20:	060a5783          	lhu	a5,96(s4)
    80002e24:	00cce5b3          	or	a1,s9,a2
    80002e28:	0a088363          	beqz	a7,80002ece <core_bench_list+0x542>
    80002e2c:	09b88163          	beq	a7,s11,80002eae <core_bench_list+0x522>
    80002e30:	030b1513          	sll	a0,s6,0x30
    80002e34:	9141                	srl	a0,a0,0x30
    80002e36:	8cda                	mv	s9,s6
    80002e38:	85be                	mv	a1,a5
    80002e3a:	b88fe0ef          	jal	800011c2 <crcu16>
    80002e3e:	07fcfe13          	and	t3,s9,127
    80002e42:	f00b7813          	and	a6,s6,-256
    80002e46:	010e6eb3          	or	t4,t3,a6
    80002e4a:	06aa1023          	sh	a0,96(s4)
    80002e4e:	080eef93          	or	t6,t4,128
    80002e52:	01fc1023          	sh	t6,0(s8)
    80002e56:	b77d                	j	80002e04 <core_bench_list+0x478>
    80002e58:	6562                	ld	a0,24(sp)
    80002e5a:	863e                	mv	a2,a5
    80002e5c:	664000ef          	jal	800034c0 <core_bench_matrix>
    80002e60:	064a5e03          	lhu	t3,100(s4)
    80002e64:	000e1463          	bnez	t3,80002e6c <core_bench_list+0x4e0>
    80002e68:	06aa1223          	sh	a0,100(s4)
    80002e6c:	0105181b          	sllw	a6,a0,0x10
    80002e70:	060a5783          	lhu	a5,96(s4)
    80002e74:	41085b9b          	sraw	s7,a6,0x10
    80002e78:	bfb9                	j	80002dd6 <core_bench_list+0x44a>
    80002e7a:	02200513          	li	a0,34
    80002e7e:	8bae                	mv	s7,a1
    80002e80:	00a5d463          	bge	a1,a0,80002e88 <core_bench_list+0x4fc>
    80002e84:	02200b93          	li	s7,34
    80002e88:	002a1683          	lh	a3,2(s4)
    80002e8c:	000a1603          	lh	a2,0(s4)
    80002e90:	020a3583          	ld	a1,32(s4)
    80002e94:	028a2503          	lw	a0,40(s4)
    80002e98:	0ffbf713          	zext.b	a4,s7
    80002e9c:	c8bfe0ef          	jal	80001b26 <core_bench_state>
    80002ea0:	066a5303          	lhu	t1,102(s4)
    80002ea4:	fc0314e3          	bnez	t1,80002e6c <core_bench_list+0x4e0>
    80002ea8:	06aa1323          	sh	a0,102(s4)
    80002eac:	b7c1                	j	80002e6c <core_bench_list+0x4e0>
    80002eae:	6562                	ld	a0,24(sp)
    80002eb0:	863e                	mv	a2,a5
    80002eb2:	60e000ef          	jal	800034c0 <core_bench_matrix>
    80002eb6:	064a5703          	lhu	a4,100(s4)
    80002eba:	e319                	bnez	a4,80002ec0 <core_bench_list+0x534>
    80002ebc:	06aa1223          	sh	a0,100(s4)
    80002ec0:	0105131b          	sllw	t1,a0,0x10
    80002ec4:	060a5783          	lhu	a5,96(s4)
    80002ec8:	41035c9b          	sraw	s9,t1,0x10
    80002ecc:	b7b5                	j	80002e38 <core_bench_list+0x4ac>
    80002ece:	02200393          	li	t2,34
    80002ed2:	8f2e                	mv	t5,a1
    80002ed4:	0075d463          	bge	a1,t2,80002edc <core_bench_list+0x550>
    80002ed8:	02200f13          	li	t5,34
    80002edc:	002a1683          	lh	a3,2(s4)
    80002ee0:	000a1603          	lh	a2,0(s4)
    80002ee4:	020a3583          	ld	a1,32(s4)
    80002ee8:	028a2503          	lw	a0,40(s4)
    80002eec:	0fff7713          	zext.b	a4,t5
    80002ef0:	c37fe0ef          	jal	80001b26 <core_bench_state>
    80002ef4:	066a5683          	lhu	a3,102(s4)
    80002ef8:	f6e1                	bnez	a3,80002ec0 <core_bench_list+0x534>
    80002efa:	06aa1323          	sh	a0,102(s4)
    80002efe:	b7c9                	j	80002ec0 <core_bench_list+0x534>
    80002f00:	da041ee3          	bnez	s0,80002cbc <core_bench_list+0x330>
    80002f04:	6442                	ld	s0,16(sp)
    80002f06:	0009b023          	sd	zero,0(s3)
    80002f0a:	03b40763          	beq	s0,s11,80002f38 <core_bench_list+0x5ac>
    80002f0e:	6982                	ld	s3,0(sp)
    80002f10:	846a                	mv	s0,s10
    80002f12:	00199a9b          	sllw	s5,s3,0x1
    80002f16:	e056                	sd	s5,0(sp)
    80002f18:	bb71                	j	80002cb4 <core_bench_list+0x328>
    80002f1a:	6004                	ld	s1,0(s0)
    80002f1c:	bc0488e3          	beqz	s1,80002aec <core_bench_list+0x160>
    80002f20:	00843e83          	ld	t4,8(s0)
    80002f24:	75a2                	ld	a1,40(sp)
    80002f26:	000e9503          	lh	a0,0(t4)
    80002f2a:	9a3fe0ef          	jal	800018cc <crc16>
    80002f2e:	6084                	ld	s1,0(s1)
    80002f30:	f42a                	sd	a0,40(sp)
    80002f32:	ba0490e3          	bnez	s1,80002ad2 <core_bench_list+0x146>
    80002f36:	be45                	j	80002ae6 <core_bench_list+0x15a>
    80002f38:	846a                	mv	s0,s10
    80002f3a:	b6b9                	j	80002a88 <core_bench_list+0xfc>
    80002f3c:	f402                	sd	zero,40(sp)
    80002f3e:	b699                	j	80002a84 <core_bench_list+0xf8>
    80002f40:	7522                	ld	a0,40(sp)
    80002f42:	b3a1                	j	80002c8a <core_bench_list+0x2fe>
    80002f44:	00003783          	ld	a5,0(zero) # 0 <_tbss_end>
    80002f48:	9002                	ebreak

0000000080002f4a <core_list_init>:
core_list_init():
    80002f4a:	47d1                	li	a5,20
    80002f4c:	02f556bb          	divuw	a3,a0,a5
    80002f50:	1141                	add	sp,sp,-16
    80002f52:	e422                	sd	s0,8(sp)
    80002f54:	8f32                	mv	t5,a2
    80002f56:	0005b023          	sd	zero,0(a1)
    80002f5a:	872e                	mv	a4,a1
    80002f5c:	7ee1                	lui	t4,0xffff8
    80002f5e:	02058513          	add	a0,a1,32
    80002f62:	01058793          	add	a5,a1,16
    80002f66:	080e8813          	add	a6,t4,128 # ffffffffffff8080 <__global_pointer$+0xffffffff7ffee698>
    80002f6a:	ffe6831b          	addw	t1,a3,-2
    80002f6e:	02031293          	sll	t0,t1,0x20
    80002f72:	0202d393          	srl	t2,t0,0x20
    80002f76:	00439613          	sll	a2,t2,0x4
    80002f7a:	95b2                	add	a1,a1,a2
    80002f7c:	e70c                	sd	a1,8(a4)
    80002f7e:	00239413          	sll	s0,t2,0x2
    80002f82:	01059023          	sh	a6,0(a1)
    80002f86:	00059123          	sh	zero,2(a1)
    80002f8a:	0003081b          	sext.w	a6,t1
    80002f8e:	008588b3          	add	a7,a1,s0
    80002f92:	00458693          	add	a3,a1,4
    80002f96:	28b57b63          	bgeu	a0,a1,8000322c <core_list_init+0x2e2>
    80002f9a:	00858e13          	add	t3,a1,8
    80002f9e:	291e7763          	bgeu	t3,a7,8000322c <core_list_init+0x2e2>
    80002fa2:	e31c                	sd	a5,0(a4)
    80002fa4:	ef14                	sd	a3,24(a4)
    80002fa6:	00073823          	sd	zero,16(a4)
    80002faa:	fffec693          	not	a3,t4
    80002fae:	5ffd                	li	t6,-1
    80002fb0:	863e                	mv	a2,a5
    80002fb2:	00d59323          	sh	a3,6(a1)
    80002fb6:	01f59223          	sh	t6,4(a1)
    80002fba:	86f2                	mv	a3,t3
    80002fbc:	87aa                	mv	a5,a0
    80002fbe:	0a080a63          	beqz	a6,80003072 <core_list_init+0x128>
    80002fc2:	030f1513          	sll	a0,t5,0x30
    80002fc6:	7ee1                	lui	t4,0xffff8
    80002fc8:	00187293          	and	t0,a6,1
    80002fcc:	03055e13          	srl	t3,a0,0x30
    80002fd0:	fffece93          	not	t4,t4
    80002fd4:	4501                	li	a0,0
    80002fd6:	20029c63          	bnez	t0,800031ee <core_list_init+0x2a4>
    80002fda:	01078f93          	add	t6,a5,16
    80002fde:	08bffa63          	bgeu	t6,a1,80003072 <core_list_init+0x128>
    80002fe2:	00468293          	add	t0,a3,4
    80002fe6:	0312fe63          	bgeu	t0,a7,80003022 <core_list_init+0xd8>
    80002fea:	03051393          	sll	t2,a0,0x30
    80002fee:	0303d393          	srl	t2,t2,0x30
    80002ff2:	007e4433          	xor	s0,t3,t2
    80002ff6:	0034141b          	sllw	s0,s0,0x3
    80002ffa:	07847413          	and	s0,s0,120
    80002ffe:	0073f393          	and	t2,t2,7
    80003002:	e390                	sd	a2,0(a5)
    80003004:	00746633          	or	a2,s0,t2
    80003008:	e31c                	sd	a5,0(a4)
    8000300a:	0086141b          	sllw	s0,a2,0x8
    8000300e:	e794                	sd	a3,8(a5)
    80003010:	008663b3          	or	t2,a2,s0
    80003014:	00769023          	sh	t2,0(a3)
    80003018:	01d69123          	sh	t4,2(a3)
    8000301c:	863e                	mv	a2,a5
    8000301e:	8696                	mv	a3,t0
    80003020:	87fe                	mv	a5,t6
    80003022:	01078f93          	add	t6,a5,16
    80003026:	2505                	addw	a0,a0,1
    80003028:	04bff563          	bgeu	t6,a1,80003072 <core_list_init+0x128>
    8000302c:	00468293          	add	t0,a3,4
    80003030:	0312fe63          	bgeu	t0,a7,8000306c <core_list_init+0x122>
    80003034:	03051413          	sll	s0,a0,0x30
    80003038:	03045393          	srl	t2,s0,0x30
    8000303c:	007e4433          	xor	s0,t3,t2
    80003040:	0034141b          	sllw	s0,s0,0x3
    80003044:	07847413          	and	s0,s0,120
    80003048:	0073f393          	and	t2,t2,7
    8000304c:	e390                	sd	a2,0(a5)
    8000304e:	00746633          	or	a2,s0,t2
    80003052:	e31c                	sd	a5,0(a4)
    80003054:	0086141b          	sllw	s0,a2,0x8
    80003058:	e794                	sd	a3,8(a5)
    8000305a:	008663b3          	or	t2,a2,s0
    8000305e:	00769023          	sh	t2,0(a3)
    80003062:	01d69123          	sh	t4,2(a3)
    80003066:	863e                	mv	a2,a5
    80003068:	8696                	mv	a3,t0
    8000306a:	87fe                	mv	a5,t6
    8000306c:	2505                	addw	a0,a0,1
    8000306e:	f6a816e3          	bne	a6,a0,80002fda <core_list_init+0x90>
    80003072:	6214                	ld	a3,0(a2)
    80003074:	ceb9                	beqz	a3,800030d2 <core_list_init+0x188>
    80003076:	4595                	li	a1,5
    80003078:	02b3583b          	divuw	a6,t1,a1
    8000307c:	6311                	lui	t1,0x4
    8000307e:	20000593          	li	a1,512
    80003082:	4785                	li	a5,1
    80003084:	fff30e13          	add	t3,t1,-1 # 3fff <_tbss_end+0x3fff>
    80003088:	a831                	j	800030a4 <core_list_init+0x15a>
    8000308a:	6280                	ld	s0,0(a3)
    8000308c:	1005831b          	addw	t1,a1,256
    80003090:	00fe9123          	sh	a5,2(t4) # ffffffffffff8002 <__global_pointer$+0xffffffff7ffee61a>
    80003094:	03031e93          	sll	t4,t1,0x30
    80003098:	2785                	addw	a5,a5,1
    8000309a:	030ed593          	srl	a1,t4,0x30
    8000309e:	c815                	beqz	s0,800030d2 <core_list_init+0x188>
    800030a0:	8636                	mv	a2,a3
    800030a2:	86a2                	mv	a3,s0
    800030a4:	00863e83          	ld	t4,8(a2)
    800030a8:	ff07e1e3          	bltu	a5,a6,8000308a <core_list_init+0x140>
    800030ac:	01e7c8b3          	xor	a7,a5,t5
    800030b0:	7005ff93          	and	t6,a1,1792
    800030b4:	6280                	ld	s0,0(a3)
    800030b6:	01f8e2b3          	or	t0,a7,t6
    800030ba:	1005861b          	addw	a2,a1,256
    800030be:	01c2f3b3          	and	t2,t0,t3
    800030c2:	03061513          	sll	a0,a2,0x30
    800030c6:	007e9123          	sh	t2,2(t4)
    800030ca:	2785                	addw	a5,a5,1
    800030cc:	03055593          	srl	a1,a0,0x30
    800030d0:	f861                	bnez	s0,800030a0 <core_list_init+0x156>
    800030d2:	4f85                	li	t6,1
    800030d4:	4801                	li	a6,0
    800030d6:	4501                	li	a0,0
    800030d8:	4281                	li	t0,0
    800030da:	4385                	li	t2,1
    800030dc:	007fff13          	and	t5,t6,7
    800030e0:	2285                	addw	t0,t0,1
    800030e2:	87ba                	mv	a5,a4
    800030e4:	4681                	li	a3,0
    800030e6:	040f0b63          	beqz	t5,8000313c <core_list_init+0x1f2>
    800030ea:	4e05                	li	t3,1
    800030ec:	05cf0363          	beq	t5,t3,80003132 <core_list_init+0x1e8>
    800030f0:	4889                	li	a7,2
    800030f2:	031f0d63          	beq	t5,a7,8000312c <core_list_init+0x1e2>
    800030f6:	440d                	li	s0,3
    800030f8:	028f0763          	beq	t5,s0,80003126 <core_list_init+0x1dc>
    800030fc:	4611                	li	a2,4
    800030fe:	02cf0163          	beq	t5,a2,80003120 <core_list_init+0x1d6>
    80003102:	4595                	li	a1,5
    80003104:	00bf0b63          	beq	t5,a1,8000311a <core_list_init+0x1d0>
    80003108:	4319                	li	t1,6
    8000310a:	006f0563          	beq	t5,t1,80003114 <core_list_init+0x1ca>
    8000310e:	631c                	ld	a5,0(a4)
    80003110:	4685                	li	a3,1
    80003112:	cb9d                	beqz	a5,80003148 <core_list_init+0x1fe>
    80003114:	639c                	ld	a5,0(a5)
    80003116:	2685                	addw	a3,a3,1
    80003118:	cb85                	beqz	a5,80003148 <core_list_init+0x1fe>
    8000311a:	639c                	ld	a5,0(a5)
    8000311c:	2685                	addw	a3,a3,1
    8000311e:	c78d                	beqz	a5,80003148 <core_list_init+0x1fe>
    80003120:	639c                	ld	a5,0(a5)
    80003122:	2685                	addw	a3,a3,1
    80003124:	c395                	beqz	a5,80003148 <core_list_init+0x1fe>
    80003126:	639c                	ld	a5,0(a5)
    80003128:	2685                	addw	a3,a3,1
    8000312a:	cf99                	beqz	a5,80003148 <core_list_init+0x1fe>
    8000312c:	639c                	ld	a5,0(a5)
    8000312e:	2685                	addw	a3,a3,1
    80003130:	cf81                	beqz	a5,80003148 <core_list_init+0x1fe>
    80003132:	639c                	ld	a5,0(a5)
    80003134:	2685                	addw	a3,a3,1
    80003136:	cb89                	beqz	a5,80003148 <core_list_init+0x1fe>
    80003138:	01f68863          	beq	a3,t6,80003148 <core_list_init+0x1fe>
    8000313c:	639c                	ld	a5,0(a5)
    8000313e:	2685                	addw	a3,a3,1
    80003140:	c781                	beqz	a5,80003148 <core_list_init+0x1fe>
    80003142:	639c                	ld	a5,0(a5)
    80003144:	2685                	addw	a3,a3,1
    80003146:	f7f9                	bnez	a5,80003114 <core_list_init+0x1ca>
    80003148:	867e                	mv	a2,t6
    8000314a:	00d05d63          	blez	a3,80003164 <core_list_init+0x21a>
    8000314e:	e61d                	bnez	a2,8000317c <core_list_init+0x232>
    80003150:	6300                	ld	s0,0(a4)
    80003152:	36fd                	addw	a3,a3,-1
    80003154:	02080263          	beqz	a6,80003178 <core_list_init+0x22e>
    80003158:	00e83023          	sd	a4,0(a6)
    8000315c:	883a                	mv	a6,a4
    8000315e:	8722                	mv	a4,s0
    80003160:	fed047e3          	bgtz	a3,8000314e <core_list_init+0x204>
    80003164:	04c05f63          	blez	a2,800031c2 <core_list_init+0x278>
    80003168:	c3a5                	beqz	a5,800031c8 <core_list_init+0x27e>
    8000316a:	ea91                	bnez	a3,8000317e <core_list_init+0x234>
    8000316c:	843a                	mv	s0,a4
    8000316e:	367d                	addw	a2,a2,-1
    80003170:	873e                	mv	a4,a5
    80003172:	639c                	ld	a5,0(a5)
    80003174:	fe0812e3          	bnez	a6,80003158 <core_list_init+0x20e>
    80003178:	853a                	mv	a0,a4
    8000317a:	b7cd                	j	8000315c <core_list_init+0x212>
    8000317c:	dbf1                	beqz	a5,80003150 <core_list_init+0x206>
    8000317e:	00873883          	ld	a7,8(a4)
    80003182:	6780                	ld	s0,8(a5)
    80003184:	0008df03          	lhu	t5,0(a7)
    80003188:	00241e03          	lh	t3,2(s0)
    8000318c:	00289e83          	lh	t4,2(a7)
    80003190:	008f5593          	srl	a1,t5,0x8
    80003194:	0085931b          	sllw	t1,a1,0x8
    80003198:	0065ef33          	or	t5,a1,t1
    8000319c:	01e89023          	sh	t5,0(a7)
    800031a0:	00045883          	lhu	a7,0(s0)
    800031a4:	0088d593          	srl	a1,a7,0x8
    800031a8:	0085931b          	sllw	t1,a1,0x8
    800031ac:	0065ef33          	or	t5,a1,t1
    800031b0:	01e41023          	sh	t5,0(s0)
    800031b4:	f9de5ee3          	bge	t3,t4,80003150 <core_list_init+0x206>
    800031b8:	843a                	mv	s0,a4
    800031ba:	367d                	addw	a2,a2,-1
    800031bc:	873e                	mv	a4,a5
    800031be:	639c                	ld	a5,0(a5)
    800031c0:	bf51                	j	80003154 <core_list_init+0x20a>
    800031c2:	c399                	beqz	a5,800031c8 <core_list_init+0x27e>
    800031c4:	873e                	mv	a4,a5
    800031c6:	bf19                	j	800030dc <core_list_init+0x192>
    800031c8:	00083023          	sd	zero,0(a6)
    800031cc:	00728b63          	beq	t0,t2,800031e2 <core_list_init+0x298>
    800031d0:	001f9f9b          	sllw	t6,t6,0x1
    800031d4:	c911                	beqz	a0,800031e8 <core_list_init+0x29e>
    800031d6:	87aa                	mv	a5,a0
    800031d8:	4801                	li	a6,0
    800031da:	4501                	li	a0,0
    800031dc:	4281                	li	t0,0
    800031de:	873e                	mv	a4,a5
    800031e0:	bdf5                	j	800030dc <core_list_init+0x192>
    800031e2:	6422                	ld	s0,8(sp)
    800031e4:	0141                	add	sp,sp,16
    800031e6:	8082                	ret
    800031e8:	00003023          	sd	zero,0(zero) # 0 <_tbss_end>
    800031ec:	9002                	ebreak
    800031ee:	01078393          	add	t2,a5,16
    800031f2:	e8b3f0e3          	bgeu	t2,a1,80003072 <core_list_init+0x128>
    800031f6:	00468413          	add	s0,a3,4
    800031fa:	03147563          	bgeu	s0,a7,80003224 <core_list_init+0x2da>
    800031fe:	003e1f9b          	sllw	t6,t3,0x3
    80003202:	e390                	sd	a2,0(a5)
    80003204:	867e                	mv	a2,t6
    80003206:	07867513          	and	a0,a2,120
    8000320a:	e31c                	sd	a5,0(a4)
    8000320c:	0085129b          	sllw	t0,a0,0x8
    80003210:	e794                	sd	a3,8(a5)
    80003212:	00556fb3          	or	t6,a0,t0
    80003216:	01f69023          	sh	t6,0(a3)
    8000321a:	01d69123          	sh	t4,2(a3)
    8000321e:	863e                	mv	a2,a5
    80003220:	86a2                	mv	a3,s0
    80003222:	879e                	mv	a5,t2
    80003224:	4505                	li	a0,1
    80003226:	daa81ae3          	bne	a6,a0,80002fda <core_list_init+0x90>
    8000322a:	b5a1                	j	80003072 <core_list_init+0x128>
    8000322c:	4601                	li	a2,0
    8000322e:	bb41                	j	80002fbe <core_list_init+0x74>

0000000080003230 <core_list_insert_new>:
core_list_insert_new():
    80003230:	00063803          	ld	a6,0(a2)
    80003234:	833e                	mv	t1,a5
    80003236:	01080893          	add	a7,a6,16
    8000323a:	04e8f163          	bgeu	a7,a4,8000327c <core_list_insert_new+0x4c>
    8000323e:	629c                	ld	a5,0(a3)
    80003240:	00478713          	add	a4,a5,4
    80003244:	02677c63          	bgeu	a4,t1,8000327c <core_list_insert_new+0x4c>
    80003248:	01163023          	sd	a7,0(a2)
    8000324c:	00053283          	ld	t0,0(a0)
    80003250:	00059603          	lh	a2,0(a1)
    80003254:	00259383          	lh	t2,2(a1)
    80003258:	00583023          	sd	t0,0(a6)
    8000325c:	01053023          	sd	a6,0(a0)
    80003260:	00f83423          	sd	a5,8(a6)
    80003264:	6288                	ld	a0,0(a3)
    80003266:	00450593          	add	a1,a0,4
    8000326a:	e28c                	sd	a1,0(a3)
    8000326c:	00883683          	ld	a3,8(a6)
    80003270:	8542                	mv	a0,a6
    80003272:	00c69023          	sh	a2,0(a3)
    80003276:	00769123          	sh	t2,2(a3)
    8000327a:	8082                	ret
    8000327c:	4801                	li	a6,0
    8000327e:	8542                	mv	a0,a6
    80003280:	8082                	ret

0000000080003282 <core_list_remove>:
core_list_remove():
    80003282:	87aa                	mv	a5,a0
    80003284:	6108                	ld	a0,0(a0)
    80003286:	6794                	ld	a3,8(a5)
    80003288:	6510                	ld	a2,8(a0)
    8000328a:	6118                	ld	a4,0(a0)
    8000328c:	e790                	sd	a2,8(a5)
    8000328e:	e514                	sd	a3,8(a0)
    80003290:	e398                	sd	a4,0(a5)
    80003292:	00053023          	sd	zero,0(a0)
    80003296:	8082                	ret

0000000080003298 <core_list_undo_remove>:
core_list_undo_remove():
    80003298:	6590                	ld	a2,8(a1)
    8000329a:	6514                	ld	a3,8(a0)
    8000329c:	6198                	ld	a4,0(a1)
    8000329e:	e510                	sd	a2,8(a0)
    800032a0:	e594                	sd	a3,8(a1)
    800032a2:	e118                	sd	a4,0(a0)
    800032a4:	e188                	sd	a0,0(a1)
    800032a6:	8082                	ret

00000000800032a8 <core_list_find>:
core_list_find():
    800032a8:	00259603          	lh	a2,2(a1)
    800032ac:	00064d63          	bltz	a2,800032c6 <core_list_find+0x1e>
    800032b0:	e501                	bnez	a0,800032b8 <core_list_find+0x10>
    800032b2:	a80d                	j	800032e4 <core_list_find+0x3c>
    800032b4:	6108                	ld	a0,0(a0)
    800032b6:	c50d                	beqz	a0,800032e0 <core_list_find+0x38>
    800032b8:	00853383          	ld	t2,8(a0)
    800032bc:	00239583          	lh	a1,2(t2)
    800032c0:	fec59ae3          	bne	a1,a2,800032b4 <core_list_find+0xc>
    800032c4:	8082                	ret
    800032c6:	cd09                	beqz	a0,800032e0 <core_list_find+0x38>
    800032c8:	00059703          	lh	a4,0(a1)
    800032cc:	a019                	j	800032d2 <core_list_find+0x2a>
    800032ce:	6108                	ld	a0,0(a0)
    800032d0:	c909                	beqz	a0,800032e2 <core_list_find+0x3a>
    800032d2:	00853283          	ld	t0,8(a0)
    800032d6:	0002c303          	lbu	t1,0(t0)
    800032da:	fee31ae3          	bne	t1,a4,800032ce <core_list_find+0x26>
    800032de:	8082                	ret
    800032e0:	4501                	li	a0,0
    800032e2:	8082                	ret
    800032e4:	8082                	ret

00000000800032e6 <core_list_reverse>:
core_list_reverse():
    800032e6:	c901                	beqz	a0,800032f6 <core_list_reverse+0x10>
    800032e8:	4701                	li	a4,0
    800032ea:	a011                	j	800032ee <core_list_reverse+0x8>
    800032ec:	853e                	mv	a0,a5
    800032ee:	611c                	ld	a5,0(a0)
    800032f0:	e118                	sd	a4,0(a0)
    800032f2:	872a                	mv	a4,a0
    800032f4:	ffe5                	bnez	a5,800032ec <core_list_reverse+0x6>
    800032f6:	8082                	ret

00000000800032f8 <core_list_mergesort>:
core_list_mergesort():
    800032f8:	711d                	add	sp,sp,-96
    800032fa:	e4a6                	sd	s1,72(sp)
    800032fc:	f05a                	sd	s6,32(sp)
    800032fe:	ec5e                	sd	s7,24(sp)
    80003300:	e466                	sd	s9,8(sp)
    80003302:	e06a                	sd	s10,0(sp)
    80003304:	ec86                	sd	ra,88(sp)
    80003306:	e8a2                	sd	s0,80(sp)
    80003308:	e0ca                	sd	s2,64(sp)
    8000330a:	fc4e                	sd	s3,56(sp)
    8000330c:	f852                	sd	s4,48(sp)
    8000330e:	f456                	sd	s5,40(sp)
    80003310:	e862                	sd	s8,16(sp)
    80003312:	84aa                	mv	s1,a0
    80003314:	8b2e                	mv	s6,a1
    80003316:	8cb2                	mv	s9,a2
    80003318:	4b85                	li	s7,1
    8000331a:	4d05                	li	s10,1
    8000331c:	cce1                	beqz	s1,800033f4 <core_list_mergesort+0xfc>
    8000331e:	4c01                	li	s8,0
    80003320:	4981                	li	s3,0
    80003322:	4a81                	li	s5,0
    80003324:	007bf713          	and	a4,s7,7
    80003328:	2c05                	addw	s8,s8,1
    8000332a:	87a6                	mv	a5,s1
    8000332c:	4401                	li	s0,0
    8000332e:	cb31                	beqz	a4,80003382 <core_list_mergesort+0x8a>
    80003330:	4685                	li	a3,1
    80003332:	04d70363          	beq	a4,a3,80003378 <core_list_mergesort+0x80>
    80003336:	4089                	li	ra,2
    80003338:	02170d63          	beq	a4,ra,80003372 <core_list_mergesort+0x7a>
    8000333c:	428d                	li	t0,3
    8000333e:	02570763          	beq	a4,t0,8000336c <core_list_mergesort+0x74>
    80003342:	4311                	li	t1,4
    80003344:	02670163          	beq	a4,t1,80003366 <core_list_mergesort+0x6e>
    80003348:	4395                	li	t2,5
    8000334a:	00770b63          	beq	a4,t2,80003360 <core_list_mergesort+0x68>
    8000334e:	4519                	li	a0,6
    80003350:	00a70563          	beq	a4,a0,8000335a <core_list_mergesort+0x62>
    80003354:	609c                	ld	a5,0(s1)
    80003356:	4405                	li	s0,1
    80003358:	cb9d                	beqz	a5,8000338e <core_list_mergesort+0x96>
    8000335a:	639c                	ld	a5,0(a5)
    8000335c:	2405                	addw	s0,s0,1
    8000335e:	cb85                	beqz	a5,8000338e <core_list_mergesort+0x96>
    80003360:	639c                	ld	a5,0(a5)
    80003362:	2405                	addw	s0,s0,1
    80003364:	c78d                	beqz	a5,8000338e <core_list_mergesort+0x96>
    80003366:	639c                	ld	a5,0(a5)
    80003368:	2405                	addw	s0,s0,1
    8000336a:	c395                	beqz	a5,8000338e <core_list_mergesort+0x96>
    8000336c:	639c                	ld	a5,0(a5)
    8000336e:	2405                	addw	s0,s0,1
    80003370:	cf99                	beqz	a5,8000338e <core_list_mergesort+0x96>
    80003372:	639c                	ld	a5,0(a5)
    80003374:	2405                	addw	s0,s0,1
    80003376:	cf81                	beqz	a5,8000338e <core_list_mergesort+0x96>
    80003378:	639c                	ld	a5,0(a5)
    8000337a:	2405                	addw	s0,s0,1
    8000337c:	cb89                	beqz	a5,8000338e <core_list_mergesort+0x96>
    8000337e:	008b8863          	beq	s7,s0,8000338e <core_list_mergesort+0x96>
    80003382:	639c                	ld	a5,0(a5)
    80003384:	2405                	addw	s0,s0,1
    80003386:	c781                	beqz	a5,8000338e <core_list_mergesort+0x96>
    80003388:	639c                	ld	a5,0(a5)
    8000338a:	2405                	addw	s0,s0,1
    8000338c:	f7f9                	bnez	a5,8000335a <core_list_mergesort+0x62>
    8000338e:	8926                	mv	s2,s1
    80003390:	8a5e                	mv	s4,s7
    80003392:	84be                	mv	s1,a5
    80003394:	00805f63          	blez	s0,800033b2 <core_list_mergesort+0xba>
    80003398:	020a1963          	bnez	s4,800033ca <core_list_mergesort+0xd2>
    8000339c:	85ca                	mv	a1,s2
    8000339e:	00093903          	ld	s2,0(s2)
    800033a2:	347d                	addw	s0,s0,-1
    800033a4:	02098063          	beqz	s3,800033c4 <core_list_mergesort+0xcc>
    800033a8:	00b9b023          	sd	a1,0(s3)
    800033ac:	89ae                	mv	s3,a1
    800033ae:	fe8045e3          	bgtz	s0,80003398 <core_list_mergesort+0xa0>
    800033b2:	03405863          	blez	s4,800033e2 <core_list_mergesort+0xea>
    800033b6:	c49d                	beqz	s1,800033e4 <core_list_mergesort+0xec>
    800033b8:	e811                	bnez	s0,800033cc <core_list_mergesort+0xd4>
    800033ba:	85a6                	mv	a1,s1
    800033bc:	3a7d                	addw	s4,s4,-1
    800033be:	6084                	ld	s1,0(s1)
    800033c0:	fe0994e3          	bnez	s3,800033a8 <core_list_mergesort+0xb0>
    800033c4:	8aae                	mv	s5,a1
    800033c6:	89ae                	mv	s3,a1
    800033c8:	b7dd                	j	800033ae <core_list_mergesort+0xb6>
    800033ca:	d8e9                	beqz	s1,8000339c <core_list_mergesort+0xa4>
    800033cc:	648c                	ld	a1,8(s1)
    800033ce:	00893503          	ld	a0,8(s2)
    800033d2:	8666                	mv	a2,s9
    800033d4:	9b02                	jalr	s6
    800033d6:	fca053e3          	blez	a0,8000339c <core_list_mergesort+0xa4>
    800033da:	85a6                	mv	a1,s1
    800033dc:	3a7d                	addw	s4,s4,-1
    800033de:	6084                	ld	s1,0(s1)
    800033e0:	b7d1                	j	800033a4 <core_list_mergesort+0xac>
    800033e2:	f0a9                	bnez	s1,80003324 <core_list_mergesort+0x2c>
    800033e4:	0009b023          	sd	zero,0(s3)
    800033e8:	01ac0963          	beq	s8,s10,800033fa <core_list_mergesort+0x102>
    800033ec:	84d6                	mv	s1,s5
    800033ee:	001b9b9b          	sllw	s7,s7,0x1
    800033f2:	f495                	bnez	s1,8000331e <core_list_mergesort+0x26>
    800033f4:	00003023          	sd	zero,0(zero) # 0 <_tbss_end>
    800033f8:	9002                	ebreak
    800033fa:	60e6                	ld	ra,88(sp)
    800033fc:	6446                	ld	s0,80(sp)
    800033fe:	64a6                	ld	s1,72(sp)
    80003400:	6906                	ld	s2,64(sp)
    80003402:	79e2                	ld	s3,56(sp)
    80003404:	7a42                	ld	s4,48(sp)
    80003406:	7b02                	ld	s6,32(sp)
    80003408:	6be2                	ld	s7,24(sp)
    8000340a:	6c42                	ld	s8,16(sp)
    8000340c:	6ca2                	ld	s9,8(sp)
    8000340e:	6d02                	ld	s10,0(sp)
    80003410:	8556                	mv	a0,s5
    80003412:	7aa2                	ld	s5,40(sp)
    80003414:	6125                	add	sp,sp,96
    80003416:	8082                	ret

0000000080003418 <start_time>:
start_time():
    80003418:	b0002773          	csrr	a4,mcycle
    8000341c:	84e1b823          	sd	a4,-1968(gp) # 80009238 <start_time_val>
    80003420:	8082                	ret

0000000080003422 <stop_time>:
stop_time():
    80003422:	b0002773          	csrr	a4,mcycle
    80003426:	84e1b423          	sd	a4,-1976(gp) # 80009230 <stop_time_val>
    8000342a:	8082                	ret

000000008000342c <get_time>:
get_time():
    8000342c:	8481b503          	ld	a0,-1976(gp) # 80009230 <stop_time_val>
    80003430:	8501b283          	ld	t0,-1968(gp) # 80009238 <start_time_val>
    80003434:	40550533          	sub	a0,a0,t0
    80003438:	8082                	ret

000000008000343a <time_in_secs>:
time_in_secs():
    8000343a:	00006797          	auipc	a5,0x6
    8000343e:	d2257553          	fcvt.d.l	fa0,a0
    80003442:	dae7b787          	fld	fa5,-594(a5) # 800091e8 <mem_name+0x18>
    80003446:	12f57553          	fmul.d	fa0,fa0,fa5
    8000344a:	8082                	ret

000000008000344c <portable_init>:
portable_init():
    8000344c:	4785                	li	a5,1
    8000344e:	00f50023          	sb	a5,0(a0)
    80003452:	8082                	ret

0000000080003454 <portable_fini>:
portable_fini():
    80003454:	00050023          	sb	zero,0(a0)
    80003458:	8082                	ret

000000008000345a <iterate>:
iterate():
    8000345a:	1101                	add	sp,sp,-32
    8000345c:	e04a                	sd	s2,0(sp)
    8000345e:	02c52903          	lw	s2,44(a0)
    80003462:	ec06                	sd	ra,24(sp)
    80003464:	e822                	sd	s0,16(sp)
    80003466:	e426                	sd	s1,8(sp)
    80003468:	06053023          	sd	zero,96(a0)
    8000346c:	02090c63          	beqz	s2,800034a4 <iterate+0x4a>
    80003470:	842a                	mv	s0,a0
    80003472:	4481                	li	s1,0
    80003474:	4585                	li	a1,1
    80003476:	8522                	mv	a0,s0
    80003478:	d14ff0ef          	jal	8000298c <core_bench_list>
    8000347c:	06045583          	lhu	a1,96(s0)
    80003480:	d43fd0ef          	jal	800011c2 <crcu16>
    80003484:	06a41023          	sh	a0,96(s0)
    80003488:	55fd                	li	a1,-1
    8000348a:	8522                	mv	a0,s0
    8000348c:	d00ff0ef          	jal	8000298c <core_bench_list>
    80003490:	06045583          	lhu	a1,96(s0)
    80003494:	d2ffd0ef          	jal	800011c2 <crcu16>
    80003498:	06a41023          	sh	a0,96(s0)
    8000349c:	c899                	beqz	s1,800034b2 <iterate+0x58>
    8000349e:	2485                	addw	s1,s1,1
    800034a0:	fc991ae3          	bne	s2,s1,80003474 <iterate+0x1a>
    800034a4:	60e2                	ld	ra,24(sp)
    800034a6:	6442                	ld	s0,16(sp)
    800034a8:	64a2                	ld	s1,8(sp)
    800034aa:	6902                	ld	s2,0(sp)
    800034ac:	4501                	li	a0,0
    800034ae:	6105                	add	sp,sp,32
    800034b0:	8082                	ret
    800034b2:	06a41123          	sh	a0,98(s0)
    800034b6:	4085                	li	ra,1
    800034b8:	fe1906e3          	beq	s2,ra,800034a4 <iterate+0x4a>
    800034bc:	4485                	li	s1,1
    800034be:	bf5d                	j	80003474 <iterate+0x1a>

00000000800034c0 <core_bench_matrix>:
core_bench_matrix():
    800034c0:	7119                	add	sp,sp,-128
    800034c2:	f4a6                	sd	s1,104(sp)
    800034c4:	4104                	lw	s1,0(a0)
    800034c6:	f466                	sd	s9,40(sp)
    800034c8:	f8a2                	sd	s0,112(sp)
    800034ca:	02948cbb          	mulw	s9,s1,s1
    800034ce:	f0ca                	sd	s2,96(sp)
    800034d0:	ecce                	sd	s3,88(sp)
    800034d2:	e8d2                	sd	s4,80(sp)
    800034d4:	fc5e                	sd	s7,56(sp)
    800034d6:	f862                	sd	s8,48(sp)
    800034d8:	ec6e                	sd	s11,24(sp)
    800034da:	777d                	lui	a4,0xfffff
    800034dc:	fc86                	sd	ra,120(sp)
    800034de:	e4d6                	sd	s5,72(sp)
    800034e0:	e0da                	sd	s6,64(sp)
    800034e2:	f06a                	sd	s10,32(sp)
    800034e4:	000c8c1b          	sext.w	s8,s9
    800034e8:	01853903          	ld	s2,24(a0)
    800034ec:	6500                	ld	s0,8(a0)
    800034ee:	01053983          	ld	s3,16(a0)
    800034f2:	8bae                	mv	s7,a1
    800034f4:	8db2                	mv	s11,a2
    800034f6:	00e5ea33          	or	s4,a1,a4
    800034fa:	000c1463          	bnez	s8,80003502 <core_bench_matrix+0x42>
    800034fe:	7d20106f          	j	80004cd0 <core_bench_matrix+0x1810>
    80003502:	00145793          	srl	a5,s0,0x1
    80003506:	40f0063b          	negw	a2,a5
    8000350a:	030b9693          	sll	a3,s7,0x30
    8000350e:	fffc851b          	addw	a0,s9,-1
    80003512:	4595                	li	a1,5
    80003514:	0306d093          	srl	ra,a3,0x30
    80003518:	87a2                	mv	a5,s0
    8000351a:	00367293          	and	t0,a2,3
    8000351e:	00a5e463          	bltu	a1,a0,80003526 <core_bench_matrix+0x66>
    80003522:	7da0106f          	j	80004cfc <core_bench_matrix+0x183c>
    80003526:	4f81                	li	t6,0
    80003528:	02028e63          	beqz	t0,80003564 <core_bench_matrix+0xa4>
    8000352c:	00045383          	lhu	t2,0(s0)
    80003530:	00267813          	and	a6,a2,2
    80003534:	4f85                	li	t6,1
    80003536:	001388bb          	addw	a7,t2,ra
    8000353a:	01141023          	sh	a7,0(s0)
    8000353e:	02080363          	beqz	a6,80003564 <core_bench_matrix+0xa4>
    80003542:	00245a83          	lhu	s5,2(s0)
    80003546:	4b0d                	li	s6,3
    80003548:	4f89                	li	t6,2
    8000354a:	001a8d3b          	addw	s10,s5,ra
    8000354e:	01a41123          	sh	s10,2(s0)
    80003552:	01629963          	bne	t0,s6,80003564 <core_bench_matrix+0xa4>
    80003556:	00445e03          	lhu	t3,4(s0)
    8000355a:	4f8d                	li	t6,3
    8000355c:	001e0ebb          	addw	t4,t3,ra
    80003560:	01d41223          	sh	t4,4(s0)
    80003564:	405c853b          	subw	a0,s9,t0
    80003568:	01009f13          	sll	t5,ra,0x10
    8000356c:	00129713          	sll	a4,t0,0x1
    80003570:	02009593          	sll	a1,ra,0x20
    80003574:	01e0e6b3          	or	a3,ra,t5
    80003578:	0025561b          	srlw	a2,a0,0x2
    8000357c:	00b6e2b3          	or	t0,a3,a1
    80003580:	03009313          	sll	t1,ra,0x30
    80003584:	9722                	add	a4,a4,s0
    80003586:	00361393          	sll	t2,a2,0x3
    8000358a:	0062e833          	or	a6,t0,t1
    8000358e:	00e38ab3          	add	s5,t2,a4
    80003592:	00006897          	auipc	a7,0x6
    80003596:	00073b03          	ld	s6,0(a4) # fffffffffffff000 <__global_pointer$+0xffffffff7fff5618>
    8000359a:	c6e8bd03          	ld	s10,-914(a7) # 80009200 <mem_name+0x30>
    8000359e:	00006e17          	auipc	t3,0x6
    800035a2:	c6ae3f03          	ld	t5,-918(t3) # 80009208 <mem_name+0x38>
    800035a6:	01ab7eb3          	and	t4,s6,s10
    800035aa:	01a875b3          	and	a1,a6,s10
    800035ae:	010b46b3          	xor	a3,s6,a6
    800035b2:	00be82b3          	add	t0,t4,a1
    800035b6:	01e6f633          	and	a2,a3,t5
    800035ba:	00c2c333          	xor	t1,t0,a2
    800035be:	00673023          	sd	t1,0(a4)
    800035c2:	0721                	add	a4,a4,8
    800035c4:	fd5717e3          	bne	a4,s5,80003592 <core_bench_matrix+0xd2>
    800035c8:	ffc57393          	and	t2,a0,-4
    800035cc:	890d                	and	a0,a0,3
    800035ce:	01f3833b          	addw	t1,t2,t6
    800035d2:	c571                	beqz	a0,8000369e <core_bench_matrix+0x1de>
    800035d4:	02031f93          	sll	t6,t1,0x20
    800035d8:	01ffd813          	srl	a6,t6,0x1f
    800035dc:	01040ab3          	add	s5,s0,a6
    800035e0:	000ad883          	lhu	a7,0(s5)
    800035e4:	00130b1b          	addw	s6,t1,1
    800035e8:	000b0d1b          	sext.w	s10,s6
    800035ec:	00188e3b          	addw	t3,a7,ra
    800035f0:	01ca9023          	sh	t3,0(s5)
    800035f4:	0b8d7563          	bgeu	s10,s8,8000369e <core_bench_matrix+0x1de>
    800035f8:	020b1f13          	sll	t5,s6,0x20
    800035fc:	01ff5e93          	srl	t4,t5,0x1f
    80003600:	01d405b3          	add	a1,s0,t4
    80003604:	0005d683          	lhu	a3,0(a1)
    80003608:	0023029b          	addw	t0,t1,2
    8000360c:	0002861b          	sext.w	a2,t0
    80003610:	0016873b          	addw	a4,a3,ra
    80003614:	00e59023          	sh	a4,0(a1)
    80003618:	09867363          	bgeu	a2,s8,8000369e <core_bench_matrix+0x1de>
    8000361c:	02029393          	sll	t2,t0,0x20
    80003620:	01f3d513          	srl	a0,t2,0x1f
    80003624:	00a40fb3          	add	t6,s0,a0
    80003628:	000fd803          	lhu	a6,0(t6)
    8000362c:	00330a9b          	addw	s5,t1,3
    80003630:	000a889b          	sext.w	a7,s5
    80003634:	00180b3b          	addw	s6,a6,ra
    80003638:	016f9023          	sh	s6,0(t6)
    8000363c:	0788f163          	bgeu	a7,s8,8000369e <core_bench_matrix+0x1de>
    80003640:	020a9d13          	sll	s10,s5,0x20
    80003644:	01fd5e13          	srl	t3,s10,0x1f
    80003648:	01c40f33          	add	t5,s0,t3
    8000364c:	000f5e83          	lhu	t4,0(t5)
    80003650:	0043059b          	addw	a1,t1,4
    80003654:	0005869b          	sext.w	a3,a1
    80003658:	001e82bb          	addw	t0,t4,ra
    8000365c:	005f1023          	sh	t0,0(t5)
    80003660:	0386ff63          	bgeu	a3,s8,8000369e <core_bench_matrix+0x1de>
    80003664:	02059613          	sll	a2,a1,0x20
    80003668:	01f65713          	srl	a4,a2,0x1f
    8000366c:	00e403b3          	add	t2,s0,a4
    80003670:	0003d503          	lhu	a0,0(t2)
    80003674:	2315                	addw	t1,t1,5
    80003676:	00030f9b          	sext.w	t6,t1
    8000367a:	0015083b          	addw	a6,a0,ra
    8000367e:	01039023          	sh	a6,0(t2)
    80003682:	018ffe63          	bgeu	t6,s8,8000369e <core_bench_matrix+0x1de>
    80003686:	02031a93          	sll	s5,t1,0x20
    8000368a:	01fad893          	srl	a7,s5,0x1f
    8000368e:	01140b33          	add	s6,s0,a7
    80003692:	000b5d03          	lhu	s10,0(s6)
    80003696:	001d00bb          	addw	ra,s10,ra
    8000369a:	001b1023          	sh	ra,0(s6)
    8000369e:	020c9e13          	sll	t3,s9,0x20
    800036a2:	020e5593          	srl	a1,t3,0x20
    800036a6:	00159f13          	sll	t5,a1,0x1
    800036aa:	ffef0e93          	add	t4,t5,-2
    800036ae:	001ed693          	srl	a3,t4,0x1
    800036b2:	00168293          	add	t0,a3,1
    800036b6:	0072f613          	and	a2,t0,7
    800036ba:	86ca                	mv	a3,s2
    800036bc:	01e403b3          	add	t2,s0,t5
    800036c0:	874a                	mv	a4,s2
    800036c2:	c659                	beqz	a2,80003750 <core_bench_matrix+0x290>
    800036c4:	4505                	li	a0,1
    800036c6:	06a60b63          	beq	a2,a0,8000373c <core_bench_matrix+0x27c>
    800036ca:	4309                	li	t1,2
    800036cc:	06660063          	beq	a2,t1,8000372c <core_bench_matrix+0x26c>
    800036d0:	4f8d                	li	t6,3
    800036d2:	05f60563          	beq	a2,t6,8000371c <core_bench_matrix+0x25c>
    800036d6:	4811                	li	a6,4
    800036d8:	03060a63          	beq	a2,a6,8000370c <core_bench_matrix+0x24c>
    800036dc:	4a95                	li	s5,5
    800036de:	01560f63          	beq	a2,s5,800036fc <core_bench_matrix+0x23c>
    800036e2:	4899                	li	a7,6
    800036e4:	01160463          	beq	a2,a7,800036ec <core_bench_matrix+0x22c>
    800036e8:	5a40106f          	j	80004c8c <core_bench_matrix+0x17cc>
    800036ec:	00079083          	lh	ra,0(a5)
    800036f0:	0711                	add	a4,a4,4
    800036f2:	0789                	add	a5,a5,2
    800036f4:	03708e3b          	mulw	t3,ra,s7
    800036f8:	ffc72e23          	sw	t3,-4(a4)
    800036fc:	00079f03          	lh	t5,0(a5)
    80003700:	0711                	add	a4,a4,4
    80003702:	0789                	add	a5,a5,2
    80003704:	037f0ebb          	mulw	t4,t5,s7
    80003708:	ffd72e23          	sw	t4,-4(a4)
    8000370c:	00079283          	lh	t0,0(a5)
    80003710:	0711                	add	a4,a4,4
    80003712:	0789                	add	a5,a5,2
    80003714:	0372863b          	mulw	a2,t0,s7
    80003718:	fec72e23          	sw	a2,-4(a4)
    8000371c:	00079503          	lh	a0,0(a5)
    80003720:	0711                	add	a4,a4,4
    80003722:	0789                	add	a5,a5,2
    80003724:	0375033b          	mulw	t1,a0,s7
    80003728:	fe672e23          	sw	t1,-4(a4)
    8000372c:	00079f83          	lh	t6,0(a5)
    80003730:	0711                	add	a4,a4,4
    80003732:	0789                	add	a5,a5,2
    80003734:	037f883b          	mulw	a6,t6,s7
    80003738:	ff072e23          	sw	a6,-4(a4)
    8000373c:	00079a83          	lh	s5,0(a5)
    80003740:	0711                	add	a4,a4,4
    80003742:	0789                	add	a5,a5,2
    80003744:	037a88bb          	mulw	a7,s5,s7
    80003748:	ff172e23          	sw	a7,-4(a4)
    8000374c:	06778763          	beq	a5,t2,800037ba <core_bench_matrix+0x2fa>
    80003750:	00079b03          	lh	s6,0(a5)
    80003754:	00279d03          	lh	s10,2(a5)
    80003758:	00479083          	lh	ra,4(a5)
    8000375c:	00679e03          	lh	t3,6(a5)
    80003760:	00879283          	lh	t0,8(a5)
    80003764:	00a79503          	lh	a0,10(a5)
    80003768:	00c79803          	lh	a6,12(a5)
    8000376c:	00e79603          	lh	a2,14(a5)
    80003770:	037b0ebb          	mulw	t4,s6,s7
    80003774:	07c1                	add	a5,a5,16
    80003776:	02070713          	add	a4,a4,32
    8000377a:	037d0f3b          	mulw	t5,s10,s7
    8000377e:	ffd72023          	sw	t4,-32(a4)
    80003782:	0370833b          	mulw	t1,ra,s7
    80003786:	ffe72223          	sw	t5,-28(a4)
    8000378a:	037e0fbb          	mulw	t6,t3,s7
    8000378e:	fe672423          	sw	t1,-24(a4)
    80003792:	03728abb          	mulw	s5,t0,s7
    80003796:	fff72623          	sw	t6,-20(a4)
    8000379a:	037508bb          	mulw	a7,a0,s7
    8000379e:	ff572823          	sw	s5,-16(a4)
    800037a2:	03780b3b          	mulw	s6,a6,s7
    800037a6:	ff172a23          	sw	a7,-12(a4)
    800037aa:	03760d3b          	mulw	s10,a2,s7
    800037ae:	ff672c23          	sw	s6,-8(a4)
    800037b2:	ffa72e23          	sw	s10,-4(a4)
    800037b6:	f8779de3          	bne	a5,t2,80003750 <core_bench_matrix+0x290>
    800037ba:	058a                	sll	a1,a1,0x2
    800037bc:	ffc58393          	add	t2,a1,-4
    800037c0:	0023d793          	srl	a5,t2,0x2
    800037c4:	00178713          	add	a4,a5,1
    800037c8:	00777093          	and	ra,a4,7
    800037cc:	00b90e33          	add	t3,s2,a1
    800037d0:	4701                	li	a4,0
    800037d2:	4501                	li	a0,0
    800037d4:	4781                	li	a5,0
    800037d6:	10008c63          	beqz	ra,800038ee <core_bench_matrix+0x42e>
    800037da:	4285                	li	t0,1
    800037dc:	0e508563          	beq	ra,t0,800038c6 <core_bench_matrix+0x406>
    800037e0:	4809                	li	a6,2
    800037e2:	0d008263          	beq	ra,a6,800038a6 <core_bench_matrix+0x3e6>
    800037e6:	460d                	li	a2,3
    800037e8:	08c08e63          	beq	ra,a2,80003884 <core_bench_matrix+0x3c4>
    800037ec:	4e91                	li	t4,4
    800037ee:	07d08863          	beq	ra,t4,8000385e <core_bench_matrix+0x39e>
    800037f2:	4f15                	li	t5,5
    800037f4:	05e08263          	beq	ra,t5,80003838 <core_bench_matrix+0x378>
    800037f8:	4319                	li	t1,6
    800037fa:	00608d63          	beq	ra,t1,80003814 <core_bench_matrix+0x354>
    800037fe:	00092703          	lw	a4,0(s2)
    80003802:	87ba                	mv	a5,a4
    80003804:	00e02533          	sgtz	a0,a4
    80003808:	00ea5463          	bge	s4,a4,80003810 <core_bench_matrix+0x350>
    8000380c:	4529                	li	a0,10
    8000380e:	4781                	li	a5,0
    80003810:	00490693          	add	a3,s2,4
    80003814:	8fba                	mv	t6,a4
    80003816:	4298                	lw	a4,0(a3)
    80003818:	1542                	sll	a0,a0,0x30
    8000381a:	03055a93          	srl	s5,a0,0x30
    8000381e:	9fb9                	addw	a5,a5,a4
    80003820:	00fa4463          	blt	s4,a5,80003828 <core_bench_matrix+0x368>
    80003824:	4520106f          	j	80004c76 <core_bench_matrix+0x17b6>
    80003828:	00aa859b          	addw	a1,s5,10
    8000382c:	0105939b          	sllw	t2,a1,0x10
    80003830:	4103d51b          	sraw	a0,t2,0x10
    80003834:	4781                	li	a5,0
    80003836:	0691                	add	a3,a3,4
    80003838:	80ba                	mv	ra,a4
    8000383a:	4298                	lw	a4,0(a3)
    8000383c:	03051293          	sll	t0,a0,0x30
    80003840:	0302d813          	srl	a6,t0,0x30
    80003844:	9fb9                	addw	a5,a5,a4
    80003846:	00fa4463          	blt	s4,a5,8000384e <core_bench_matrix+0x38e>
    8000384a:	3e80106f          	j	80004c32 <core_bench_matrix+0x1772>
    8000384e:	00a8079b          	addw	a5,a6,10
    80003852:	0107931b          	sllw	t1,a5,0x10
    80003856:	4103551b          	sraw	a0,t1,0x10
    8000385a:	4781                	li	a5,0
    8000385c:	0691                	add	a3,a3,4
    8000385e:	8fba                	mv	t6,a4
    80003860:	4298                	lw	a4,0(a3)
    80003862:	1542                	sll	a0,a0,0x30
    80003864:	03055a93          	srl	s5,a0,0x30
    80003868:	9fb9                	addw	a5,a5,a4
    8000386a:	00fa5463          	bge	s4,a5,80003872 <core_bench_matrix+0x3b2>
    8000386e:	35a0106f          	j	80004bc8 <core_bench_matrix+0x1708>
    80003872:	00efa8b3          	slt	a7,t6,a4
    80003876:	01588b3b          	addw	s6,a7,s5
    8000387a:	010b1d1b          	sllw	s10,s6,0x10
    8000387e:	410d551b          	sraw	a0,s10,0x10
    80003882:	0691                	add	a3,a3,4
    80003884:	80ba                	mv	ra,a4
    80003886:	4298                	lw	a4,0(a3)
    80003888:	03051293          	sll	t0,a0,0x30
    8000388c:	0302d813          	srl	a6,t0,0x30
    80003890:	9fb9                	addw	a5,a5,a4
    80003892:	3efa5163          	bge	s4,a5,80003c74 <core_bench_matrix+0x7b4>
    80003896:	00a8079b          	addw	a5,a6,10
    8000389a:	0107931b          	sllw	t1,a5,0x10
    8000389e:	4103551b          	sraw	a0,t1,0x10
    800038a2:	4781                	li	a5,0
    800038a4:	0691                	add	a3,a3,4
    800038a6:	8fba                	mv	t6,a4
    800038a8:	4298                	lw	a4,0(a3)
    800038aa:	1542                	sll	a0,a0,0x30
    800038ac:	03055a93          	srl	s5,a0,0x30
    800038b0:	9fb9                	addw	a5,a5,a4
    800038b2:	3afa5763          	bge	s4,a5,80003c60 <core_bench_matrix+0x7a0>
    800038b6:	00aa859b          	addw	a1,s5,10
    800038ba:	0105939b          	sllw	t2,a1,0x10
    800038be:	4103d51b          	sraw	a0,t2,0x10
    800038c2:	4781                	li	a5,0
    800038c4:	0691                	add	a3,a3,4
    800038c6:	80ba                	mv	ra,a4
    800038c8:	4298                	lw	a4,0(a3)
    800038ca:	03051293          	sll	t0,a0,0x30
    800038ce:	0302d813          	srl	a6,t0,0x30
    800038d2:	9fb9                	addw	a5,a5,a4
    800038d4:	36fa4e63          	blt	s4,a5,80003c50 <core_bench_matrix+0x790>
    800038d8:	00e0a633          	slt	a2,ra,a4
    800038dc:	01060ebb          	addw	t4,a2,a6
    800038e0:	010e9f1b          	sllw	t5,t4,0x10
    800038e4:	410f551b          	sraw	a0,t5,0x10
    800038e8:	0691                	add	a3,a3,4
    800038ea:	13c68363          	beq	a3,t3,80003a10 <core_bench_matrix+0x550>
    800038ee:	0006af83          	lw	t6,0(a3)
    800038f2:	1542                	sll	a0,a0,0x30
    800038f4:	03055a93          	srl	s5,a0,0x30
    800038f8:	00ff88bb          	addw	a7,t6,a5
    800038fc:	251a4a63          	blt	s4,a7,80003b50 <core_bench_matrix+0x690>
    80003900:	01f72733          	slt	a4,a4,t6
    80003904:	0046a283          	lw	t0,4(a3)
    80003908:	01570b3b          	addw	s6,a4,s5
    8000390c:	010b1d1b          	sllw	s10,s6,0x10
    80003910:	410d559b          	sraw	a1,s10,0x10
    80003914:	03059813          	sll	a6,a1,0x30
    80003918:	01128abb          	addw	s5,t0,a7
    8000391c:	0691                	add	a3,a3,4
    8000391e:	03085e93          	srl	t4,a6,0x30
    80003922:	255a5963          	bge	s4,s5,80003b74 <core_bench_matrix+0x6b4>
    80003926:	00ae879b          	addw	a5,t4,10
    8000392a:	0046a883          	lw	a7,4(a3)
    8000392e:	01079f9b          	sllw	t6,a5,0x10
    80003932:	410fd51b          	sraw	a0,t6,0x10
    80003936:	4a81                	li	s5,0
    80003938:	03051713          	sll	a4,a0,0x30
    8000393c:	01588ebb          	addw	t4,a7,s5
    80003940:	03075b13          	srl	s6,a4,0x30
    80003944:	25da4a63          	blt	s4,t4,80003b98 <core_bench_matrix+0x6d8>
    80003948:	0112ad33          	slt	s10,t0,a7
    8000394c:	016d05bb          	addw	a1,s10,s6
    80003950:	0086af03          	lw	t5,8(a3)
    80003954:	0105939b          	sllw	t2,a1,0x10
    80003958:	4103d81b          	sraw	a6,t2,0x10
    8000395c:	03081613          	sll	a2,a6,0x30
    80003960:	01df0b3b          	addw	s6,t5,t4
    80003964:	03065313          	srl	t1,a2,0x30
    80003968:	256a4963          	blt	s4,s6,80003bba <core_bench_matrix+0x6fa>
    8000396c:	01e8afb3          	slt	t6,a7,t5
    80003970:	006f853b          	addw	a0,t6,t1
    80003974:	00c6ad03          	lw	s10,12(a3)
    80003978:	01051a9b          	sllw	s5,a0,0x10
    8000397c:	410ad71b          	sraw	a4,s5,0x10
    80003980:	03071593          	sll	a1,a4,0x30
    80003984:	016d033b          	addw	t1,s10,s6
    80003988:	0305d393          	srl	t2,a1,0x30
    8000398c:	246a4863          	blt	s4,t1,80003bdc <core_bench_matrix+0x71c>
    80003990:	01af20b3          	slt	ra,t5,s10
    80003994:	007082bb          	addw	t0,ra,t2
    80003998:	0106af83          	lw	t6,16(a3)
    8000399c:	0102981b          	sllw	a6,t0,0x10
    800039a0:	4108561b          	sraw	a2,a6,0x10
    800039a4:	03061513          	sll	a0,a2,0x30
    800039a8:	006f83bb          	addw	t2,t6,t1
    800039ac:	03055a93          	srl	s5,a0,0x30
    800039b0:	247a4763          	blt	s4,t2,80003bfe <core_bench_matrix+0x73e>
    800039b4:	01fd28b3          	slt	a7,s10,t6
    800039b8:	0158873b          	addw	a4,a7,s5
    800039bc:	0146a083          	lw	ra,20(a3)
    800039c0:	01071b1b          	sllw	s6,a4,0x10
    800039c4:	410b559b          	sraw	a1,s6,0x10
    800039c8:	03059293          	sll	t0,a1,0x30
    800039cc:	00708abb          	addw	s5,ra,t2
    800039d0:	0302d813          	srl	a6,t0,0x30
    800039d4:	255a4663          	blt	s4,s5,80003c20 <core_bench_matrix+0x760>
    800039d8:	001faeb3          	slt	t4,t6,ra
    800039dc:	4e98                	lw	a4,24(a3)
    800039de:	010e8f3b          	addw	t5,t4,a6
    800039e2:	010f161b          	sllw	a2,t5,0x10
    800039e6:	4106551b          	sraw	a0,a2,0x10
    800039ea:	03051893          	sll	a7,a0,0x30
    800039ee:	015707bb          	addw	a5,a4,s5
    800039f2:	0308db13          	srl	s6,a7,0x30
    800039f6:	24fa4563          	blt	s4,a5,80003c40 <core_bench_matrix+0x780>
    800039fa:	00e0ad33          	slt	s10,ra,a4
    800039fe:	016d05bb          	addw	a1,s10,s6
    80003a02:	0105939b          	sllw	t2,a1,0x10
    80003a06:	4103d51b          	sraw	a0,t2,0x10
    80003a0a:	06f1                	add	a3,a3,28
    80003a0c:	efc691e3          	bne	a3,t3,800038ee <core_bench_matrix+0x42e>
    80003a10:	4581                	li	a1,0
    80003a12:	ebbfd0ef          	jal	800018cc <crc16>
    80003a16:	85aa                	mv	a1,a0
    80003a18:	e099                	bnez	s1,80003a1e <core_bench_matrix+0x55e>
    80003a1a:	2c60106f          	j	80004ce0 <core_bench_matrix+0x1820>
    80003a1e:	8b4a                	mv	s6,s2
    80003a20:	00092023          	sw	zero,0(s2)
    80003a24:	80ca                	mv	ra,s2
    80003a26:	8526                	mv	a0,s1
    80003a28:	834a                	mv	t1,s2
    80003a2a:	4801                	li	a6,0
    80003a2c:	4e01                	li	t3,0
    80003a2e:	410502b3          	sub	t0,a0,a6
    80003a32:	0032fe93          	and	t4,t0,3
    80003a36:	8ace                	mv	s5,s3
    80003a38:	87ce                	mv	a5,s3
    80003a3a:	8742                	mv	a4,a6
    80003a3c:	4681                	li	a3,0
    80003a3e:	060e8a63          	beqz	t4,80003ab2 <core_bench_matrix+0x5f2>
    80003a42:	4f05                	li	t5,1
    80003a44:	05ee8563          	beq	t4,t5,80003a8e <core_bench_matrix+0x5ce>
    80003a48:	4609                	li	a2,2
    80003a4a:	02ce8263          	beq	t4,a2,80003a6e <core_bench_matrix+0x5ae>
    80003a4e:	02081f93          	sll	t6,a6,0x20
    80003a52:	01ffd713          	srl	a4,t6,0x1f
    80003a56:	00e408b3          	add	a7,s0,a4
    80003a5a:	00089d03          	lh	s10,0(a7)
    80003a5e:	00099383          	lh	t2,0(s3)
    80003a62:	0018071b          	addw	a4,a6,1
    80003a66:	00298793          	add	a5,s3,2
    80003a6a:	027d06bb          	mulw	a3,s10,t2
    80003a6e:	02071293          	sll	t0,a4,0x20
    80003a72:	01f2de93          	srl	t4,t0,0x1f
    80003a76:	01d40f33          	add	t5,s0,t4
    80003a7a:	00079603          	lh	a2,0(a5)
    80003a7e:	000f1f83          	lh	t6,0(t5)
    80003a82:	2705                	addw	a4,a4,1
    80003a84:	0789                	add	a5,a5,2
    80003a86:	02cf88bb          	mulw	a7,t6,a2
    80003a8a:	00d886bb          	addw	a3,a7,a3
    80003a8e:	02071d13          	sll	s10,a4,0x20
    80003a92:	01fd5393          	srl	t2,s10,0x1f
    80003a96:	007402b3          	add	t0,s0,t2
    80003a9a:	00079e83          	lh	t4,0(a5)
    80003a9e:	00029f03          	lh	t5,0(t0)
    80003aa2:	2705                	addw	a4,a4,1
    80003aa4:	0789                	add	a5,a5,2
    80003aa6:	03df063b          	mulw	a2,t5,t4
    80003aaa:	9eb1                	addw	a3,a3,a2
    80003aac:	8fb6                	mv	t6,a3
    80003aae:	08e50463          	beq	a0,a4,80003b36 <core_bench_matrix+0x676>
    80003ab2:	0017089b          	addw	a7,a4,1
    80003ab6:	02071d13          	sll	s10,a4,0x20
    80003aba:	01fd5393          	srl	t2,s10,0x1f
    80003abe:	00188f1b          	addw	t5,a7,1
    80003ac2:	02089293          	sll	t0,a7,0x20
    80003ac6:	00740eb3          	add	t4,s0,t2
    80003aca:	01f2d613          	srl	a2,t0,0x1f
    80003ace:	001f071b          	addw	a4,t5,1
    80003ad2:	020f1893          	sll	a7,t5,0x20
    80003ad6:	000e9d03          	lh	s10,0(t4)
    80003ada:	00c40fb3          	add	t6,s0,a2
    80003ade:	01f8de93          	srl	t4,a7,0x1f
    80003ae2:	02071613          	sll	a2,a4,0x20
    80003ae6:	00079283          	lh	t0,0(a5)
    80003aea:	000f9383          	lh	t2,0(t6)
    80003aee:	00279f03          	lh	t5,2(a5)
    80003af2:	01d40fb3          	add	t6,s0,t4
    80003af6:	01f65e93          	srl	t4,a2,0x1f
    80003afa:	00479883          	lh	a7,4(a5)
    80003afe:	000f9f83          	lh	t6,0(t6)
    80003b02:	9ea2                	add	t4,t4,s0
    80003b04:	025d02bb          	mulw	t0,s10,t0
    80003b08:	00679603          	lh	a2,6(a5)
    80003b0c:	000e9d03          	lh	s10,0(t4)
    80003b10:	2705                	addw	a4,a4,1
    80003b12:	07a1                	add	a5,a5,8
    80003b14:	03e38f3b          	mulw	t5,t2,t5
    80003b18:	00d286bb          	addw	a3,t0,a3
    80003b1c:	031f83bb          	mulw	t2,t6,a7
    80003b20:	00df08bb          	addw	a7,t5,a3
    80003b24:	02cd0fbb          	mulw	t6,s10,a2
    80003b28:	01138ebb          	addw	t4,t2,a7
    80003b2c:	01df86bb          	addw	a3,t6,t4
    80003b30:	8fb6                	mv	t6,a3
    80003b32:	f8e510e3          	bne	a0,a4,80003ab2 <core_bench_matrix+0x5f2>
    80003b36:	01f0a023          	sw	t6,0(ra)
    80003b3a:	2e05                	addw	t3,t3,1
    80003b3c:	0311                	add	t1,t1,4
    80003b3e:	0104883b          	addw	a6,s1,a6
    80003b42:	9d25                	addw	a0,a0,s1
    80003b44:	149e7263          	bgeu	t3,s1,80003c88 <core_bench_matrix+0x7c8>
    80003b48:	809a                	mv	ra,t1
    80003b4a:	00032023          	sw	zero,0(t1)
    80003b4e:	b5c5                	j	80003a2e <core_bench_matrix+0x56e>
    80003b50:	0046a283          	lw	t0,4(a3)
    80003b54:	00aa839b          	addw	t2,s5,10
    80003b58:	0103909b          	sllw	ra,t2,0x10
    80003b5c:	4100d59b          	sraw	a1,ra,0x10
    80003b60:	4881                	li	a7,0
    80003b62:	03059813          	sll	a6,a1,0x30
    80003b66:	01128abb          	addw	s5,t0,a7
    80003b6a:	0691                	add	a3,a3,4
    80003b6c:	03085e93          	srl	t4,a6,0x30
    80003b70:	db5a4be3          	blt	s4,s5,80003926 <core_bench_matrix+0x466>
    80003b74:	005fa633          	slt	a2,t6,t0
    80003b78:	01d60f3b          	addw	t5,a2,t4
    80003b7c:	0046a883          	lw	a7,4(a3)
    80003b80:	010f131b          	sllw	t1,t5,0x10
    80003b84:	4103551b          	sraw	a0,t1,0x10
    80003b88:	03051713          	sll	a4,a0,0x30
    80003b8c:	01588ebb          	addw	t4,a7,s5
    80003b90:	03075b13          	srl	s6,a4,0x30
    80003b94:	dbda5ae3          	bge	s4,t4,80003948 <core_bench_matrix+0x488>
    80003b98:	00ab009b          	addw	ra,s6,10
    80003b9c:	0086af03          	lw	t5,8(a3)
    80003ba0:	0100929b          	sllw	t0,ra,0x10
    80003ba4:	4102d81b          	sraw	a6,t0,0x10
    80003ba8:	4e81                	li	t4,0
    80003baa:	03081613          	sll	a2,a6,0x30
    80003bae:	01df0b3b          	addw	s6,t5,t4
    80003bb2:	03065313          	srl	t1,a2,0x30
    80003bb6:	db6a5be3          	bge	s4,s6,8000396c <core_bench_matrix+0x4ac>
    80003bba:	00a3079b          	addw	a5,t1,10
    80003bbe:	00c6ad03          	lw	s10,12(a3)
    80003bc2:	0107989b          	sllw	a7,a5,0x10
    80003bc6:	4108d71b          	sraw	a4,a7,0x10
    80003bca:	4b01                	li	s6,0
    80003bcc:	03071593          	sll	a1,a4,0x30
    80003bd0:	016d033b          	addw	t1,s10,s6
    80003bd4:	0305d393          	srl	t2,a1,0x30
    80003bd8:	da6a5ce3          	bge	s4,t1,80003990 <core_bench_matrix+0x4d0>
    80003bdc:	00a38e9b          	addw	t4,t2,10
    80003be0:	0106af83          	lw	t6,16(a3)
    80003be4:	010e9f1b          	sllw	t5,t4,0x10
    80003be8:	410f561b          	sraw	a2,t5,0x10
    80003bec:	4301                	li	t1,0
    80003bee:	03061513          	sll	a0,a2,0x30
    80003bf2:	006f83bb          	addw	t2,t6,t1
    80003bf6:	03055a93          	srl	s5,a0,0x30
    80003bfa:	da7a5de3          	bge	s4,t2,800039b4 <core_bench_matrix+0x4f4>
    80003bfe:	00aa879b          	addw	a5,s5,10
    80003c02:	0146a083          	lw	ra,20(a3)
    80003c06:	01079d1b          	sllw	s10,a5,0x10
    80003c0a:	410d559b          	sraw	a1,s10,0x10
    80003c0e:	4381                	li	t2,0
    80003c10:	03059293          	sll	t0,a1,0x30
    80003c14:	00708abb          	addw	s5,ra,t2
    80003c18:	0302d813          	srl	a6,t0,0x30
    80003c1c:	db5a5ee3          	bge	s4,s5,800039d8 <core_bench_matrix+0x518>
    80003c20:	4e98                	lw	a4,24(a3)
    80003c22:	00a8031b          	addw	t1,a6,10
    80003c26:	01031f9b          	sllw	t6,t1,0x10
    80003c2a:	410fd51b          	sraw	a0,t6,0x10
    80003c2e:	4a81                	li	s5,0
    80003c30:	03051893          	sll	a7,a0,0x30
    80003c34:	015707bb          	addw	a5,a4,s5
    80003c38:	0308db13          	srl	s6,a7,0x30
    80003c3c:	dafa5fe3          	bge	s4,a5,800039fa <core_bench_matrix+0x53a>
    80003c40:	00ab079b          	addw	a5,s6,10
    80003c44:	0107909b          	sllw	ra,a5,0x10
    80003c48:	4100d51b          	sraw	a0,ra,0x10
    80003c4c:	4781                	li	a5,0
    80003c4e:	bb75                	j	80003a0a <core_bench_matrix+0x54a>
    80003c50:	00a8079b          	addw	a5,a6,10
    80003c54:	0107931b          	sllw	t1,a5,0x10
    80003c58:	4103551b          	sraw	a0,t1,0x10
    80003c5c:	4781                	li	a5,0
    80003c5e:	b169                	j	800038e8 <core_bench_matrix+0x428>
    80003c60:	00efa8b3          	slt	a7,t6,a4
    80003c64:	01588b3b          	addw	s6,a7,s5
    80003c68:	010b1d1b          	sllw	s10,s6,0x10
    80003c6c:	410d551b          	sraw	a0,s10,0x10
    80003c70:	0691                	add	a3,a3,4
    80003c72:	b991                	j	800038c6 <core_bench_matrix+0x406>
    80003c74:	00e0a633          	slt	a2,ra,a4
    80003c78:	01060ebb          	addw	t4,a2,a6
    80003c7c:	010e9f1b          	sllw	t5,t4,0x10
    80003c80:	410f551b          	sraw	a0,t5,0x10
    80003c84:	0691                	add	a3,a3,4
    80003c86:	b105                	j	800038a6 <core_bench_matrix+0x3e6>
    80003c88:	000c1463          	bnez	s8,80003c90 <core_bench_matrix+0x7d0>
    80003c8c:	07c0106f          	j	80004d08 <core_bench_matrix+0x1848>
    80003c90:	020c9093          	sll	ra,s9,0x20
    80003c94:	01e0d513          	srl	a0,ra,0x1e
    80003c98:	ffc50313          	add	t1,a0,-4
    80003c9c:	00235813          	srl	a6,t1,0x2
    80003ca0:	00180e13          	add	t3,a6,1
    80003ca4:	007e7613          	and	a2,t3,7
    80003ca8:	00a902b3          	add	t0,s2,a0
    80003cac:	86ca                	mv	a3,s2
    80003cae:	4701                	li	a4,0
    80003cb0:	4501                	li	a0,0
    80003cb2:	4781                	li	a5,0
    80003cb4:	0e060de3          	beqz	a2,800045ae <core_bench_matrix+0x10ee>
    80003cb8:	4d05                	li	s10,1
    80003cba:	0fa60463          	beq	a2,s10,80003da2 <core_bench_matrix+0x8e2>
    80003cbe:	4f09                	li	t5,2
    80003cc0:	0be60f63          	beq	a2,t5,80003d7e <core_bench_matrix+0x8be>
    80003cc4:	438d                	li	t2,3
    80003cc6:	08760a63          	beq	a2,t2,80003d5a <core_bench_matrix+0x89a>
    80003cca:	4891                	li	a7,4
    80003ccc:	07160563          	beq	a2,a7,80003d36 <core_bench_matrix+0x876>
    80003cd0:	4f95                	li	t6,5
    80003cd2:	05f60163          	beq	a2,t6,80003d14 <core_bench_matrix+0x854>
    80003cd6:	4e99                	li	t4,6
    80003cd8:	01d60e63          	beq	a2,t4,80003cf4 <core_bench_matrix+0x834>
    80003cdc:	00092703          	lw	a4,0(s2)
    80003ce0:	4681                	li	a3,0
    80003ce2:	87ba                	mv	a5,a4
    80003ce4:	00e6a533          	slt	a0,a3,a4
    80003ce8:	00ea5463          	bge	s4,a4,80003cf0 <core_bench_matrix+0x830>
    80003cec:	4529                	li	a0,10
    80003cee:	4781                	li	a5,0
    80003cf0:	00490693          	add	a3,s2,4
    80003cf4:	80ba                	mv	ra,a4
    80003cf6:	4298                	lw	a4,0(a3)
    80003cf8:	1542                	sll	a0,a0,0x30
    80003cfa:	03055313          	srl	t1,a0,0x30
    80003cfe:	9fb9                	addw	a5,a5,a4
    80003d00:	7afa52e3          	bge	s4,a5,80004ca4 <core_bench_matrix+0x17e4>
    80003d04:	00a3079b          	addw	a5,t1,10
    80003d08:	01079d1b          	sllw	s10,a5,0x10
    80003d0c:	410d551b          	sraw	a0,s10,0x10
    80003d10:	4781                	li	a5,0
    80003d12:	0691                	add	a3,a3,4
    80003d14:	8f3a                	mv	t5,a4
    80003d16:	4298                	lw	a4,0(a3)
    80003d18:	03051393          	sll	t2,a0,0x30
    80003d1c:	0303d893          	srl	a7,t2,0x30
    80003d20:	9fb9                	addw	a5,a5,a4
    80003d22:	6cfa57e3          	bge	s4,a5,80004bf0 <core_bench_matrix+0x1730>
    80003d26:	00a8851b          	addw	a0,a7,10
    80003d2a:	0105131b          	sllw	t1,a0,0x10
    80003d2e:	4103551b          	sraw	a0,t1,0x10
    80003d32:	4781                	li	a5,0
    80003d34:	0691                	add	a3,a3,4
    80003d36:	883a                	mv	a6,a4
    80003d38:	4298                	lw	a4,0(a3)
    80003d3a:	03051e13          	sll	t3,a0,0x30
    80003d3e:	030e5613          	srl	a2,t3,0x30
    80003d42:	9fb9                	addw	a5,a5,a4
    80003d44:	68fa4ce3          	blt	s4,a5,80004bdc <core_bench_matrix+0x171c>
    80003d48:	00e82d33          	slt	s10,a6,a4
    80003d4c:	00cd0f3b          	addw	t5,s10,a2
    80003d50:	010f139b          	sllw	t2,t5,0x10
    80003d54:	4103d51b          	sraw	a0,t2,0x10
    80003d58:	0691                	add	a3,a3,4
    80003d5a:	8fba                	mv	t6,a4
    80003d5c:	4298                	lw	a4,0(a3)
    80003d5e:	03051e93          	sll	t4,a0,0x30
    80003d62:	030ed093          	srl	ra,t4,0x30
    80003d66:	9fb9                	addw	a5,a5,a4
    80003d68:	60fa48e3          	blt	s4,a5,80004b78 <core_bench_matrix+0x16b8>
    80003d6c:	00efa533          	slt	a0,t6,a4
    80003d70:	0015033b          	addw	t1,a0,ra
    80003d74:	0103181b          	sllw	a6,t1,0x10
    80003d78:	4108551b          	sraw	a0,a6,0x10
    80003d7c:	0691                	add	a3,a3,4
    80003d7e:	8d3a                	mv	s10,a4
    80003d80:	4298                	lw	a4,0(a3)
    80003d82:	03051f13          	sll	t5,a0,0x30
    80003d86:	030f5393          	srl	t2,t5,0x30
    80003d8a:	9fb9                	addw	a5,a5,a4
    80003d8c:	5afa48e3          	blt	s4,a5,80004b3c <core_bench_matrix+0x167c>
    80003d90:	00ed28b3          	slt	a7,s10,a4
    80003d94:	00788fbb          	addw	t6,a7,t2
    80003d98:	010f9e9b          	sllw	t4,t6,0x10
    80003d9c:	410ed51b          	sraw	a0,t4,0x10
    80003da0:	0691                	add	a3,a3,4
    80003da2:	833a                	mv	t1,a4
    80003da4:	4298                	lw	a4,0(a3)
    80003da6:	1542                	sll	a0,a0,0x30
    80003da8:	03055813          	srl	a6,a0,0x30
    80003dac:	9fb9                	addw	a5,a5,a4
    80003dae:	54fa4be3          	blt	s4,a5,80004b04 <core_bench_matrix+0x1644>
    80003db2:	00e32e33          	slt	t3,t1,a4
    80003db6:	010e063b          	addw	a2,t3,a6
    80003dba:	01061d1b          	sllw	s10,a2,0x10
    80003dbe:	410d551b          	sraw	a0,s10,0x10
    80003dc2:	0691                	add	a3,a3,4
    80003dc4:	7e569563          	bne	a3,t0,800045ae <core_bench_matrix+0x10ee>
    80003dc8:	b05fd0ef          	jal	800018cc <crc16>
    80003dcc:	85aa                	mv	a1,a0
    80003dce:	88a6                	mv	a7,s1
    80003dd0:	4701                	li	a4,0
    80003dd2:	4681                	li	a3,0
    80003dd4:	866e                	mv	a2,s11
    80003dd6:	4781                	li	a5,0
    80003dd8:	00e78dbb          	addw	s11,a5,a4
    80003ddc:	020d9e13          	sll	t3,s11,0x20
    80003de0:	40e882b3          	sub	t0,a7,a4
    80003de4:	01ee5513          	srl	a0,t3,0x1e
    80003de8:	0032fd13          	and	s10,t0,3
    80003dec:	00a90f33          	add	t5,s2,a0
    80003df0:	883e                	mv	a6,a5
    80003df2:	853a                	mv	a0,a4
    80003df4:	4e01                	li	t3,0
    80003df6:	0a0d0063          	beqz	s10,80003e96 <core_bench_matrix+0x9d6>
    80003dfa:	4385                	li	t2,1
    80003dfc:	067d0263          	beq	s10,t2,80003e60 <core_bench_matrix+0x9a0>
    80003e00:	4f89                	li	t6,2
    80003e02:	03fd0863          	beq	s10,t6,80003e32 <core_bench_matrix+0x972>
    80003e06:	02071e93          	sll	t4,a4,0x20
    80003e0a:	02079313          	sll	t1,a5,0x20
    80003e0e:	01fed093          	srl	ra,t4,0x1f
    80003e12:	01f35d93          	srl	s11,t1,0x1f
    80003e16:	00140833          	add	a6,s0,ra
    80003e1a:	01b982b3          	add	t0,s3,s11
    80003e1e:	00081e03          	lh	t3,0(a6)
    80003e22:	00029d03          	lh	s10,0(t0)
    80003e26:	0017051b          	addw	a0,a4,1
    80003e2a:	00f4883b          	addw	a6,s1,a5
    80003e2e:	03ae0e3b          	mulw	t3,t3,s10
    80003e32:	02051393          	sll	t2,a0,0x20
    80003e36:	02081f93          	sll	t6,a6,0x20
    80003e3a:	01f3de93          	srl	t4,t2,0x1f
    80003e3e:	01ffd093          	srl	ra,t6,0x1f
    80003e42:	01d40db3          	add	s11,s0,t4
    80003e46:	00198333          	add	t1,s3,ra
    80003e4a:	000d9283          	lh	t0,0(s11)
    80003e4e:	00031d03          	lh	s10,0(t1)
    80003e52:	2505                	addw	a0,a0,1
    80003e54:	0104883b          	addw	a6,s1,a6
    80003e58:	03a283bb          	mulw	t2,t0,s10
    80003e5c:	01c38e3b          	addw	t3,t2,t3
    80003e60:	02051e93          	sll	t4,a0,0x20
    80003e64:	02081f93          	sll	t6,a6,0x20
    80003e68:	01fed093          	srl	ra,t4,0x1f
    80003e6c:	01ffdd93          	srl	s11,t6,0x1f
    80003e70:	001402b3          	add	t0,s0,ra
    80003e74:	01b98333          	add	t1,s3,s11
    80003e78:	00029d03          	lh	s10,0(t0)
    80003e7c:	00031383          	lh	t2,0(t1)
    80003e80:	2505                	addw	a0,a0,1
    80003e82:	8eaa                	mv	t4,a0
    80003e84:	027d00bb          	mulw	ra,s10,t2
    80003e88:	0104883b          	addw	a6,s1,a6
    80003e8c:	01c08e3b          	addw	t3,ra,t3
    80003e90:	8ff2                	mv	t6,t3
    80003e92:	0d150463          	beq	a0,a7,80003f5a <core_bench_matrix+0xa9a>
    80003e96:	02051293          	sll	t0,a0,0x20
    80003e9a:	01f2d393          	srl	t2,t0,0x1f
    80003e9e:	00150d9b          	addw	s11,a0,1
    80003ea2:	01048d3b          	addw	s10,s1,a6
    80003ea6:	02081313          	sll	t1,a6,0x20
    80003eaa:	007400b3          	add	ra,s0,t2
    80003eae:	00009283          	lh	t0,0(ra)
    80003eb2:	01f35513          	srl	a0,t1,0x1f
    80003eb6:	001d8e9b          	addw	t4,s11,1
    80003eba:	020d1f93          	sll	t6,s10,0x20
    80003ebe:	01a4833b          	addw	t1,s1,s10
    80003ec2:	00a983b3          	add	t2,s3,a0
    80003ec6:	020d9813          	sll	a6,s11,0x20
    80003eca:	001e851b          	addw	a0,t4,1
    80003ece:	01ffdd13          	srl	s10,t6,0x1f
    80003ed2:	1e82                	sll	t4,t4,0x20
    80003ed4:	01a98fb3          	add	t6,s3,s10
    80003ed8:	01f85d93          	srl	s11,a6,0x1f
    80003edc:	01fedd13          	srl	s10,t4,0x1f
    80003ee0:	0064883b          	addw	a6,s1,t1
    80003ee4:	1302                	sll	t1,t1,0x20
    80003ee6:	01f35e93          	srl	t4,t1,0x1f
    80003eea:	c616                	sw	t0,12(sp)
    80003eec:	02081313          	sll	t1,a6,0x20
    80003ef0:	01a402b3          	add	t0,s0,s10
    80003ef4:	02051d13          	sll	s10,a0,0x20
    80003ef8:	000f9083          	lh	ra,0(t6)
    80003efc:	01f35313          	srl	t1,t1,0x1f
    80003f00:	01d98fb3          	add	t6,s3,t4
    80003f04:	01fd5e93          	srl	t4,s10,0x1f
    80003f08:	00039383          	lh	t2,0(t2)
    80003f0c:	00029d03          	lh	s10,0(t0)
    80003f10:	9da2                	add	s11,s11,s0
    80003f12:	01d402b3          	add	t0,s0,t4
    80003f16:	00698eb3          	add	t4,s3,t1
    80003f1a:	4332                	lw	t1,12(sp)
    80003f1c:	000d9d83          	lh	s11,0(s11)
    80003f20:	000f9f83          	lh	t6,0(t6)
    80003f24:	0273033b          	mulw	t1,t1,t2
    80003f28:	00029383          	lh	t2,0(t0)
    80003f2c:	000e9283          	lh	t0,0(t4)
    80003f30:	2505                	addw	a0,a0,1
    80003f32:	8eaa                	mv	t4,a0
    80003f34:	0104883b          	addw	a6,s1,a6
    80003f38:	021d8dbb          	mulw	s11,s11,ra
    80003f3c:	01c30e3b          	addw	t3,t1,t3
    80003f40:	03fd00bb          	mulw	ra,s10,t6
    80003f44:	01cd8d3b          	addw	s10,s11,t3
    80003f48:	02538fbb          	mulw	t6,t2,t0
    80003f4c:	01a0833b          	addw	t1,ra,s10
    80003f50:	006f8e3b          	addw	t3,t6,t1
    80003f54:	8ff2                	mv	t6,t3
    80003f56:	f51510e3          	bne	a0,a7,80003e96 <core_bench_matrix+0x9d6>
    80003f5a:	01ff2023          	sw	t6,0(t5)
    80003f5e:	2785                	addw	a5,a5,1
    80003f60:	e6f49ce3          	bne	s1,a5,80003dd8 <core_bench_matrix+0x918>
    80003f64:	2685                	addw	a3,a3,1
    80003f66:	9f25                	addw	a4,a4,s1
    80003f68:	009e88bb          	addw	a7,t4,s1
    80003f6c:	e696e5e3          	bltu	a3,s1,80003dd6 <core_bench_matrix+0x916>
    80003f70:	8db2                	mv	s11,a2
    80003f72:	560c0ce3          	beqz	s8,80004cea <core_bench_matrix+0x182a>
    80003f76:	020c9493          	sll	s1,s9,0x20
    80003f7a:	0204dd13          	srl	s10,s1,0x20
    80003f7e:	002d1f13          	sll	t5,s10,0x2
    80003f82:	ffcf0613          	add	a2,t5,-4
    80003f86:	00265513          	srl	a0,a2,0x2
    80003f8a:	00150813          	add	a6,a0,1
    80003f8e:	00787e93          	and	t4,a6,7
    80003f92:	01e904b3          	add	s1,s2,t5
    80003f96:	86ca                	mv	a3,s2
    80003f98:	4701                	li	a4,0
    80003f9a:	4501                	li	a0,0
    80003f9c:	4781                	li	a5,0
    80003f9e:	000e86e3          	beqz	t4,800047aa <core_bench_matrix+0x12ea>
    80003fa2:	4385                	li	t2,1
    80003fa4:	0e7e8363          	beq	t4,t2,8000408a <core_bench_matrix+0xbca>
    80003fa8:	4289                	li	t0,2
    80003faa:	0a5e8e63          	beq	t4,t0,80004066 <core_bench_matrix+0xba6>
    80003fae:	4e0d                	li	t3,3
    80003fb0:	09ce8963          	beq	t4,t3,80004042 <core_bench_matrix+0xb82>
    80003fb4:	4091                	li	ra,4
    80003fb6:	061e8563          	beq	t4,ra,80004020 <core_bench_matrix+0xb60>
    80003fba:	4f95                	li	t6,5
    80003fbc:	05fe8163          	beq	t4,t6,80003ffe <core_bench_matrix+0xb3e>
    80003fc0:	4319                	li	t1,6
    80003fc2:	006e8d63          	beq	t4,t1,80003fdc <core_bench_matrix+0xb1c>
    80003fc6:	00092703          	lw	a4,0(s2)
    80003fca:	87ba                	mv	a5,a4
    80003fcc:	00e02533          	sgtz	a0,a4
    80003fd0:	00ea5463          	bge	s4,a4,80003fd8 <core_bench_matrix+0xb18>
    80003fd4:	4529                	li	a0,10
    80003fd6:	4781                	li	a5,0
    80003fd8:	00490693          	add	a3,s2,4
    80003fdc:	88ba                	mv	a7,a4
    80003fde:	4298                	lw	a4,0(a3)
    80003fe0:	03051f13          	sll	t5,a0,0x30
    80003fe4:	030f5613          	srl	a2,t5,0x30
    80003fe8:	9fb9                	addw	a5,a5,a4
    80003fea:	4cfa58e3          	bge	s4,a5,80004cba <core_bench_matrix+0x17fa>
    80003fee:	00a6079b          	addw	a5,a2,10
    80003ff2:	0107939b          	sllw	t2,a5,0x10
    80003ff6:	4103d51b          	sraw	a0,t2,0x10
    80003ffa:	4781                	li	a5,0
    80003ffc:	0691                	add	a3,a3,4
    80003ffe:	82ba                	mv	t0,a4
    80004000:	4298                	lw	a4,0(a3)
    80004002:	03051e13          	sll	t3,a0,0x30
    80004006:	030e5093          	srl	ra,t3,0x30
    8000400a:	9fb9                	addw	a5,a5,a4
    8000400c:	3efa5de3          	bge	s4,a5,80004c06 <core_bench_matrix+0x1746>
    80004010:	00a08f1b          	addw	t5,ra,10
    80004014:	010f161b          	sllw	a2,t5,0x10
    80004018:	4106551b          	sraw	a0,a2,0x10
    8000401c:	4781                	li	a5,0
    8000401e:	0691                	add	a3,a3,4
    80004020:	883a                	mv	a6,a4
    80004022:	4298                	lw	a4,0(a3)
    80004024:	1542                	sll	a0,a0,0x30
    80004026:	03055e93          	srl	t4,a0,0x30
    8000402a:	9fb9                	addw	a5,a5,a4
    8000402c:	38fa44e3          	blt	s4,a5,80004bb4 <core_bench_matrix+0x16f4>
    80004030:	00e823b3          	slt	t2,a6,a4
    80004034:	01d382bb          	addw	t0,t2,t4
    80004038:	01029e1b          	sllw	t3,t0,0x10
    8000403c:	410e551b          	sraw	a0,t3,0x10
    80004040:	0691                	add	a3,a3,4
    80004042:	8fba                	mv	t6,a4
    80004044:	4298                	lw	a4,0(a3)
    80004046:	03051313          	sll	t1,a0,0x30
    8000404a:	03035893          	srl	a7,t1,0x30
    8000404e:	9fb9                	addw	a5,a5,a4
    80004050:	32fa4ee3          	blt	s4,a5,80004b8c <core_bench_matrix+0x16cc>
    80004054:	00efaf33          	slt	t5,t6,a4
    80004058:	011f063b          	addw	a2,t5,a7
    8000405c:	0106181b          	sllw	a6,a2,0x10
    80004060:	4108551b          	sraw	a0,a6,0x10
    80004064:	0691                	add	a3,a3,4
    80004066:	83ba                	mv	t2,a4
    80004068:	4298                	lw	a4,0(a3)
    8000406a:	03051293          	sll	t0,a0,0x30
    8000406e:	0302de13          	srl	t3,t0,0x30
    80004072:	9fb9                	addw	a5,a5,a4
    80004074:	2cfa4ee3          	blt	s4,a5,80004b50 <core_bench_matrix+0x1690>
    80004078:	00e3a0b3          	slt	ra,t2,a4
    8000407c:	01c08fbb          	addw	t6,ra,t3
    80004080:	010f931b          	sllw	t1,t6,0x10
    80004084:	4103551b          	sraw	a0,t1,0x10
    80004088:	0691                	add	a3,a3,4
    8000408a:	8f3a                	mv	t5,a4
    8000408c:	4298                	lw	a4,0(a3)
    8000408e:	03051613          	sll	a2,a0,0x30
    80004092:	03065813          	srl	a6,a2,0x30
    80004096:	9fb9                	addw	a5,a5,a4
    80004098:	24fa4de3          	blt	s4,a5,80004af2 <core_bench_matrix+0x1632>
    8000409c:	00ef2533          	slt	a0,t5,a4
    800040a0:	01050ebb          	addw	t4,a0,a6
    800040a4:	010e939b          	sllw	t2,t4,0x10
    800040a8:	4103d51b          	sraw	a0,t2,0x10
    800040ac:	0691                	add	a3,a3,4
    800040ae:	6ed49e63          	bne	s1,a3,800047aa <core_bench_matrix+0x12ea>
    800040b2:	81bfd0ef          	jal	800018cc <crc16>
    800040b6:	0d06                	sll	s10,s10,0x1
    800040b8:	ffed0593          	add	a1,s10,-2
    800040bc:	0015d813          	srl	a6,a1,0x1
    800040c0:	00180e93          	add	t4,a6,1
    800040c4:	007ef393          	and	t2,t4,7
    800040c8:	85aa                	mv	a1,a0
    800040ca:	01a982b3          	add	t0,s3,s10
    800040ce:	87ca                	mv	a5,s2
    800040d0:	08038663          	beqz	t2,8000415c <core_bench_matrix+0xc9c>
    800040d4:	4505                	li	a0,1
    800040d6:	06a38963          	beq	t2,a0,80004148 <core_bench_matrix+0xc88>
    800040da:	4e09                	li	t3,2
    800040dc:	05c38e63          	beq	t2,t3,80004138 <core_bench_matrix+0xc78>
    800040e0:	470d                	li	a4,3
    800040e2:	04e38363          	beq	t2,a4,80004128 <core_bench_matrix+0xc68>
    800040e6:	4091                	li	ra,4
    800040e8:	02138863          	beq	t2,ra,80004118 <core_bench_matrix+0xc58>
    800040ec:	4f95                	li	t6,5
    800040ee:	01f38d63          	beq	t2,t6,80004108 <core_bench_matrix+0xc48>
    800040f2:	4319                	li	t1,6
    800040f4:	366395e3          	bne	t2,t1,80004c5e <core_bench_matrix+0x179e>
    800040f8:	000adf03          	lhu	t5,0(s5)
    800040fc:	0791                	add	a5,a5,4
    800040fe:	0a89                	add	s5,s5,2
    80004100:	00ff7613          	and	a2,t5,15
    80004104:	fec7ae23          	sw	a2,-4(a5)
    80004108:	000ad683          	lhu	a3,0(s5)
    8000410c:	0791                	add	a5,a5,4
    8000410e:	0a89                	add	s5,s5,2
    80004110:	00f6fd13          	and	s10,a3,15
    80004114:	ffa7ae23          	sw	s10,-4(a5)
    80004118:	000ad803          	lhu	a6,0(s5)
    8000411c:	0791                	add	a5,a5,4
    8000411e:	0a89                	add	s5,s5,2
    80004120:	00f87e93          	and	t4,a6,15
    80004124:	ffd7ae23          	sw	t4,-4(a5)
    80004128:	000ad383          	lhu	t2,0(s5)
    8000412c:	0791                	add	a5,a5,4
    8000412e:	0a89                	add	s5,s5,2
    80004130:	00f3f513          	and	a0,t2,15
    80004134:	fea7ae23          	sw	a0,-4(a5)
    80004138:	000ade03          	lhu	t3,0(s5)
    8000413c:	0791                	add	a5,a5,4
    8000413e:	0a89                	add	s5,s5,2
    80004140:	00fe7713          	and	a4,t3,15
    80004144:	fee7ae23          	sw	a4,-4(a5)
    80004148:	000ad083          	lhu	ra,0(s5)
    8000414c:	0791                	add	a5,a5,4
    8000414e:	0a89                	add	s5,s5,2
    80004150:	00f0ff93          	and	t6,ra,15
    80004154:	fff7ae23          	sw	t6,-4(a5)
    80004158:	065a8563          	beq	s5,t0,800041c2 <core_bench_matrix+0xd02>
    8000415c:	000ad983          	lhu	s3,0(s5)
    80004160:	002adf03          	lhu	t5,2(s5)
    80004164:	004ad303          	lhu	t1,4(s5)
    80004168:	006ad883          	lhu	a7,6(s5)
    8000416c:	008ad683          	lhu	a3,8(s5)
    80004170:	00aadd03          	lhu	s10,10(s5)
    80004174:	00cad603          	lhu	a2,12(s5)
    80004178:	00ead383          	lhu	t2,14(s5)
    8000417c:	00f9fe93          	and	t4,s3,15
    80004180:	00ff7e13          	and	t3,t5,15
    80004184:	00f37093          	and	ra,t1,15
    80004188:	00f8ff93          	and	t6,a7,15
    8000418c:	00f6f813          	and	a6,a3,15
    80004190:	00fd7513          	and	a0,s10,15
    80004194:	00f67993          	and	s3,a2,15
    80004198:	00f3f713          	and	a4,t2,15
    8000419c:	01d7a023          	sw	t4,0(a5)
    800041a0:	01c7a223          	sw	t3,4(a5)
    800041a4:	0017a423          	sw	ra,8(a5)
    800041a8:	01f7a623          	sw	t6,12(a5)
    800041ac:	0107a823          	sw	a6,16(a5)
    800041b0:	cbc8                	sw	a0,20(a5)
    800041b2:	0137ac23          	sw	s3,24(a5)
    800041b6:	cfd8                	sw	a4,28(a5)
    800041b8:	0ac1                	add	s5,s5,16
    800041ba:	02078793          	add	a5,a5,32
    800041be:	f85a9fe3          	bne	s5,t0,8000415c <core_bench_matrix+0xc9c>
    800041c2:	41248ab3          	sub	s5,s1,s2
    800041c6:	ffca8293          	add	t0,s5,-4
    800041ca:	0022d793          	srl	a5,t0,0x2
    800041ce:	00178f13          	add	t5,a5,1
    800041d2:	007f7313          	and	t1,t5,7
    800041d6:	4701                	li	a4,0
    800041d8:	4501                	li	a0,0
    800041da:	4781                	li	a5,0
    800041dc:	7c030663          	beqz	t1,800049a8 <core_bench_matrix+0x14e8>
    800041e0:	4885                	li	a7,1
    800041e2:	0f130963          	beq	t1,a7,800042d4 <core_bench_matrix+0xe14>
    800041e6:	4689                	li	a3,2
    800041e8:	0cd30363          	beq	t1,a3,800042ae <core_bench_matrix+0xdee>
    800041ec:	4d0d                	li	s10,3
    800041ee:	09a30d63          	beq	t1,s10,80004288 <core_bench_matrix+0xdc8>
    800041f2:	4611                	li	a2,4
    800041f4:	06c30763          	beq	t1,a2,80004262 <core_bench_matrix+0xda2>
    800041f8:	4395                	li	t2,5
    800041fa:	04730263          	beq	t1,t2,8000423e <core_bench_matrix+0xd7e>
    800041fe:	4e99                	li	t4,6
    80004200:	01d30d63          	beq	t1,t4,8000421a <core_bench_matrix+0xd5a>
    80004204:	00092703          	lw	a4,0(s2)
    80004208:	87ba                	mv	a5,a4
    8000420a:	00e02533          	sgtz	a0,a4
    8000420e:	00ea5463          	bge	s4,a4,80004216 <core_bench_matrix+0xd56>
    80004212:	4529                	li	a0,10
    80004214:	4781                	li	a5,0
    80004216:	00490b13          	add	s6,s2,4
    8000421a:	893a                	mv	s2,a4
    8000421c:	000b2703          	lw	a4,0(s6)
    80004220:	03051e13          	sll	t3,a0,0x30
    80004224:	030e5093          	srl	ra,t3,0x30
    80004228:	9fb9                	addw	a5,a5,a4
    8000422a:	20fa5fe3          	bge	s4,a5,80004c48 <core_bench_matrix+0x1788>
    8000422e:	00a0899b          	addw	s3,ra,10
    80004232:	01099a9b          	sllw	s5,s3,0x10
    80004236:	410ad51b          	sraw	a0,s5,0x10
    8000423a:	4781                	li	a5,0
    8000423c:	0b11                	add	s6,s6,4
    8000423e:	82ba                	mv	t0,a4
    80004240:	000b2703          	lw	a4,0(s6)
    80004244:	03051f13          	sll	t5,a0,0x30
    80004248:	030f5313          	srl	t1,t5,0x30
    8000424c:	9fb9                	addw	a5,a5,a4
    8000424e:	1cfa57e3          	bge	s4,a5,80004c1c <core_bench_matrix+0x175c>
    80004252:	00a3079b          	addw	a5,t1,10
    80004256:	0107961b          	sllw	a2,a5,0x10
    8000425a:	4106551b          	sraw	a0,a2,0x10
    8000425e:	4781                	li	a5,0
    80004260:	0b11                	add	s6,s6,4
    80004262:	83ba                	mv	t2,a4
    80004264:	000b2703          	lw	a4,0(s6)
    80004268:	03051e93          	sll	t4,a0,0x30
    8000426c:	030ed913          	srl	s2,t4,0x30
    80004270:	9fb9                	addw	a5,a5,a4
    80004272:	12fa47e3          	blt	s4,a5,80004ba0 <core_bench_matrix+0x16e0>
    80004276:	00e3ae33          	slt	t3,t2,a4
    8000427a:	012e00bb          	addw	ra,t3,s2
    8000427e:	01009f9b          	sllw	t6,ra,0x10
    80004282:	410fd51b          	sraw	a0,t6,0x10
    80004286:	0b11                	add	s6,s6,4
    80004288:	89ba                	mv	s3,a4
    8000428a:	000b2703          	lw	a4,0(s6)
    8000428e:	03051a93          	sll	s5,a0,0x30
    80004292:	030ad293          	srl	t0,s5,0x30
    80004296:	9fb9                	addw	a5,a5,a4
    80004298:	0cfa46e3          	blt	s4,a5,80004b64 <core_bench_matrix+0x16a4>
    8000429c:	00e9af33          	slt	t5,s3,a4
    800042a0:	005f033b          	addw	t1,t5,t0
    800042a4:	0103189b          	sllw	a7,t1,0x10
    800042a8:	4108d51b          	sraw	a0,a7,0x10
    800042ac:	0b11                	add	s6,s6,4
    800042ae:	863a                	mv	a2,a4
    800042b0:	000b2703          	lw	a4,0(s6)
    800042b4:	03051393          	sll	t2,a0,0x30
    800042b8:	0303de93          	srl	t4,t2,0x30
    800042bc:	9fb9                	addw	a5,a5,a4
    800042be:	06fa45e3          	blt	s4,a5,80004b28 <core_bench_matrix+0x1668>
    800042c2:	00e62933          	slt	s2,a2,a4
    800042c6:	01d90e3b          	addw	t3,s2,t4
    800042ca:	010e109b          	sllw	ra,t3,0x10
    800042ce:	4100d51b          	sraw	a0,ra,0x10
    800042d2:	0b11                	add	s6,s6,4
    800042d4:	883a                	mv	a6,a4
    800042d6:	000b2703          	lw	a4,0(s6)
    800042da:	1542                	sll	a0,a0,0x30
    800042dc:	03055993          	srl	s3,a0,0x30
    800042e0:	9fb9                	addw	a5,a5,a4
    800042e2:	02fa4ae3          	blt	s4,a5,80004b16 <core_bench_matrix+0x1656>
    800042e6:	00e82ab3          	slt	s5,a6,a4
    800042ea:	013a82bb          	addw	t0,s5,s3
    800042ee:	01029f1b          	sllw	t5,t0,0x10
    800042f2:	410f551b          	sraw	a0,t5,0x10
    800042f6:	0b11                	add	s6,s6,4
    800042f8:	6b649863          	bne	s1,s6,800049a8 <core_bench_matrix+0x14e8>
    800042fc:	dd0fd0ef          	jal	800018cc <crc16>
    80004300:	00145a13          	srl	s4,s0,0x1
    80004304:	414004bb          	negw	s1,s4
    80004308:	1bc2                	sll	s7,s7,0x30
    8000430a:	fffc859b          	addw	a1,s9,-1
    8000430e:	4b15                	li	s6,5
    80004310:	030bd393          	srl	t2,s7,0x30
    80004314:	0034fe93          	and	t4,s1,3
    80004318:	1ebb75e3          	bgeu	s6,a1,80004d02 <core_bench_matrix+0x1842>
    8000431c:	4981                	li	s3,0
    8000431e:	020e8e63          	beqz	t4,8000435a <core_bench_matrix+0xe9a>
    80004322:	00045d03          	lhu	s10,0(s0)
    80004326:	0024f913          	and	s2,s1,2
    8000432a:	4985                	li	s3,1
    8000432c:	407d063b          	subw	a2,s10,t2
    80004330:	00c41023          	sh	a2,0(s0)
    80004334:	02090363          	beqz	s2,8000435a <core_bench_matrix+0xe9a>
    80004338:	00245e03          	lhu	t3,2(s0)
    8000433c:	408d                	li	ra,3
    8000433e:	4989                	li	s3,2
    80004340:	407e0fbb          	subw	t6,t3,t2
    80004344:	01f41123          	sh	t6,2(s0)
    80004348:	001e9963          	bne	t4,ra,8000435a <core_bench_matrix+0xe9a>
    8000434c:	00445803          	lhu	a6,4(s0)
    80004350:	498d                	li	s3,3
    80004352:	4078073b          	subw	a4,a6,t2
    80004356:	00e41223          	sh	a4,4(s0)
    8000435a:	41dc8abb          	subw	s5,s9,t4
    8000435e:	01039293          	sll	t0,t2,0x10
    80004362:	02039f13          	sll	t5,t2,0x20
    80004366:	0053e333          	or	t1,t2,t0
    8000436a:	001e9793          	sll	a5,t4,0x1
    8000436e:	002ad69b          	srlw	a3,s5,0x2
    80004372:	01e368b3          	or	a7,t1,t5
    80004376:	03039a13          	sll	s4,t2,0x30
    8000437a:	00f40f33          	add	t5,s0,a5
    8000437e:	00369493          	sll	s1,a3,0x3
    80004382:	0148e5b3          	or	a1,a7,s4
    80004386:	01e48b33          	add	s6,s1,t5
    8000438a:	000f3b83          	ld	s7,0(t5)
    8000438e:	00005e97          	auipc	t4,0x5
    80004392:	00005c97          	auipc	s9,0x5
    80004396:	e7aebd03          	ld	s10,-390(t4) # 80009208 <mem_name+0x38>
    8000439a:	e6ecb903          	ld	s2,-402(s9) # 80009200 <mem_name+0x30>
    8000439e:	00bbc633          	xor	a2,s7,a1
    800043a2:	fff64093          	not	ra,a2
    800043a6:	01abefb3          	or	t6,s7,s10
    800043aa:	0125fe33          	and	t3,a1,s2
    800043ae:	01a0f833          	and	a6,ra,s10
    800043b2:	41cf8733          	sub	a4,t6,t3
    800043b6:	00e842b3          	xor	t0,a6,a4
    800043ba:	005f3023          	sd	t0,0(t5)
    800043be:	0f21                	add	t5,t5,8
    800043c0:	fd6f15e3          	bne	t5,s6,8000438a <core_bench_matrix+0xeca>
    800043c4:	ffcaf313          	and	t1,s5,-4
    800043c8:	003afa93          	and	s5,s5,3
    800043cc:	01330cbb          	addw	s9,t1,s3
    800043d0:	0c0a8663          	beqz	s5,8000449c <core_bench_matrix+0xfdc>
    800043d4:	020c9993          	sll	s3,s9,0x20
    800043d8:	01f9d793          	srl	a5,s3,0x1f
    800043dc:	00f40a33          	add	s4,s0,a5
    800043e0:	000a5883          	lhu	a7,0(s4)
    800043e4:	001c869b          	addw	a3,s9,1
    800043e8:	0006849b          	sext.w	s1,a3
    800043ec:	407885bb          	subw	a1,a7,t2
    800043f0:	00ba1023          	sh	a1,0(s4)
    800043f4:	0b84f463          	bgeu	s1,s8,8000449c <core_bench_matrix+0xfdc>
    800043f8:	02069b13          	sll	s6,a3,0x20
    800043fc:	01fb5b93          	srl	s7,s6,0x1f
    80004400:	01740eb3          	add	t4,s0,s7
    80004404:	000edd03          	lhu	s10,0(t4)
    80004408:	002c891b          	addw	s2,s9,2
    8000440c:	0009061b          	sext.w	a2,s2
    80004410:	407d00bb          	subw	ra,s10,t2
    80004414:	001e9023          	sh	ra,0(t4)
    80004418:	09867263          	bgeu	a2,s8,8000449c <core_bench_matrix+0xfdc>
    8000441c:	02091f93          	sll	t6,s2,0x20
    80004420:	01ffde13          	srl	t3,t6,0x1f
    80004424:	01c40733          	add	a4,s0,t3
    80004428:	00075803          	lhu	a6,0(a4)
    8000442c:	003c829b          	addw	t0,s9,3
    80004430:	00028f1b          	sext.w	t5,t0
    80004434:	4078033b          	subw	t1,a6,t2
    80004438:	00671023          	sh	t1,0(a4)
    8000443c:	078f7063          	bgeu	t5,s8,8000449c <core_bench_matrix+0xfdc>
    80004440:	02029a93          	sll	s5,t0,0x20
    80004444:	01fad993          	srl	s3,s5,0x1f
    80004448:	013407b3          	add	a5,s0,s3
    8000444c:	0007da03          	lhu	s4,0(a5)
    80004450:	004c889b          	addw	a7,s9,4
    80004454:	0008869b          	sext.w	a3,a7
    80004458:	407a04bb          	subw	s1,s4,t2
    8000445c:	00979023          	sh	s1,0(a5)
    80004460:	0386fe63          	bgeu	a3,s8,8000449c <core_bench_matrix+0xfdc>
    80004464:	02089593          	sll	a1,a7,0x20
    80004468:	01f5db13          	srl	s6,a1,0x1f
    8000446c:	01640bb3          	add	s7,s0,s6
    80004470:	000bde83          	lhu	t4,0(s7)
    80004474:	2c95                	addw	s9,s9,5
    80004476:	000c8d1b          	sext.w	s10,s9
    8000447a:	407e893b          	subw	s2,t4,t2
    8000447e:	012b9023          	sh	s2,0(s7)
    80004482:	018d7d63          	bgeu	s10,s8,8000449c <core_bench_matrix+0xfdc>
    80004486:	020c9c13          	sll	s8,s9,0x20
    8000448a:	01fc5613          	srl	a2,s8,0x1f
    8000448e:	9432                	add	s0,s0,a2
    80004490:	00045083          	lhu	ra,0(s0)
    80004494:	407083bb          	subw	t2,ra,t2
    80004498:	00741023          	sh	t2,0(s0)
    8000449c:	7446                	ld	s0,112(sp)
    8000449e:	70e6                	ld	ra,120(sp)
    800044a0:	74a6                	ld	s1,104(sp)
    800044a2:	7906                	ld	s2,96(sp)
    800044a4:	69e6                	ld	s3,88(sp)
    800044a6:	6a46                	ld	s4,80(sp)
    800044a8:	6aa6                	ld	s5,72(sp)
    800044aa:	6b06                	ld	s6,64(sp)
    800044ac:	7be2                	ld	s7,56(sp)
    800044ae:	7c42                	ld	s8,48(sp)
    800044b0:	7ca2                	ld	s9,40(sp)
    800044b2:	7d02                	ld	s10,32(sp)
    800044b4:	85ee                	mv	a1,s11
    800044b6:	6de2                	ld	s11,24(sp)
    800044b8:	0105151b          	sllw	a0,a0,0x10
    800044bc:	4105551b          	sraw	a0,a0,0x10
    800044c0:	6109                	add	sp,sp,128
    800044c2:	c0afd06f          	j	800018cc <crc16>
    800044c6:	0046a303          	lw	t1,4(a3)
    800044ca:	00af0e9b          	addw	t4,t5,10
    800044ce:	010e979b          	sllw	a5,t4,0x10
    800044d2:	4107d71b          	sraw	a4,a5,0x10
    800044d6:	4081                	li	ra,0
    800044d8:	03071513          	sll	a0,a4,0x30
    800044dc:	00130fbb          	addw	t6,t1,ra
    800044e0:	03055813          	srl	a6,a0,0x30
    800044e4:	13fa4363          	blt	s4,t6,8000460a <core_bench_matrix+0x114a>
    800044e8:	006d2e33          	slt	t3,s10,t1
    800044ec:	0086ae83          	lw	t4,8(a3)
    800044f0:	010e0d3b          	addw	s10,t3,a6
    800044f4:	010d161b          	sllw	a2,s10,0x10
    800044f8:	4106589b          	sraw	a7,a2,0x10
    800044fc:	03089793          	sll	a5,a7,0x30
    80004500:	01fe8f3b          	addw	t5,t4,t6
    80004504:	0307d713          	srl	a4,a5,0x30
    80004508:	13ea4263          	blt	s4,t5,8000462c <core_bench_matrix+0x116c>
    8000450c:	01d320b3          	slt	ra,t1,t4
    80004510:	46d0                	lw	a2,12(a3)
    80004512:	00e0833b          	addw	t1,ra,a4
    80004516:	0103151b          	sllw	a0,t1,0x10
    8000451a:	41055d1b          	sraw	s10,a0,0x10
    8000451e:	030d1393          	sll	t2,s10,0x30
    80004522:	01e6083b          	addw	a6,a2,t5
    80004526:	0303d893          	srl	a7,t2,0x30
    8000452a:	130a4163          	blt	s4,a6,8000464c <core_bench_matrix+0x118c>
    8000452e:	00ceafb3          	slt	t6,t4,a2
    80004532:	0106ae03          	lw	t3,16(a3)
    80004536:	011f8ebb          	addw	t4,t6,a7
    8000453a:	010e971b          	sllw	a4,t4,0x10
    8000453e:	4107531b          	sraw	t1,a4,0x10
    80004542:	03031513          	sll	a0,t1,0x30
    80004546:	010e073b          	addw	a4,t3,a6
    8000454a:	03055d13          	srl	s10,a0,0x30
    8000454e:	12ea4063          	blt	s4,a4,8000466e <core_bench_matrix+0x11ae>
    80004552:	01c62f33          	slt	t5,a2,t3
    80004556:	0146a083          	lw	ra,20(a3)
    8000455a:	01af063b          	addw	a2,t5,s10
    8000455e:	0106139b          	sllw	t2,a2,0x10
    80004562:	4103de9b          	sraw	t4,t2,0x10
    80004566:	030e9793          	sll	a5,t4,0x30
    8000456a:	00e083bb          	addw	t2,ra,a4
    8000456e:	0307d313          	srl	t1,a5,0x30
    80004572:	107a4f63          	blt	s4,t2,80004690 <core_bench_matrix+0x11d0>
    80004576:	001e2833          	slt	a6,t3,ra
    8000457a:	4e98                	lw	a4,24(a3)
    8000457c:	00680e3b          	addw	t3,a6,t1
    80004580:	010e151b          	sllw	a0,t3,0x10
    80004584:	4105561b          	sraw	a2,a0,0x10
    80004588:	03061893          	sll	a7,a2,0x30
    8000458c:	007707bb          	addw	a5,a4,t2
    80004590:	0308df93          	srl	t6,a7,0x30
    80004594:	10fa4e63          	blt	s4,a5,800046b0 <core_bench_matrix+0x11f0>
    80004598:	00e0aeb3          	slt	t4,ra,a4
    8000459c:	01fe80bb          	addw	ra,t4,t6
    800045a0:	0100931b          	sllw	t1,ra,0x10
    800045a4:	4103551b          	sraw	a0,t1,0x10
    800045a8:	06f1                	add	a3,a3,28
    800045aa:	80568fe3          	beq	a3,t0,80003dc8 <core_bench_matrix+0x908>
    800045ae:	0006a883          	lw	a7,0(a3)
    800045b2:	03051f93          	sll	t6,a0,0x30
    800045b6:	030fde93          	srl	t4,t6,0x30
    800045ba:	00f887bb          	addw	a5,a7,a5
    800045be:	52fa5163          	bge	s4,a5,80004ae0 <core_bench_matrix+0x1620>
    800045c2:	00ae881b          	addw	a6,t4,10
    800045c6:	01081e1b          	sllw	t3,a6,0x10
    800045ca:	410e551b          	sraw	a0,t3,0x10
    800045ce:	4781                	li	a5,0
    800045d0:	0046ad03          	lw	s10,4(a3)
    800045d4:	03051613          	sll	a2,a0,0x30
    800045d8:	0691                	add	a3,a3,4
    800045da:	00fd00bb          	addw	ra,s10,a5
    800045de:	03065f13          	srl	t5,a2,0x30
    800045e2:	ee1a42e3          	blt	s4,ra,800044c6 <core_bench_matrix+0x1006>
    800045e6:	01a8a3b3          	slt	t2,a7,s10
    800045ea:	0046a303          	lw	t1,4(a3)
    800045ee:	01e388bb          	addw	a7,t2,t5
    800045f2:	01089f9b          	sllw	t6,a7,0x10
    800045f6:	410fd71b          	sraw	a4,t6,0x10
    800045fa:	03071513          	sll	a0,a4,0x30
    800045fe:	00130fbb          	addw	t6,t1,ra
    80004602:	03055813          	srl	a6,a0,0x30
    80004606:	effa51e3          	bge	s4,t6,800044e8 <core_bench_matrix+0x1028>
    8000460a:	00a80f1b          	addw	t5,a6,10
    8000460e:	0086ae83          	lw	t4,8(a3)
    80004612:	010f139b          	sllw	t2,t5,0x10
    80004616:	4103d89b          	sraw	a7,t2,0x10
    8000461a:	4f81                	li	t6,0
    8000461c:	03089793          	sll	a5,a7,0x30
    80004620:	01fe8f3b          	addw	t5,t4,t6
    80004624:	0307d713          	srl	a4,a5,0x30
    80004628:	efea52e3          	bge	s4,t5,8000450c <core_bench_matrix+0x104c>
    8000462c:	00a7081b          	addw	a6,a4,10
    80004630:	46d0                	lw	a2,12(a3)
    80004632:	01081e1b          	sllw	t3,a6,0x10
    80004636:	410e5d1b          	sraw	s10,t3,0x10
    8000463a:	4f01                	li	t5,0
    8000463c:	030d1393          	sll	t2,s10,0x30
    80004640:	01e6083b          	addw	a6,a2,t5
    80004644:	0303d893          	srl	a7,t2,0x30
    80004648:	ef0a53e3          	bge	s4,a6,8000452e <core_bench_matrix+0x106e>
    8000464c:	0106ae03          	lw	t3,16(a3)
    80004650:	00a8879b          	addw	a5,a7,10
    80004654:	0107909b          	sllw	ra,a5,0x10
    80004658:	4100d31b          	sraw	t1,ra,0x10
    8000465c:	4801                	li	a6,0
    8000465e:	03031513          	sll	a0,t1,0x30
    80004662:	010e073b          	addw	a4,t3,a6
    80004666:	03055d13          	srl	s10,a0,0x30
    8000466a:	eeea54e3          	bge	s4,a4,80004552 <core_bench_matrix+0x1092>
    8000466e:	0146a083          	lw	ra,20(a3)
    80004672:	00ad089b          	addw	a7,s10,10
    80004676:	01089f9b          	sllw	t6,a7,0x10
    8000467a:	410fde9b          	sraw	t4,t6,0x10
    8000467e:	4701                	li	a4,0
    80004680:	030e9793          	sll	a5,t4,0x30
    80004684:	00e083bb          	addw	t2,ra,a4
    80004688:	0307d313          	srl	t1,a5,0x30
    8000468c:	ee7a55e3          	bge	s4,t2,80004576 <core_bench_matrix+0x10b6>
    80004690:	4e98                	lw	a4,24(a3)
    80004692:	00a30d1b          	addw	s10,t1,10
    80004696:	010d1f1b          	sllw	t5,s10,0x10
    8000469a:	410f561b          	sraw	a2,t5,0x10
    8000469e:	4381                	li	t2,0
    800046a0:	03061893          	sll	a7,a2,0x30
    800046a4:	007707bb          	addw	a5,a4,t2
    800046a8:	0308df93          	srl	t6,a7,0x30
    800046ac:	eefa56e3          	bge	s4,a5,80004598 <core_bench_matrix+0x10d8>
    800046b0:	00af879b          	addw	a5,t6,10
    800046b4:	0107981b          	sllw	a6,a5,0x10
    800046b8:	4108551b          	sraw	a0,a6,0x10
    800046bc:	4781                	li	a5,0
    800046be:	b5ed                	j	800045a8 <core_bench_matrix+0x10e8>
    800046c0:	0046af03          	lw	t5,4(a3)
    800046c4:	00a2831b          	addw	t1,t0,10
    800046c8:	0103179b          	sllw	a5,t1,0x10
    800046cc:	4107d71b          	sraw	a4,a5,0x10
    800046d0:	4881                	li	a7,0
    800046d2:	03071613          	sll	a2,a4,0x30
    800046d6:	011f0fbb          	addw	t6,t5,a7
    800046da:	03065813          	srl	a6,a2,0x30
    800046de:	13fa4463          	blt	s4,t6,80004806 <core_bench_matrix+0x1346>
    800046e2:	01eea533          	slt	a0,t4,t5
    800046e6:	0086a303          	lw	t1,8(a3)
    800046ea:	01050ebb          	addw	t4,a0,a6
    800046ee:	010e939b          	sllw	t2,t4,0x10
    800046f2:	4103d09b          	sraw	ra,t2,0x10
    800046f6:	03009793          	sll	a5,ra,0x30
    800046fa:	01f303bb          	addw	t2,t1,t6
    800046fe:	0307d713          	srl	a4,a5,0x30
    80004702:	127a4363          	blt	s4,t2,80004828 <core_bench_matrix+0x1368>
    80004706:	006f28b3          	slt	a7,t5,t1
    8000470a:	00c6a283          	lw	t0,12(a3)
    8000470e:	00e88f3b          	addw	t5,a7,a4
    80004712:	010f161b          	sllw	a2,t5,0x10
    80004716:	41065e9b          	sraw	t4,a2,0x10
    8000471a:	030e9e13          	sll	t3,t4,0x30
    8000471e:	0072863b          	addw	a2,t0,t2
    80004722:	030e5093          	srl	ra,t3,0x30
    80004726:	12ca4263          	blt	s4,a2,8000484a <core_bench_matrix+0x138a>
    8000472a:	00532fb3          	slt	t6,t1,t0
    8000472e:	0106a803          	lw	a6,16(a3)
    80004732:	001f833b          	addw	t1,t6,ra
    80004736:	0103171b          	sllw	a4,t1,0x10
    8000473a:	41075f1b          	sraw	t5,a4,0x10
    8000473e:	030f1513          	sll	a0,t5,0x30
    80004742:	00c8073b          	addw	a4,a6,a2
    80004746:	03055e93          	srl	t4,a0,0x30
    8000474a:	12ea4163          	blt	s4,a4,8000486c <core_bench_matrix+0x13ac>
    8000474e:	0102a3b3          	slt	t2,t0,a6
    80004752:	0146a883          	lw	a7,20(a3)
    80004756:	01d382bb          	addw	t0,t2,t4
    8000475a:	01029e1b          	sllw	t3,t0,0x10
    8000475e:	410e531b          	sraw	t1,t3,0x10
    80004762:	03031793          	sll	a5,t1,0x30
    80004766:	00e88e3b          	addw	t3,a7,a4
    8000476a:	0307df13          	srl	t5,a5,0x30
    8000476e:	13ca4063          	blt	s4,t3,8000488e <core_bench_matrix+0x13ce>
    80004772:	01182633          	slt	a2,a6,a7
    80004776:	4e98                	lw	a4,24(a3)
    80004778:	01e6083b          	addw	a6,a2,t5
    8000477c:	0108151b          	sllw	a0,a6,0x10
    80004780:	4105529b          	sraw	t0,a0,0x10
    80004784:	03029093          	sll	ra,t0,0x30
    80004788:	01c707bb          	addw	a5,a4,t3
    8000478c:	0300df93          	srl	t6,ra,0x30
    80004790:	10fa4f63          	blt	s4,a5,800048ae <core_bench_matrix+0x13ee>
    80004794:	00e8a333          	slt	t1,a7,a4
    80004798:	01f308bb          	addw	a7,t1,t6
    8000479c:	01089f1b          	sllw	t5,a7,0x10
    800047a0:	410f551b          	sraw	a0,t5,0x10
    800047a4:	06f1                	add	a3,a3,28
    800047a6:	90d486e3          	beq	s1,a3,800040b2 <core_bench_matrix+0xbf2>
    800047aa:	0006a083          	lw	ra,0(a3)
    800047ae:	03051f93          	sll	t6,a0,0x30
    800047b2:	030fd313          	srl	t1,t6,0x30
    800047b6:	00f087bb          	addw	a5,ra,a5
    800047ba:	30fa5a63          	bge	s4,a5,80004ace <core_bench_matrix+0x160e>
    800047be:	00a3081b          	addw	a6,t1,10
    800047c2:	0108151b          	sllw	a0,a6,0x10
    800047c6:	4105561b          	sraw	a2,a0,0x10
    800047ca:	4781                	li	a5,0
    800047cc:	0046ae83          	lw	t4,4(a3)
    800047d0:	03061393          	sll	t2,a2,0x30
    800047d4:	0691                	add	a3,a3,4
    800047d6:	00fe88bb          	addw	a7,t4,a5
    800047da:	0303d293          	srl	t0,t2,0x30
    800047de:	ef1a41e3          	blt	s4,a7,800046c0 <core_bench_matrix+0x1200>
    800047e2:	01d0ae33          	slt	t3,ra,t4
    800047e6:	0046af03          	lw	t5,4(a3)
    800047ea:	005e00bb          	addw	ra,t3,t0
    800047ee:	01009f9b          	sllw	t6,ra,0x10
    800047f2:	410fd71b          	sraw	a4,t6,0x10
    800047f6:	03071613          	sll	a2,a4,0x30
    800047fa:	011f0fbb          	addw	t6,t5,a7
    800047fe:	03065813          	srl	a6,a2,0x30
    80004802:	effa50e3          	bge	s4,t6,800046e2 <core_bench_matrix+0x1222>
    80004806:	0086a303          	lw	t1,8(a3)
    8000480a:	00a8029b          	addw	t0,a6,10
    8000480e:	01029e1b          	sllw	t3,t0,0x10
    80004812:	410e509b          	sraw	ra,t3,0x10
    80004816:	4f81                	li	t6,0
    80004818:	03009793          	sll	a5,ra,0x30
    8000481c:	01f303bb          	addw	t2,t1,t6
    80004820:	0307d713          	srl	a4,a5,0x30
    80004824:	ee7a51e3          	bge	s4,t2,80004706 <core_bench_matrix+0x1246>
    80004828:	00c6a283          	lw	t0,12(a3)
    8000482c:	00a7081b          	addw	a6,a4,10
    80004830:	0108151b          	sllw	a0,a6,0x10
    80004834:	41055e9b          	sraw	t4,a0,0x10
    80004838:	4381                	li	t2,0
    8000483a:	030e9e13          	sll	t3,t4,0x30
    8000483e:	0072863b          	addw	a2,t0,t2
    80004842:	030e5093          	srl	ra,t3,0x30
    80004846:	eeca52e3          	bge	s4,a2,8000472a <core_bench_matrix+0x126a>
    8000484a:	0106a803          	lw	a6,16(a3)
    8000484e:	00a0879b          	addw	a5,ra,10
    80004852:	0107989b          	sllw	a7,a5,0x10
    80004856:	4108df1b          	sraw	t5,a7,0x10
    8000485a:	4601                	li	a2,0
    8000485c:	030f1513          	sll	a0,t5,0x30
    80004860:	00c8073b          	addw	a4,a6,a2
    80004864:	03055e93          	srl	t4,a0,0x30
    80004868:	eeea53e3          	bge	s4,a4,8000474e <core_bench_matrix+0x128e>
    8000486c:	0146a883          	lw	a7,20(a3)
    80004870:	00ae809b          	addw	ra,t4,10
    80004874:	01009f9b          	sllw	t6,ra,0x10
    80004878:	410fd31b          	sraw	t1,t6,0x10
    8000487c:	4701                	li	a4,0
    8000487e:	03031793          	sll	a5,t1,0x30
    80004882:	00e88e3b          	addw	t3,a7,a4
    80004886:	0307df13          	srl	t5,a5,0x30
    8000488a:	efca54e3          	bge	s4,t3,80004772 <core_bench_matrix+0x12b2>
    8000488e:	4e98                	lw	a4,24(a3)
    80004890:	00af0e9b          	addw	t4,t5,10
    80004894:	010e939b          	sllw	t2,t4,0x10
    80004898:	4103d29b          	sraw	t0,t2,0x10
    8000489c:	4e01                	li	t3,0
    8000489e:	03029093          	sll	ra,t0,0x30
    800048a2:	01c707bb          	addw	a5,a4,t3
    800048a6:	0300df93          	srl	t6,ra,0x30
    800048aa:	eefa55e3          	bge	s4,a5,80004794 <core_bench_matrix+0x12d4>
    800048ae:	00af879b          	addw	a5,t6,10
    800048b2:	0107961b          	sllw	a2,a5,0x10
    800048b6:	4106551b          	sraw	a0,a2,0x10
    800048ba:	4781                	li	a5,0
    800048bc:	b5e5                	j	800047a4 <core_bench_matrix+0x12e4>
    800048be:	004b2d03          	lw	s10,4(s6)
    800048c2:	00a50f1b          	addw	t5,a0,10
    800048c6:	010f131b          	sllw	t1,t5,0x10
    800048ca:	4103589b          	sraw	a7,t1,0x10
    800048ce:	4681                	li	a3,0
    800048d0:	03089613          	sll	a2,a7,0x30
    800048d4:	00dd07bb          	addw	a5,s10,a3
    800048d8:	03065393          	srl	t2,a2,0x30
    800048dc:	12fa4463          	blt	s4,a5,80004a04 <core_bench_matrix+0x1544>
    800048e0:	01afa733          	slt	a4,t6,s10
    800048e4:	00770ebb          	addw	t4,a4,t2
    800048e8:	008b2803          	lw	a6,8(s6)
    800048ec:	010e991b          	sllw	s2,t4,0x10
    800048f0:	41095f9b          	sraw	t6,s2,0x10
    800048f4:	030f9513          	sll	a0,t6,0x30
    800048f8:	00f803bb          	addw	t2,a6,a5
    800048fc:	03055993          	srl	s3,a0,0x30
    80004900:	127a4363          	blt	s4,t2,80004a26 <core_bench_matrix+0x1566>
    80004904:	010d2ab3          	slt	s5,s10,a6
    80004908:	013a82bb          	addw	t0,s5,s3
    8000490c:	00cb2d03          	lw	s10,12(s6)
    80004910:	01029f1b          	sllw	t5,t0,0x10
    80004914:	410f569b          	sraw	a3,t5,0x10
    80004918:	03069613          	sll	a2,a3,0x30
    8000491c:	007d07bb          	addw	a5,s10,t2
    80004920:	03065e93          	srl	t4,a2,0x30
    80004924:	12fa4263          	blt	s4,a5,80004a48 <core_bench_matrix+0x1588>
    80004928:	01a82733          	slt	a4,a6,s10
    8000492c:	01d7093b          	addw	s2,a4,t4
    80004930:	010b2983          	lw	s3,16(s6)
    80004934:	01091e1b          	sllw	t3,s2,0x10
    80004938:	410e581b          	sraw	a6,t3,0x10
    8000493c:	03081513          	sll	a0,a6,0x30
    80004940:	00f98ebb          	addw	t4,s3,a5
    80004944:	03055a93          	srl	s5,a0,0x30
    80004948:	13da4163          	blt	s4,t4,80004a6a <core_bench_matrix+0x15aa>
    8000494c:	013d22b3          	slt	t0,s10,s3
    80004950:	01528f3b          	addw	t5,t0,s5
    80004954:	014b2d03          	lw	s10,20(s6)
    80004958:	010f131b          	sllw	t1,t5,0x10
    8000495c:	4103539b          	sraw	t2,t1,0x10
    80004960:	03039613          	sll	a2,t2,0x30
    80004964:	01dd07bb          	addw	a5,s10,t4
    80004968:	03065913          	srl	s2,a2,0x30
    8000496c:	12fa4063          	blt	s4,a5,80004a8c <core_bench_matrix+0x15cc>
    80004970:	01a9a733          	slt	a4,s3,s10
    80004974:	01270e3b          	addw	t3,a4,s2
    80004978:	018b2703          	lw	a4,24(s6)
    8000497c:	010e109b          	sllw	ra,t3,0x10
    80004980:	4100d99b          	sraw	s3,ra,0x10
    80004984:	03099513          	sll	a0,s3,0x30
    80004988:	9fb9                	addw	a5,a5,a4
    8000498a:	03055a93          	srl	s5,a0,0x30
    8000498e:	10fa4f63          	blt	s4,a5,80004aac <core_bench_matrix+0x15ec>
    80004992:	00ed22b3          	slt	t0,s10,a4
    80004996:	01528f3b          	addw	t5,t0,s5
    8000499a:	010f131b          	sllw	t1,t5,0x10
    8000499e:	4103551b          	sraw	a0,t1,0x10
    800049a2:	0b71                	add	s6,s6,28
    800049a4:	95648ce3          	beq	s1,s6,800042fc <core_bench_matrix+0xe3c>
    800049a8:	000b2d03          	lw	s10,0(s6)
    800049ac:	03051693          	sll	a3,a0,0x30
    800049b0:	0306d613          	srl	a2,a3,0x30
    800049b4:	00fd03bb          	addw	t2,s10,a5
    800049b8:	107a5263          	bge	s4,t2,80004abc <core_bench_matrix+0x15fc>
    800049bc:	00a6009b          	addw	ra,a2,10
    800049c0:	0100979b          	sllw	a5,ra,0x10
    800049c4:	4107de1b          	sraw	t3,a5,0x10
    800049c8:	4381                	li	t2,0
    800049ca:	004b2f83          	lw	t6,4(s6)
    800049ce:	030e1813          	sll	a6,t3,0x30
    800049d2:	0b11                	add	s6,s6,4
    800049d4:	007f86bb          	addw	a3,t6,t2
    800049d8:	03085513          	srl	a0,a6,0x30
    800049dc:	eeda41e3          	blt	s4,a3,800048be <core_bench_matrix+0x13fe>
    800049e0:	01fd29b3          	slt	s3,s10,t6
    800049e4:	00a98abb          	addw	s5,s3,a0
    800049e8:	004b2d03          	lw	s10,4(s6)
    800049ec:	010a929b          	sllw	t0,s5,0x10
    800049f0:	4102d89b          	sraw	a7,t0,0x10
    800049f4:	03089613          	sll	a2,a7,0x30
    800049f8:	00dd07bb          	addw	a5,s10,a3
    800049fc:	03065393          	srl	t2,a2,0x30
    80004a00:	eefa50e3          	bge	s4,a5,800048e0 <core_bench_matrix+0x1420>
    80004a04:	00a38e1b          	addw	t3,t2,10
    80004a08:	008b2803          	lw	a6,8(s6)
    80004a0c:	010e109b          	sllw	ra,t3,0x10
    80004a10:	4100df9b          	sraw	t6,ra,0x10
    80004a14:	4781                	li	a5,0
    80004a16:	030f9513          	sll	a0,t6,0x30
    80004a1a:	00f803bb          	addw	t2,a6,a5
    80004a1e:	03055993          	srl	s3,a0,0x30
    80004a22:	ee7a51e3          	bge	s4,t2,80004904 <core_bench_matrix+0x1444>
    80004a26:	00cb2d03          	lw	s10,12(s6)
    80004a2a:	00a9831b          	addw	t1,s3,10
    80004a2e:	0103189b          	sllw	a7,t1,0x10
    80004a32:	4108d69b          	sraw	a3,a7,0x10
    80004a36:	4381                	li	t2,0
    80004a38:	03069613          	sll	a2,a3,0x30
    80004a3c:	007d07bb          	addw	a5,s10,t2
    80004a40:	03065e93          	srl	t4,a2,0x30
    80004a44:	eefa52e3          	bge	s4,a5,80004928 <core_bench_matrix+0x1468>
    80004a48:	00ae809b          	addw	ra,t4,10
    80004a4c:	010b2983          	lw	s3,16(s6)
    80004a50:	01009f9b          	sllw	t6,ra,0x10
    80004a54:	410fd81b          	sraw	a6,t6,0x10
    80004a58:	4781                	li	a5,0
    80004a5a:	03081513          	sll	a0,a6,0x30
    80004a5e:	00f98ebb          	addw	t4,s3,a5
    80004a62:	03055a93          	srl	s5,a0,0x30
    80004a66:	efda53e3          	bge	s4,t4,8000494c <core_bench_matrix+0x148c>
    80004a6a:	014b2d03          	lw	s10,20(s6)
    80004a6e:	00aa889b          	addw	a7,s5,10
    80004a72:	0108969b          	sllw	a3,a7,0x10
    80004a76:	4106d39b          	sraw	t2,a3,0x10
    80004a7a:	4e81                	li	t4,0
    80004a7c:	03039613          	sll	a2,t2,0x30
    80004a80:	01dd07bb          	addw	a5,s10,t4
    80004a84:	03065913          	srl	s2,a2,0x30
    80004a88:	eefa54e3          	bge	s4,a5,80004970 <core_bench_matrix+0x14b0>
    80004a8c:	018b2703          	lw	a4,24(s6)
    80004a90:	00a90f9b          	addw	t6,s2,10
    80004a94:	010f981b          	sllw	a6,t6,0x10
    80004a98:	4108599b          	sraw	s3,a6,0x10
    80004a9c:	4781                	li	a5,0
    80004a9e:	03099513          	sll	a0,s3,0x30
    80004aa2:	9fb9                	addw	a5,a5,a4
    80004aa4:	03055a93          	srl	s5,a0,0x30
    80004aa8:	eefa55e3          	bge	s4,a5,80004992 <core_bench_matrix+0x14d2>
    80004aac:	00aa889b          	addw	a7,s5,10
    80004ab0:	0108969b          	sllw	a3,a7,0x10
    80004ab4:	4106d51b          	sraw	a0,a3,0x10
    80004ab8:	4781                	li	a5,0
    80004aba:	b5e5                	j	800049a2 <core_bench_matrix+0x14e2>
    80004abc:	01a72733          	slt	a4,a4,s10
    80004ac0:	00c70ebb          	addw	t4,a4,a2
    80004ac4:	010e991b          	sllw	s2,t4,0x10
    80004ac8:	41095e1b          	sraw	t3,s2,0x10
    80004acc:	bdfd                	j	800049ca <core_bench_matrix+0x150a>
    80004ace:	00172733          	slt	a4,a4,ra
    80004ad2:	006708bb          	addw	a7,a4,t1
    80004ad6:	01089f1b          	sllw	t5,a7,0x10
    80004ada:	410f561b          	sraw	a2,t5,0x10
    80004ade:	b1fd                	j	800047cc <core_bench_matrix+0x130c>
    80004ae0:	01172733          	slt	a4,a4,a7
    80004ae4:	01d700bb          	addw	ra,a4,t4
    80004ae8:	0100931b          	sllw	t1,ra,0x10
    80004aec:	4103551b          	sraw	a0,t1,0x10
    80004af0:	b4c5                	j	800045d0 <core_bench_matrix+0x1110>
    80004af2:	00a8029b          	addw	t0,a6,10
    80004af6:	01029e1b          	sllw	t3,t0,0x10
    80004afa:	410e551b          	sraw	a0,t3,0x10
    80004afe:	4781                	li	a5,0
    80004b00:	dacff06f          	j	800040ac <core_bench_matrix+0xbec>
    80004b04:	00a80f1b          	addw	t5,a6,10
    80004b08:	010f139b          	sllw	t2,t5,0x10
    80004b0c:	4103d51b          	sraw	a0,t2,0x10
    80004b10:	4781                	li	a5,0
    80004b12:	ab0ff06f          	j	80003dc2 <core_bench_matrix+0x902>
    80004b16:	00a9831b          	addw	t1,s3,10
    80004b1a:	0103189b          	sllw	a7,t1,0x10
    80004b1e:	4108d51b          	sraw	a0,a7,0x10
    80004b22:	4781                	li	a5,0
    80004b24:	fd2ff06f          	j	800042f6 <core_bench_matrix+0xe36>
    80004b28:	00ae879b          	addw	a5,t4,10
    80004b2c:	01079f9b          	sllw	t6,a5,0x10
    80004b30:	410fd51b          	sraw	a0,t6,0x10
    80004b34:	4781                	li	a5,0
    80004b36:	0b11                	add	s6,s6,4
    80004b38:	f9cff06f          	j	800042d4 <core_bench_matrix+0xe14>
    80004b3c:	00a3879b          	addw	a5,t2,10
    80004b40:	0107909b          	sllw	ra,a5,0x10
    80004b44:	4100d51b          	sraw	a0,ra,0x10
    80004b48:	4781                	li	a5,0
    80004b4a:	0691                	add	a3,a3,4
    80004b4c:	a56ff06f          	j	80003da2 <core_bench_matrix+0x8e2>
    80004b50:	00ae079b          	addw	a5,t3,10
    80004b54:	0107989b          	sllw	a7,a5,0x10
    80004b58:	4108d51b          	sraw	a0,a7,0x10
    80004b5c:	4781                	li	a5,0
    80004b5e:	0691                	add	a3,a3,4
    80004b60:	d2aff06f          	j	8000408a <core_bench_matrix+0xbca>
    80004b64:	00a2869b          	addw	a3,t0,10
    80004b68:	01069d1b          	sllw	s10,a3,0x10
    80004b6c:	410d551b          	sraw	a0,s10,0x10
    80004b70:	4781                	li	a5,0
    80004b72:	0b11                	add	s6,s6,4
    80004b74:	f3aff06f          	j	800042ae <core_bench_matrix+0xdee>
    80004b78:	00a08e1b          	addw	t3,ra,10
    80004b7c:	010e161b          	sllw	a2,t3,0x10
    80004b80:	4106551b          	sraw	a0,a2,0x10
    80004b84:	4781                	li	a5,0
    80004b86:	0691                	add	a3,a3,4
    80004b88:	9f6ff06f          	j	80003d7e <core_bench_matrix+0x8be>
    80004b8c:	00a8851b          	addw	a0,a7,10
    80004b90:	01051e9b          	sllw	t4,a0,0x10
    80004b94:	410ed51b          	sraw	a0,t4,0x10
    80004b98:	4781                	li	a5,0
    80004b9a:	0691                	add	a3,a3,4
    80004b9c:	ccaff06f          	j	80004066 <core_bench_matrix+0xba6>
    80004ba0:	00a9081b          	addw	a6,s2,10
    80004ba4:	0108151b          	sllw	a0,a6,0x10
    80004ba8:	4105551b          	sraw	a0,a0,0x10
    80004bac:	4781                	li	a5,0
    80004bae:	0b11                	add	s6,s6,4
    80004bb0:	ed8ff06f          	j	80004288 <core_bench_matrix+0xdc8>
    80004bb4:	00ae879b          	addw	a5,t4,10
    80004bb8:	0107909b          	sllw	ra,a5,0x10
    80004bbc:	4100d51b          	sraw	a0,ra,0x10
    80004bc0:	4781                	li	a5,0
    80004bc2:	0691                	add	a3,a3,4
    80004bc4:	c7eff06f          	j	80004042 <core_bench_matrix+0xb82>
    80004bc8:	00aa859b          	addw	a1,s5,10
    80004bcc:	0105939b          	sllw	t2,a1,0x10
    80004bd0:	4103d51b          	sraw	a0,t2,0x10
    80004bd4:	4781                	li	a5,0
    80004bd6:	0691                	add	a3,a3,4
    80004bd8:	cadfe06f          	j	80003884 <core_bench_matrix+0x3c4>
    80004bdc:	00a6079b          	addw	a5,a2,10
    80004be0:	0107989b          	sllw	a7,a5,0x10
    80004be4:	4108d51b          	sraw	a0,a7,0x10
    80004be8:	4781                	li	a5,0
    80004bea:	0691                	add	a3,a3,4
    80004bec:	96eff06f          	j	80003d5a <core_bench_matrix+0x89a>
    80004bf0:	00ef2fb3          	slt	t6,t5,a4
    80004bf4:	011f8ebb          	addw	t4,t6,a7
    80004bf8:	010e909b          	sllw	ra,t4,0x10
    80004bfc:	4100d51b          	sraw	a0,ra,0x10
    80004c00:	0691                	add	a3,a3,4
    80004c02:	934ff06f          	j	80003d36 <core_bench_matrix+0x876>
    80004c06:	00e2afb3          	slt	t6,t0,a4
    80004c0a:	001f833b          	addw	t1,t6,ra
    80004c0e:	0103189b          	sllw	a7,t1,0x10
    80004c12:	4108d51b          	sraw	a0,a7,0x10
    80004c16:	0691                	add	a3,a3,4
    80004c18:	c08ff06f          	j	80004020 <core_bench_matrix+0xb60>
    80004c1c:	00e2a8b3          	slt	a7,t0,a4
    80004c20:	006886bb          	addw	a3,a7,t1
    80004c24:	01069d1b          	sllw	s10,a3,0x10
    80004c28:	410d551b          	sraw	a0,s10,0x10
    80004c2c:	0b11                	add	s6,s6,4
    80004c2e:	e34ff06f          	j	80004262 <core_bench_matrix+0xda2>
    80004c32:	00e0a633          	slt	a2,ra,a4
    80004c36:	01060ebb          	addw	t4,a2,a6
    80004c3a:	010e9f1b          	sllw	t5,t4,0x10
    80004c3e:	410f551b          	sraw	a0,t5,0x10
    80004c42:	0691                	add	a3,a3,4
    80004c44:	c1bfe06f          	j	8000385e <core_bench_matrix+0x39e>
    80004c48:	00e92fb3          	slt	t6,s2,a4
    80004c4c:	001f883b          	addw	a6,t6,ra
    80004c50:	0108151b          	sllw	a0,a6,0x10
    80004c54:	4105551b          	sraw	a0,a0,0x10
    80004c58:	0b11                	add	s6,s6,4
    80004c5a:	de4ff06f          	j	8000423e <core_bench_matrix+0xd7e>
    80004c5e:	0009d883          	lhu	a7,0(s3)
    80004c62:	00298a93          	add	s5,s3,2
    80004c66:	00490793          	add	a5,s2,4
    80004c6a:	00f8f993          	and	s3,a7,15
    80004c6e:	01392023          	sw	s3,0(s2)
    80004c72:	c86ff06f          	j	800040f8 <core_bench_matrix+0xc38>
    80004c76:	00efa8b3          	slt	a7,t6,a4
    80004c7a:	01588b3b          	addw	s6,a7,s5
    80004c7e:	010b1d1b          	sllw	s10,s6,0x10
    80004c82:	410d551b          	sraw	a0,s10,0x10
    80004c86:	0691                	add	a3,a3,4
    80004c88:	bb1fe06f          	j	80003838 <core_bench_matrix+0x378>
    80004c8c:	00041b03          	lh	s6,0(s0)
    80004c90:	00240793          	add	a5,s0,2
    80004c94:	00490713          	add	a4,s2,4
    80004c98:	037b0d3b          	mulw	s10,s6,s7
    80004c9c:	01a92023          	sw	s10,0(s2)
    80004ca0:	a4dfe06f          	j	800036ec <core_bench_matrix+0x22c>
    80004ca4:	00e0a833          	slt	a6,ra,a4
    80004ca8:	00680e3b          	addw	t3,a6,t1
    80004cac:	010e161b          	sllw	a2,t3,0x10
    80004cb0:	4106551b          	sraw	a0,a2,0x10
    80004cb4:	0691                	add	a3,a3,4
    80004cb6:	85eff06f          	j	80003d14 <core_bench_matrix+0x854>
    80004cba:	00e8a533          	slt	a0,a7,a4
    80004cbe:	00c5083b          	addw	a6,a0,a2
    80004cc2:	01081e9b          	sllw	t4,a6,0x10
    80004cc6:	410ed51b          	sraw	a0,t4,0x10
    80004cca:	0691                	add	a3,a3,4
    80004ccc:	b32ff06f          	j	80003ffe <core_bench_matrix+0xb3e>
    80004cd0:	4581                	li	a1,0
    80004cd2:	4501                	li	a0,0
    80004cd4:	bf9fc0ef          	jal	800018cc <crc16>
    80004cd8:	85aa                	mv	a1,a0
    80004cda:	c099                	beqz	s1,80004ce0 <core_bench_matrix+0x1820>
    80004cdc:	d43fe06f          	j	80003a1e <core_bench_matrix+0x55e>
    80004ce0:	85aa                	mv	a1,a0
